(dp0
S'EvadingImmuneDetection'
p1
(lp2
S'GO:0002837'
p3
aS'GO:0002418'
p4
aS'GO:0002367'
p5
aS'GO:0050776'
p6
asS'SelfSufficiencyInGrowthSignals'
p7
(lp8
S'GO:0009967'
p9
aS'GO:0030307'
p10
aS'GO:0008284'
p11
aS'GO:0045787'
p12
aS'GO:0007165'
p13
asS'ReprogrammingEnergyMetabolism'
p14
(lp15
S'GO:0006096'
p16
aS'GO:0071456'
p17
asS'TumorPromotingInflammation'
p18
(lp19
S'GO:0002419'
p20
aS'GO:0002420'
p21
aS'GO:0002857'
p22
aS'GO:0002842'
p23
aS'GO:0002367'
p24
aS'GO:0050776'
p25
asS'SustainedAngiogenesis'
p26
(lp27
S'GO:0045765'
p28
aS'GO:0045766'
p29
aS'GO:0030949'
p30
aS'GO:0001570'
p31
asS'TissueInvasionAndMetastasis'
p32
(lp33
S'GO:0042060'
p34
aS'GO:0007162'
p35
aS'GO:0033631'
p36
aS'GO:0044331'
p37
aS'GO:0001837'
p38
aS'GO:0016477'
p39
aS'GO:0048870'
p40
aS'GO:0007155'
p41
asS'GenomeInstabilityAndMutation'
p42
(lp43
S'GO:0051276'
p44
aS'GO:0045005'
p45
aS'GO:0006281'
p46
asS'LimitlessReplicativePotential'
p47
(lp48
S'GO:0001302'
p49
aS'GO:0032206'
p50
aS'GO:0090398'
p51
asS'EvadingApoptosis'
p52
(lp53
S'GO:0043069'
p54
aS'GO:0043066'
p55
aS'GO:0045768'
p56
asS'InsensitivityToAntigrowthSignals'
p57
(lp58
S'GO:0009968'
p59
aS'GO:0030308'
p60
aS'GO:0008285'
p61
aS'GO:0045786'
p62
aS'GO:0007165'
p63
as.