(dp0
S'GO:0090398'
p1
(lp2
S'LimitlessReplicativePotential'
p3
asS'GO:0030308'
p4
(lp5
S'InsensitivityToAntigrowthSignals'
p6
asS'GO:0030307'
p7
(lp8
S'SelfSufficiencyInGrowthSignals'
p9
asS'GO:0002837'
p10
(lp11
S'EvadingImmuneDetection'
p12
asS'GO:0002857'
p13
(lp14
S'TumorPromotingInflammation'
p15
asS'GO:0007162'
p16
(lp17
S'TissueInvasionAndMetastasis'
p18
asS'GO:0007165'
p19
(lp20
g9
ag6
asS'GO:0006096'
p21
(lp22
S'ReprogrammingEnergyMetabolism'
p23
asS'GO:0045768'
p24
(lp25
S'EvadingApoptosis'
p26
asS'GO:0045786'
p27
(lp28
g6
asS'GO:0045787'
p29
(lp30
g9
asS'GO:0009968'
p31
(lp32
g6
asS'GO:0009967'
p33
(lp34
g9
asS'GO:0002419'
p35
(lp36
g15
asS'GO:0002418'
p37
(lp38
g12
asS'GO:0045765'
p39
(lp40
S'SustainedAngiogenesis'
p41
asS'GO:0045766'
p42
(lp43
g41
asS'GO:0002367'
p44
(lp45
g12
ag15
asS'GO:0043066'
p46
(lp47
g26
asS'GO:0071456'
p48
(lp49
g23
asS'GO:0016477'
p50
(lp51
g18
asS'GO:0043069'
p52
(lp53
g26
asS'GO:0008284'
p54
(lp55
g9
asS'GO:0008285'
p56
(lp57
g6
asS'GO:0006281'
p58
(lp59
S'GenomeInstabilityAndMutation'
p60
asS'GO:0042060'
p61
(lp62
g18
asS'GO:0002842'
p63
(lp64
g15
asS'GO:0007155'
p65
(lp66
g18
asS'GO:0044331'
p67
(lp68
g18
asS'GO:0045005'
p69
(lp70
g60
asS'GO:0001570'
p71
(lp72
g41
asS'GO:0050776'
p73
(lp74
g12
ag15
asS'GO:0001302'
p75
(lp76
g3
asS'GO:0051276'
p77
(lp78
g60
asS'GO:0048870'
p79
(lp80
g18
asS'GO:0030949'
p81
(lp82
g41
asS'GO:0002420'
p83
(lp84
g15
asS'GO:0032206'
p85
(lp86
g3
asS'GO:0001837'
p87
(lp88
g18
asS'GO:0033631'
p89
(lp90
g18
as.