(dp0
S'V$MAZ_Q6_01_M02023'
p1
(lp2
S'ENSG00000103495'
p3
asS'V$ERM_02_M02069'
p4
(lp5
S'ENSG00000244405'
p6
asS'V$ARP1_01_M00155'
p7
(lp8
S'ENSG00000164093'
p9
asS'Pitx1.1'
p10
(lp11
S'ENSG00000069011'
p12
asS'V$NF1_Q6_M00193'
p13
(lp14
S'ENSG00000196712'
p15
asS'V$GATA1_09_M02254'
p16
(lp17
S'ENSG00000102145'
p18
asS'EMX1_homeodomain_DBD_dimeric_14_1'
p19
(lp20
S'ENSG00000135638'
p21
asS'V$E2F4_04_M02847'
p22
(lp23
S'ENSG00000205250'
p24
asS'V$CTF_01_M02050'
p25
(lp26
S'ENSG00000141905'
p27
asS'SOX4.1'
p28
(lp29
S'ENSG00000124766'
p30
asS'PHOX2B_homeodomain_full_dimeric_11_1'
p31
(lp32
S'ENSG00000109132'
p33
asS'V$LRH1_Q5_M01142'
p34
(lp35
S'ENSG00000116833'
p36
asS'V$COUP_DR1_Q6_M00765'
p37
(lp38
S'ENSG00000175745'
p39
asS'V$HOXC8_01_M01321'
p40
(lp41
S'ENSG00000037965'
p42
asS'V$E2F_Q3_M00425'
p43
(lp44
S'ENSG00000101412'
p45
asS'E2F3_E2F_DBD_dimeric_18_3'
p46
(lp47
S'ENSG00000112242'
p48
asS'E2F3_E2F_DBD_dimeric_18_2'
p49
(lp50
g48
asS'V$AHRARNT_01_M00235'
p51
(lp52
S'ENSG00000106546'
p53
asS'V$MSX2_01_M01393'
p54
(lp55
S'ENSG00000120149'
p56
asS'Hoxa6.1'
p57
(lp58
S'ENSG00000106006'
p59
asS'V$CEBPB_02_M00117'
p60
(lp61
S'ENSG00000172216'
p62
asS'V$IPF1_03_M01235'
p63
(lp64
S'ENSG00000139515'
p65
asS'Lmx1a.1'
p66
(lp67
S'ENSG00000162761'
p68
asS'V$ZFP410_03_M02832'
p69
(lp70
S'ENSG00000119725'
p71
asS'Lhx9.1'
p72
(lp73
S'ENSG00000143355'
p74
asS'V$SOX14_05_M02902'
p75
(lp76
S'ENSG00000168875'
p77
asS'V$HOXA1_01_M01487'
p78
(lp79
S'ENSG00000105991'
p80
asS'V$BCL6_Q3_M01171'
p81
(lp82
S'ENSG00000113916'
p83
asS'V$RUNX1_01_M02257'
p84
(lp85
S'ENSG00000159216'
p86
asS'OTX2_homeodomain_DBD_dimeric_15_1'
p87
(lp88
S'ENSG00000165588'
p89
asS'IRF2_MA0051.1'
p90
(lp91
S'ENSG00000168310'
p92
asS'ALX3_homeodomain_full_dimeric_13_1'
p93
(lp94
S'ENSG00000156150'
p95
asS'V$GKLF_02_M01588'
p96
(lp97
S'ENSG00000136826'
p98
asS'V$STAT5A_Q6_M01890'
p99
(lp100
S'ENSG00000126561'
p101
asS'V$CUX1_03_M02958'
p102
(lp103
S'ENSG00000257923'
p104
asS'V$DEC_Q1_M00997'
p105
(lp106
S'ENSG00000171862'
p107
asS'V$FOXO1_01_M00473'
p108
(lp109
S'ENSG00000150907'
p110
asS'V$BRN2_01_M00145'
p111
(lp112
S'ENSG00000184486'
p113
asS'V$LHX3_Q3_M02097'
p114
(lp115
S'ENSG00000107187'
p116
asS'SOX15_HMG_full_dimeric_15_1'
p117
(lp118
S'ENSG00000129194'
p119
asS'SOX15_HMG_full_dimeric_15_3'
p120
(lp121
g119
asS'Creb3l2_bZIP_DBD_dimeric_13_1'
p122
(lp123
S'ENSG00000182158'
p124
asS'V$SPIB_02_M02041'
p125
(lp126
S'ENSG00000269404'
p127
asS'V$T3RALPHA_Q6_M01724'
p128
(lp129
S'ENSG00000126351'
p130
asS'HOMEZ_HOMEZ_DBD_monomer-or-dimer_12_1'
p131
(lp132
S'ENSG00000215271'
p133
asS'V$GATA1_Q6_M02004'
p134
(lp135
g18
asS'V$PBX1_04_M01357'
p136
(lp137
S'ENSG00000185630'
p138
asS'V$ETV3_02_M02068'
p139
(lp140
S'ENSG00000117036'
p141
asS'MAX_MA0058.1'
p142
(lp143
S'ENSG00000125952'
p144
asS'V$ERR3_Q2_01_M02094'
p145
(lp146
S'ENSG00000196482'
p147
asS'Hoxa2.1'
p148
(lp149
S'ENSG00000105996'
p150
asS'ISL2_homeodomain_DBD_monomeric_8_1'
p151
(lp152
S'ENSG00000159556'
p153
asS'NR2E1_nuclearreceptor_full_dimeric_14_1'
p154
(lp155
S'ENSG00000112333'
p156
asS'V$SOX17_04_M02904'
p157
(lp158
S'ENSG00000164736'
p159
asS'PBX1_MA0070.1'
p160
(lp161
g138
asS'V$NERF_01_M01976'
p162
(lp163
S'ENSG00000109381'
p164
asS'TBX2_TBX_full_dimeric_18_1'
p165
(lp166
S'ENSG00000121068'
p167
asS'VSX1_homeodomain_full_monomeric_11_1'
p168
(lp169
S'ENSG00000100987'
p170
asS'V$GLI2_01_M01703'
p171
(lp172
S'ENSG00000074047'
p173
asS'V$GATA2_01_M00076'
p174
(lp175
S'ENSG00000179348'
p176
asS'MAFK_bZIP_full_monomeric_12_1'
p177
(lp178
S'ENSG00000198517'
p179
asS'V$ELK1_04_M01165'
p180
(lp181
S'ENSG00000126767'
p182
asS'Uncx_homeodomain_DBD_dimeric_13_1'
p183
(lp184
S'ENSG00000164853'
p185
asS'V$CETS1P54_03_M01078'
p186
(lp187
S'ENSG00000134954'
p188
asS'SOX10_HMG_full_dimeric_15_3'
p189
(lp190
S'ENSG00000100146'
p191
asS'V$DR4_Q2_M00965'
p192
(lp193
S'ENSG00000104689'
p194
asS'IRF7_IRF_DBD_trimeric_17_1'
p195
(lp196
S'ENSG00000185507'
p197
aS'ENSG00000276561'
p198
asS'HOXC11_homeodomain_full_monomeric_11_2'
p199
(lp200
S'ENSG00000123388'
p201
asS'HOXC11_homeodomain_full_monomeric_11_1'
p202
(lp203
g201
asS'Zfp281.1'
p204
(lp205
S'ENSG00000162702'
p206
asS'V$PAX6_Q2_M00979'
p207
(lp208
S'ENSG00000007372'
p209
asS'Zfp281.2'
p210
(lp211
g206
asS'V$ZFP691_04_M02937'
p212
(lp213
S'ENSG00000164011'
p214
asS'Foxa2.2'
p215
(lp216
S'ENSG00000125798'
p217
asS'Foxa2.1'
p218
(lp219
g217
asS'V$SATB1_Q5_M02030'
p220
(lp221
S'ENSG00000182568'
p222
asS'TBX1_TBX_DBD_dimeric_20_2'
p223
(lp224
S'ENSG00000184058'
p225
asS'V$AP2_Q6_M00189'
p226
(lp227
S'ENSG00000137203'
p228
asS'Nkx1-2.1'
p229
(lp230
S'ENSG00000229544'
p231
asS'RELA_MA0107.1'
p232
(lp233
S'ENSG00000173039'
p234
asS'PITX1_homeodomain_full_monomeric_8_1'
p235
(lp236
g12
asS'V$CMAF_01_M01070'
p237
(lp238
S'ENSG00000178573'
p239
asS'V$IRF3_Q3_M01279'
p240
(lp241
S'ENSG00000126456'
p242
asS'V$AHR_Q6_M01855'
p243
(lp244
g53
asS'V$STAT5A_02_M00460'
p245
(lp246
g101
asS'V$NFY_Q6_01_M00775'
p247
(lp248
S'ENSG00000001167'
p249
asS'V$GATA1_03_M00127'
p250
(lp251
g18
asS'V$CEBP_C_M00201'
p252
(lp253
S'ENSG00000245848'
p254
asS'V$COREBINDINGFACTOR_Q6_M00722'
p255
(lp256
S'ENSG00000115816'
p257
asS'V$USF_Q6_M00187'
p258
(lp259
S'ENSG00000158773'
p260
asS'NFIA_NFI_full_monomeric_10_1'
p261
(lp262
S'ENSG00000162599'
p263
asS'Gsc.1'
p264
(lp265
S'ENSG00000133937'
p266
asS'V$GSH2_01_M01326'
p267
(lp268
S'ENSG00000180613'
p269
asS'V$AP4_01_M00005'
p270
(lp271
g228
asS'V$GCM1_04_M02862'
p272
(lp273
S'ENSG00000137270'
p274
asS'V$AP2_Q3_M00800'
p275
(lp276
g228
asS'V$LHX3_01_M01471'
p277
(lp278
g116
asS'NHLH1_MA0048.1'
p279
(lp280
S'ENSG00000171786'
p281
asS'Lhx4.1'
p282
(lp283
S'ENSG00000121454'
p284
asS'V$SIX6_08_M02897'
p285
(lp286
S'ENSG00000184302'
p287
asS'ETV6_ETS_full_dimeric_15_1'
p288
(lp289
S'ENSG00000139083'
p290
asS'V$LEF1_Q5_M02019'
p291
(lp292
S'ENSG00000138795'
p293
asS'Gbx2.1'
p294
(lp295
S'ENSG00000168505'
p296
asS'V$FOXO3A_Q1_M01137'
p297
(lp298
S'ENSG00000118689'
p299
asS'V$MYOGENIN_Q6_M00712'
p300
(lp301
S'ENSG00000122180'
p302
asS'Emx2.1'
p303
(lp304
S'ENSG00000170370'
p305
asS'V$MECP2_02_M01299'
p306
(lp307
S'ENSG00000169057'
p308
asS'V$MECP2_01_M01298'
p309
(lp310
g308
asS'Hoxb6.1'
p311
(lp312
S'ENSG00000108511'
p313
asS'PAX7_PAX_full_dimeric_10_1'
p314
(lp315
S'ENSG00000009709'
p316
asS'V$TEL1_01_M01993'
p317
(lp318
g290
asS'V$SOX10_01_M03138'
p319
(lp320
g191
asS'V$PAX4_02_M00377'
p321
(lp322
S'ENSG00000106331'
p323
asS'PDX1_homeodomain_DBD_monomeric_8_1'
p324
(lp325
g65
asS'ZBED1_znf_BED_DBD_dimeric_13_1'
p326
(lp327
S'ENSG00000214717'
p328
asS'POU3F3_POU_DBD_monomeric_13_1'
p329
(lp330
S'ENSG00000198914'
p331
asS'V$E2F3_03_M02743'
p332
(lp333
g48
asS'Foxq1_MA0040.1'
p334
(lp335
S'ENSG00000164379'
p336
asS'V$GCM1_03_M02758'
p337
(lp338
g274
asS'CEBPE_bZIP_DBD_dimeric_10_1'
p339
(lp340
S'ENSG00000092067'
p341
asS'V$MTERF_01_M01245'
p342
(lp343
S'ENSG00000127989'
p344
asS'Dlx1.1'
p345
(lp346
S'ENSG00000144355'
p347
asS'V$SRF_01_M00152'
p348
(lp349
S'ENSG00000112658'
p350
asS'V$ERBETA_Q5_M01875'
p351
(lp352
S'ENSG00000140009'
p353
asS'RUNX3_RUNX_DBD_dimeric_18_1'
p354
(lp355
S'ENSG00000020633'
p356
asS'V$ZFP105_03_M02827'
p357
(lp358
S'ENSG00000281306'
p359
aS'ENSG00000169981'
p360
asS'V$ELK1_05_M01981'
p361
(lp362
g182
asS'Nobox_MA0125.1'
p363
(lp364
S'ENSG00000106410'
p365
asS'V$MAFB_03_M02879'
p366
(lp367
S'ENSG00000204103'
p368
asS'V$PRX2_Q2_M02115'
p369
(lp370
S'ENSG00000167157'
p371
asS'V$IPF1_Q4_M00436'
p372
(lp373
g65
asS'Pbx1.1'
p374
(lp375
g138
asS'Mtf1.2'
p376
(lp377
S'ENSG00000188786'
p378
asS'Otx1_homeodomain_DBD_dimeric_15_1'
p379
(lp380
S'ENSG00000115507'
p381
asS'V$HB24_01_M01399'
p382
(lp383
S'ENSG00000136630'
p384
asS'Klf7.1'
p385
(lp386
S'ENSG00000118263'
p387
asS'Klf7.2'
p388
(lp389
g387
asS'Etv3.1'
p390
(lp391
g141
asS'Hoxb8.1'
p392
(lp393
S'ENSG00000120068'
p394
asS'Hnf4a.1'
p395
(lp396
S'ENSG00000101076'
p397
asS'Hnf4a.2'
p398
(lp399
g397
asS'SRF_MADS_DBD_dimeric_12_1'
p400
(lp401
g350
asS'V$FOXJ2_02_M00423'
p402
(lp403
S'ENSG00000065970'
p404
asS'THRB_nuclearreceptor_DBD_dimeric_18_1'
p405
(lp406
S'ENSG00000151090'
p407
asS'Sox2_MA0143.1'
p408
(lp409
S'ENSG00000181449'
p410
asS'V$HOXC6_01_M01406'
p411
(lp412
S'ENSG00000197757'
p413
asS'Pax2_MA0067.1'
p414
(lp415
S'ENSG00000075891'
p416
asS'LHX9_homeodomain_DBD_dimeric_13_1'
p417
(lp418
g74
asS'V$NFKAPPAB50_01_M00051'
p419
(lp420
S'ENSG00000109320'
p421
asS'V$PBX1_01_M00096'
p422
(lp423
g138
asS'V$MAFK_04_M02880'
p424
(lp425
g179
asS'Isgf3g.2'
p426
(lp427
S'ENSG00000213928'
p428
asS'Isgf3g.1'
p429
(lp430
g428
asS'NKX3-1_homeodomain_full_monomeric_9_1'
p431
(lp432
S'ENSG00000167034'
p433
asS'RUNX3_RUNX_full_monomeric_10_1'
p434
(lp435
g356
asS'V$STAF_02_M00264'
p436
(lp437
S'ENSG00000166478'
p438
asS'V$ZFP691_03_M02833'
p439
(lp440
g214
asS'V$ISL2_03_M02080'
p441
(lp442
g153
asS'HEY1_bHLH_DBD_dimeric_10_1'
p443
(lp444
S'ENSG00000164683'
p445
asS'V$ZID_01_M00085'
p446
(lp447
S'ENSG00000186130'
p448
asS'V$OSF2_Q6_M00731'
p449
(lp450
S'ENSG00000124813'
p451
asS'Isl2.1'
p452
(lp453
g153
asS'NFIB_NFI_full_dimeric_15_1'
p454
(lp455
S'ENSG00000147862'
p456
asS'V$HDX_01_M01333'
p457
(lp458
S'ENSG00000165259'
p459
asS'V$LHX4_01_M01421'
p460
(lp461
g284
asS'Ipf1.1'
p462
(lp463
g65
asS'V$TEF_Q6_M00672'
p464
(lp465
S'ENSG00000167074'
p466
asS'EMX2_homeodomain_DBD_dimeric_14_1'
p467
(lp468
g305
asS'Pknox2_MEIS_DBD_dimeric_12_1'
p469
(lp470
S'ENSG00000165495'
p471
asS'V$OLF1_01_M00261'
p472
(lp473
S'ENSG00000164330'
p474
asS'FOXB1_forkhead_DBD_monomeric_11_1'
p475
(lp476
S'ENSG00000171956'
p477
asS'V$PAX2_01_M00098'
p478
(lp479
g416
asS'Elf2.1'
p480
(lp481
g164
asS'FOXB1_forkhead_DBD_dimeric_18_1'
p482
(lp483
g477
asS'Hlxb9.1'
p484
(lp485
S'ENSG00000130675'
p486
asS'V$CEBPA_01_M00116'
p487
(lp488
g254
asS'V$GATA3_05_M02859'
p489
(lp490
S'ENSG00000107485'
p491
asS'V$SPDEF_03_M02811'
p492
(lp493
S'ENSG00000124664'
p494
asS'V$PR_01_M00954'
p495
(lp496
S'ENSG00000082175'
p497
asS'V$FOXO4_02_M00476'
p498
(lp499
S'ENSG00000184481'
p500
asS'ERG_ETS_full_dimeric_14_1'
p501
(lp502
S'ENSG00000157554'
p503
asS'V$TRF1_01_M01237'
p504
(lp505
S'ENSG00000147601'
p506
asS'Pknox1.1'
p507
(lp508
S'ENSG00000160199'
p509
asS'V$HOXA4_01_M01370'
p510
(lp511
S'ENSG00000197576'
p512
asS'THRB_nuclearreceptor_DBD_dimeric_19_1'
p513
(lp514
g407
asS'V$PAX4_03_M00378'
p515
(lp516
g323
asS'NR2F1_nuclearreceptor_DBD_dimeric_15_1'
p517
(lp518
g39
asS'V$MTF1_05_M02778'
p519
(lp520
g378
asS'V$NKX32_02_M01482'
p521
(lp522
S'ENSG00000109705'
p523
asS'V$LEF1_Q2_M00805'
p524
(lp525
g293
asS'Dbx1.1'
p526
(lp527
S'ENSG00000109851'
p528
asS'V$ATF1_Q6_M00691'
p529
(lp530
S'ENSG00000123268'
p531
asS'LBX2_homeodomain_DBD_monomeric_10_1'
p532
(lp533
S'ENSG00000179528'
p534
asS'V$AR_03_M00956'
p535
(lp536
S'ENSG00000169083'
p537
asS'VDR_nuclearreceptor_full_dimeric_16_1'
p538
(lp539
S'ENSG00000111424'
p540
asS'V$NKX25_01_M00240'
p541
(lp542
S'ENSG00000183072'
p543
asS'V$HOXA7_03_M01394'
p544
(lp545
S'ENSG00000122592'
p546
asS'Rxra.1'
p547
(lp548
S'ENSG00000186350'
p549
asS'V$SOX12_04_M02900'
p550
(lp551
S'ENSG00000177732'
p552
asS'Rxra.2'
p553
(lp554
g549
asS'V$STAT1_05_M01260'
p555
(lp556
S'ENSG00000115415'
p557
asS'V$DLX3_01_M01400'
p558
(lp559
S'ENSG00000064195'
p560
asS'FOXC1_forkhead_DBD_dimeric_13_1'
p561
(lp562
S'ENSG00000054598'
p563
asS'V$CDP_03_M01342'
p564
(lp565
g104
asS'LMX1B_homeodomain_full_monomeric_8_1'
p566
(lp567
S'ENSG00000136944'
p568
asS'V$CACCCBINDINGFACTOR_Q6_M00721'
p569
(lp570
S'ENSG00000163848'
p571
asS'Egr1.2'
p572
(lp573
S'ENSG00000120738'
p574
asS'Egr1.1'
p575
(lp576
g574
asS'Hic1_C2H2_DBD_monomer_9_1'
p577
(lp578
S'ENSG00000177374'
p579
asS'V$NERF_Q2_M00531'
p580
(lp581
g164
asS'V$GLIS2_04_M02863'
p582
(lp583
S'ENSG00000274636'
p584
aS'ENSG00000126603'
p585
asS'Bsx.1'
p586
(lp587
S'ENSG00000188909'
p588
asS'SOX21_HMG_DBD_dimeric_15_1'
p589
(lp590
S'ENSG00000125285'
p591
asS'Hoxc12.1'
p592
(lp593
S'ENSG00000123407'
p594
asS'V$OCT1_07_M00248'
p595
(lp596
S'ENSG00000143190'
p597
asS'Barhl2.1'
p598
(lp599
S'ENSG00000143032'
p600
asS'V$T3RBETA_Q6_01_M02119'
p601
(lp602
g407
asS'Hoxb3.1'
p603
(lp604
S'ENSG00000120093'
p605
asS'V$AP2ALPHA_Q6_M01857'
p606
(lp607
g228
asS'TBX5_TBX_DBD_dimeric_20_1'
p608
(lp609
S'ENSG00000089225'
p610
asS'Pax6.1'
p611
(lp612
g209
asS'Six4.1'
p613
(lp614
S'ENSG00000100625'
p615
asS'V$PAX5_02_M00144'
p616
(lp617
S'ENSG00000196092'
p618
asS'V$LYF1_01_M00141'
p619
(lp620
S'ENSG00000185811'
p621
asS'V$GLI1_01_M01702'
p622
(lp623
S'ENSG00000111087'
p624
asS'V$TAL1_01_M01591'
p625
(lp626
S'ENSG00000162367'
p627
asS'Pitx3.1'
p628
(lp629
S'ENSG00000107859'
p630
asS'SPI1_ETS_full_monomeric_14_1'
p631
(lp632
S'ENSG00000066336'
p633
asS'TBP_MA0108.1'
p634
(lp635
S'ENSG00000112592'
p636
asS'SRY_MA0084.1'
p637
(lp638
S'ENSG00000184895'
p639
asS'V$ELF1_Q5_M01266'
p640
(lp641
S'ENSG00000120690'
p642
asS'V$NCX_01_M00484'
p643
(lp644
S'ENSG00000115297'
p645
asS'V$PAX8_B_M00328'
p646
(lp647
S'ENSG00000125618'
p648
asS'V$HEN1_02_M00058'
p649
(lp650
S'ENSG00000162639'
p651
asS'V$GATA6_Q5_M03216'
p652
(lp653
S'ENSG00000141448'
p654
asS'V$STAT4_Q5_M02117'
p655
(lp656
S'ENSG00000138378'
p657
asS'V$STRA13_01_M00985'
p658
(lp659
S'ENSG00000169689'
p660
asS'V$HMGIY_Q6_M00750'
p661
(lp662
S'ENSG00000137309'
p663
asS'NFIC_MA0161.1'
p664
(lp665
g27
asS'PRDM4_C2H2_full_monomeric_13_1'
p666
(lp667
S'ENSG00000110851'
p668
asS'Hoxc10_homeodomain_DBD_monomeric_10_1'
p669
(lp670
S'ENSG00000180818'
p671
asS'Zfp423_MA0116.1'
p672
(lp673
S'ENSG00000102935'
p674
asS'V$PR_02_M00957'
p675
(lp676
g497
asS'V$BEN_02_M01241'
p677
(lp678
S'ENSG00000006704'
p679
asS'SPDEF_ETS_full_putative-multimer_16_1'
p680
(lp681
g494
asS'V$AIRE_02_M01000'
p682
(lp683
S'ENSG00000160224'
p684
asS'Meis3_MEIS_DBD_monomeric_7_1'
p685
(lp686
S'ENSG00000105419'
p687
asS'V$RBPJK_Q4_M01111'
p688
(lp689
S'ENSG00000168214'
p690
asS'V$MAX_04_M02881'
p691
(lp692
g144
asS'V$POU5F1_02_M02245'
p693
(lp694
S'ENSG00000237582'
p695
aS'ENSG00000230336'
p696
aS'ENSG00000204531'
p697
aS'ENSG00000229094'
p698
aS'ENSG00000233911'
p699
aS'ENSG00000235068'
p700
aS'ENSG00000206454'
p701
asS'SNAI2_C2H2_DBD_monomeric_9_1'
p702
(lp703
S'ENSG00000019549'
p704
asS'Dlx2_homeodomain_DBD_monomeric_8_1'
p705
(lp706
S'ENSG00000115844'
p707
asS'V$MAZR_01_M00491'
p708
(lp709
S'ENSG00000100105'
p710
asS'V$DRI1_01_M01654'
p711
(lp712
S'ENSG00000116017'
p713
asS'V$OCT1_04_M00138'
p714
(lp715
g597
asS'V$AREB6_01_M00412'
p716
(lp717
S'ENSG00000148516'
p718
asS'V$HNF3_Q6_01_M01012'
p719
(lp720
S'ENSG00000129514'
p721
asS'V$TST1_02_M01316'
p722
(lp723
S'ENSG00000185668'
p724
asS'V$NKX2B_Q3_M02109'
p725
(lp726
S'ENSG00000125820'
p727
asS'V$FOXJ2_01_M00422'
p728
(lp729
g404
asS'V$HNF4ALPHA_Q6_M00638'
p730
(lp731
g397
asS'Spdef.1'
p732
(lp733
g494
asS'V$HNF4_Q6_02_M01032'
p734
(lp735
g397
asS'Hic1.2'
p736
(lp737
g579
asS'V$USF_Q6_01_M00796'
p738
(lp739
g260
asS'ETV4_ETS_DBD_monomeric_10_1'
p740
(lp741
S'ENSG00000175832'
p742
asS'NF-kappaB_MA0061.1'
p743
(lp744
g421
asS'V$SOX2_01_M02246'
p745
(lp746
g410
asS'V$LFA1_Q6_M00646'
p747
(lp748
S'ENSG00000160255'
p749
asS'Foxj3.2'
p750
(lp751
S'ENSG00000198815'
p752
asS'V$P53_03_M01651'
p753
(lp754
S'ENSG00000141510'
p755
asS'V$E2F2_04_M02846'
p756
(lp757
S'ENSG00000007968'
p758
aS'ENSG00000282899'
p759
asS'V$CMYC_02_M01154'
p760
(lp761
S'ENSG00000136997'
p762
asS'V$MYOGNF1_01_M00056'
p763
(lp764
g302
asS'Bcl6b.2'
p765
(lp766
S'ENSG00000161940'
p767
asS'Bcl6b.1'
p768
(lp769
g767
asS'V$HOMEZ_01_M01429'
p770
(lp771
g133
asS'ATF7_bZIP_DBD_dimeric_14_1'
p772
(lp773
S'ENSG00000170653'
p774
asS'V$EVI1_05_M00082'
p775
(lp776
S'ENSG00000085276'
p777
asS'V$SPI1_02_M02043'
p778
(lp779
g633
asS'V$IPF1_05_M01255'
p780
(lp781
g65
asS'V$CEBPB_01_M00109'
p782
(lp783
g62
asS'Pou2f3.1'
p784
(lp785
S'ENSG00000137709'
p786
asS'V$FOXO3_02_M02270'
p787
(lp788
g299
asS'Vsx1.1'
p789
(lp790
g170
asS'V$ESE1_Q3_M01214'
p791
(lp792
S'ENSG00000163435'
p793
asS'V$HMGA2_01_M01300'
p794
(lp795
S'ENSG00000149948'
p796
asS'V$EGR_Q6_M00807'
p797
(lp798
g574
asS'SRF_MADS_full_dimeric_16_1'
p799
(lp800
g350
asS'V$NR4A2_01_M02273'
p801
(lp802
S'ENSG00000153234'
p803
asS'V$GCM_Q2_M00634'
p804
(lp805
g274
asS'ERG_ETS_full_monomeric_10_1'
p806
(lp807
g503
asS'V$GLI3_Q5_01_M01657'
p808
(lp809
S'ENSG00000106571'
p810
asS'PRRX1_homeodomain_full_monomeric_8_1'
p811
(lp812
S'ENSG00000116132'
p813
asS'V$POU3F2_01_M00463'
p814
(lp815
g113
asS'MYBL1_MYB_DBD_dimeric_12_1'
p816
(lp817
S'ENSG00000185697'
p818
asS'V$ER_Q6_02_M00959'
p819
(lp820
S'ENSG00000091831'
p821
asS'LMX1A_homeodomain_DBD_monomeric_8_1'
p822
(lp823
g68
asS'Max.1'
p824
(lp825
g144
asS'Max.2'
p826
(lp827
g144
asS'V$ZIC1_05_M02939'
p828
(lp829
S'ENSG00000152977'
p830
asS'V$HIC1_05_M02763'
p831
(lp832
g579
asS'TBX1_TBX_DBD_monomeric_8_1'
p833
(lp834
g225
asS'V$PEA3_Q6_M00655'
p835
(lp836
g742
asS'V$PET1_01_M02037'
p837
(lp838
S'ENSG00000163497'
p839
asS'TEF_bZIP_DBD_dimeric_12_1'
p840
(lp841
g466
asS'NR2F1_nuclearreceptor_full_monomeric_8_1'
p842
(lp843
g39
asS'V$RFX1_01_M00280'
p844
(lp845
S'ENSG00000132005'
p846
asS'Sfpi1.2'
p847
(lp848
g633
asS'Sfpi1.3'
p849
(lp850
g633
asS'V$NET_02_M02060'
p851
(lp852
S'ENSG00000111145'
p853
asS'Tcfap2b.2'
p854
(lp855
S'ENSG00000008196'
p856
asS'Tcfap2b.1'
p857
(lp858
g856
asS'V$EGR1_01_M00243'
p859
(lp860
g574
asS'Hic1_C2H2_DBD_dimeric_18_1'
p861
(lp862
g579
asS'DRGX_homeodomain_DBD_dimeric_13_1'
p863
(lp864
S'ENSG00000165606'
p865
asS'V$SREBP_Q3_M00776'
p866
(lp867
S'ENSG00000072310'
p868
asS'Msx1.1'
p869
(lp870
S'ENSG00000163132'
p871
asS'BHLHA15_bHLH_DBD_dimeric_10_1'
p872
(lp873
S'ENSG00000180535'
p874
asS'V$REST_01_M01256'
p875
(lp876
S'ENSG00000084093'
p877
asS'V$LHX9_01_M01367'
p878
(lp879
g74
asS'V$PLZF_02_M01075'
p880
(lp881
S'ENSG00000109906'
p882
asS'RHOXF1_homeodomain_full_monomeric_8_1'
p883
(lp884
S'ENSG00000101883'
p885
asS'V$SOX8_03_M02808'
p886
(lp887
S'ENSG00000005513'
p888
asS'V$ISL2_04_M02081'
p889
(lp890
g153
asS'V$MYOD_Q6_M00184'
p891
(lp892
S'ENSG00000129152'
p893
asS'FLI1_ETS_full_monomeric_10_1'
p894
(lp895
S'ENSG00000151702'
p896
asS'ZNF232_C2H2_full_monomeric_19_1'
p897
(lp898
S'ENSG00000167840'
p899
asS'V$MTF1_01_M01242'
p900
(lp901
g378
asS'V$OCT1_02_M00136'
p902
(lp903
g597
asS'V$AP2BETA_Q3_M01858'
p904
(lp905
g856
asS'HMX3_homeodomain_DBD_monomeric_11_1'
p906
(lp907
S'ENSG00000188620'
p908
asS'Tcfcp2l1_MA0145.1'
p909
(lp910
S'ENSG00000115112'
p911
asS'V$USF_01_M00121'
p912
(lp913
g260
asS'V$E2A_Q6_M00973'
p914
(lp915
S'ENSG00000071564'
p916
asS'Hoxd3.1'
p917
(lp918
S'ENSG00000128652'
p919
asS'V$USF2_Q6_M00726'
p920
(lp921
S'ENSG00000105698'
p922
asS'Gmeb1.2'
p923
(lp924
S'ENSG00000162419'
p925
asS'MEF2B_MADS_full_dimeric_12_1'
p926
(lp927
S'ENSG00000064489'
p928
asS'V$OCTAMER_01_M01324'
p929
(lp930
g331
asS'Sox17_HMG_DBD_dimeric_15_1'
p931
(lp932
g159
asS'Sox17_HMG_DBD_dimeric_15_2'
p933
(lp934
g159
asS'V$IPF1_06_M01438'
p935
(lp936
g65
asS'Hoxd13.1'
p937
(lp938
S'ENSG00000128714'
p939
asS'TBX4_TBX_DBD_monomeric_8_1'
p940
(lp941
S'ENSG00000121075'
p942
asS'V$ELF4_02_M02056'
p943
(lp944
S'ENSG00000102034'
p945
asS'V$PAX9_B_M00329'
p946
(lp947
S'ENSG00000198807'
p948
asS'V$EVI1_04_M00081'
p949
(lp950
g777
asS'SOX10_HMG_full_dimeric_16_1'
p951
(lp952
g191
asS'PRRX2_homeodomain_full_monomeric_8_1'
p953
(lp954
g371
asS'HES7_bHLH_DBD_dimeric_12_1'
p955
(lp956
S'ENSG00000179111'
p957
asS'V$FREAC3_01_M00291'
p958
(lp959
g563
asS'V$HOXD1_01_M01448'
p960
(lp961
S'ENSG00000128645'
p962
asS'Ehf.1'
p963
(lp964
S'ENSG00000135373'
p965
asS'Ehf.2'
p966
(lp967
g965
asS'Ehf.3'
p968
(lp969
g965
asS'V$HNF4A_Q6_01_M02016'
p970
(lp971
g397
asS'V$AHR_Q5_M00778'
p972
(lp973
g53
asS'V$TGIF_02_M01346'
p974
(lp975
S'ENSG00000177426'
p976
asS'V$ISL2_05_M02082'
p977
(lp978
g153
asS'Tlx2.1'
p979
(lp980
g645
asS'V$ZBTB7B_04_M02930'
p981
(lp982
S'ENSG00000160685'
p983
asS'V$ICSBP_Q6_M00699'
p984
(lp985
S'ENSG00000140968'
p986
asS'RARG_nuclearreceptor_full_dimeric_16_1'
p987
(lp988
S'ENSG00000172819'
p989
asS'V$AHR_01_M00139'
p990
(lp991
g53
asS'V$AP1_C_M00199'
p992
(lp993
S'ENSG00000177606'
p994
asS'V$SP4_Q5_M01273'
p995
(lp996
S'ENSG00000105866'
p997
asS'V$MZF1_02_M00084'
p998
(lp999
S'ENSG00000099326'
p1000
asS'V$HIF2A_01_M01249'
p1001
(lp1002
S'ENSG00000116016'
p1003
asS'Hoxd1.1'
p1004
(lp1005
g962
asS'V$FEV_01_M02269'
p1006
(lp1007
g839
asS'V$HNF1A_01_M02162'
p1008
(lp1009
S'ENSG00000135100'
p1010
asS'V$MYOD_Q6_02_M02100'
p1011
(lp1012
g893
asS'INSM1_MA0155.1'
p1013
(lp1014
S'ENSG00000173404'
p1015
asS'V$SMAD_Q6_M00792'
p1016
(lp1017
S'ENSG00000170365'
p1018
asS'V$ETF_Q6_M00695'
p1019
(lp1020
S'ENSG00000074219'
p1021
asS'V$P53_01_M00034'
p1022
(lp1023
g755
asS'V$HOXA10_01_M01464'
p1024
(lp1025
S'ENSG00000253293'
p1026
asS'ZBTB7C_C2H2_full_monomeric_12_1'
p1027
(lp1028
S'ENSG00000184828'
p1029
asS'Nkx2-5.1'
p1030
(lp1031
g543
asS'V$NEUROD_02_M01288'
p1032
(lp1033
S'ENSG00000162992'
p1034
asS'TFAP4_bHLH_full_dimeric_10_1'
p1035
(lp1036
S'ENSG00000090447'
p1037
asS'V$WHN_B_M00332'
p1038
(lp1039
S'ENSG00000109101'
p1040
asS'V$SREBP2_Q6_M01177'
p1041
(lp1042
S'ENSG00000198911'
p1043
asS'V$BRF1_01_M01747'
p1044
(lp1045
S'ENSG00000185024'
p1046
asS'V$DMRT5_01_M01150'
p1047
(lp1048
S'ENSG00000142700'
p1049
asS'V$MIZF_01_M01182'
p1050
(lp1051
S'ENSG00000172273'
p1052
asS'SP1_MA0079.1'
p1053
(lp1054
S'ENSG00000185591'
p1055
asS'V$DMRT1_01_M01146'
p1056
(lp1057
S'ENSG00000137090'
p1058
asS'V$DBX2_01_M01360'
p1059
(lp1060
S'ENSG00000185610'
p1061
asS'SP1_MA0079.2'
p1062
(lp1063
g1055
asS'V$HIF1A_Q6_M02012'
p1064
(lp1065
S'ENSG00000100644'
p1066
asS'Vax2.1'
p1067
(lp1068
S'ENSG00000116035'
p1069
asS'V$PPARG_Q6_M01270'
p1070
(lp1071
S'ENSG00000132170'
p1072
asS'NR3C1_nuclearreceptor_DBD_dimeric_17_1'
p1073
(lp1074
S'ENSG00000113580'
p1075
asS'V$OCT4_01_M01125'
p1076
(lp1077
g695
ag696
ag697
ag698
ag699
ag700
ag701
asS'V$ERR1_Q2_M00511'
p1078
(lp1079
S'ENSG00000173153'
p1080
asS'SP1_C2H2_DBD_monomeric_11_1'
p1081
(lp1082
g1055
asS'V$USF_C_M00217'
p1083
(lp1084
g260
asS'Rara.1'
p1085
(lp1086
S'ENSG00000131759'
p1087
asS'Rara.2'
p1088
(lp1089
g1087
asS'RFX2_RFX_DBD_dimeric_15_1'
p1090
(lp1091
S'ENSG00000087903'
p1092
asS'V$PEBP_Q6_M00984'
p1093
(lp1094
S'ENSG00000089220'
p1095
asS'V$ISGF3G_03_M02771'
p1096
(lp1097
g428
asS'V$SRF_03_M01304'
p1098
(lp1099
g350
asS'Zfp187.2'
p1100
(lp1101
S'ENSG00000197062'
p1102
asS'HEY2_bHLH_full_dimeric_10_1'
p1103
(lp1104
S'ENSG00000135547'
p1105
asS'V$ATF1_04_M02842'
p1106
(lp1107
g531
asS'V$FOXD3_01_M00130'
p1108
(lp1109
S'ENSG00000187140'
p1110
asS'HOXC13_homeodomain_DBD_monomeric_10_1'
p1111
(lp1112
S'ENSG00000123364'
p1113
asS'V$ESE1_01_M01977'
p1114
(lp1115
g793
asS'Myb_MA0100.1'
p1116
(lp1117
S'ENSG00000118513'
p1118
asS'SPIB_MA0081.1'
p1119
(lp1120
g127
asS'V$ATF4_Q2_M00514'
p1121
(lp1122
S'ENSG00000128272'
p1123
asS'V$HOXB3_01_M01330'
p1124
(lp1125
g605
asS'V$NFYA_Q5_M02106'
p1126
(lp1127
g249
asS'TCF4_bHLH_full_dimeric_10_1'
p1128
(lp1129
S'ENSG00000196628'
p1130
asS'Elf5.1'
p1131
(lp1132
S'ENSG00000135374'
p1133
asS'V$SRF_Q5_01_M00922'
p1134
(lp1135
g350
asS'POU3F2_POU_DBD_monomeric_12_1'
p1136
(lp1137
g113
asS'V$TCF7_03_M02817'
p1138
(lp1139
S'ENSG00000081059'
p1140
asS'V$EOMES_03_M02747'
p1141
(lp1142
S'ENSG00000163508'
p1143
asS'Hbp1.2'
p1144
(lp1145
S'ENSG00000105856'
p1146
aS'ENSG00000283847'
p1147
asS'MSC_bHLH_full_dimeric_10_1'
p1148
(lp1149
S'ENSG00000178860'
p1150
asS'V$S8_02_M01376'
p1151
(lp1152
g371
asS'V$SMAD1_01_M01590'
p1153
(lp1154
g1018
asS'RFX4_RFX_DBD_dimeric_15_1'
p1155
(lp1156
S'ENSG00000111783'
p1157
asS'V$SPI1_03_M02078'
p1158
(lp1159
g633
asS'Sox30.2'
p1160
(lp1161
S'ENSG00000039600'
p1162
asS'ZNF354C_MA0130.1'
p1163
(lp1164
S'ENSG00000177932'
p1165
asS'Sox30.1'
p1166
(lp1167
g1162
asS'V$SIX3_01_M01358'
p1168
(lp1169
S'ENSG00000138083'
p1170
asS'HSF4_HSF_DBD_trimeric_13_1'
p1171
(lp1172
S'ENSG00000102878'
p1173
asS'V$SPIC_02_M02077'
p1174
(lp1175
S'ENSG00000166211'
p1176
asS'NFIX_NFI_full_monomeric_9_2'
p1177
(lp1178
S'ENSG00000008441'
p1179
asS'V$FOXO1_04_M01969'
p1180
(lp1181
g110
asS'Hmx2.1'
p1182
(lp1183
S'ENSG00000188816'
p1184
asS'Pknox2.1'
p1185
(lp1186
g471
asS'V$EGR1_04_M02848'
p1187
(lp1188
g574
asS'V$MEIS1BHOXA9_02_M00421'
p1189
(lp1190
S'ENSG00000078399'
p1191
asS'Uncx4.1'
p1192
(lp1193
g185
asS'V$CETS2_01_M01989'
p1194
(lp1195
S'ENSG00000157557'
p1196
asS'V$IPF1_Q5_M02096'
p1197
(lp1198
g65
asS'V$ESX1_01_M01474'
p1199
(lp1200
S'ENSG00000123576'
p1201
asS'Hoxc11.1'
p1202
(lp1203
g201
asS'V$HMX1_01_M00433'
p1204
(lp1205
S'ENSG00000215612'
p1206
asS'TBX21_TBX_full_monomeric_10_1'
p1207
(lp1208
S'ENSG00000073861'
p1209
asS'NKX6-1_homeodomain_full_monomeric_8_1'
p1210
(lp1211
S'ENSG00000163623'
p1212
asS'OLIG2_bHLH_full_dimeric_10_1'
p1213
(lp1214
S'ENSG00000205927'
p1215
asS'PLAG1_MA0163.1'
p1216
(lp1217
S'ENSG00000181690'
p1218
asS'Sox18.1'
p1219
(lp1220
S'ENSG00000203883'
p1221
asS'Sox18.2'
p1222
(lp1223
g1221
asS'V$ESE1_02_M02055'
p1224
(lp1225
g793
asS'V$SOX4_01_M01308'
p1226
(lp1227
g30
asS'V$SIX6_01_M01345'
p1228
(lp1229
g287
asS'V$FREAC7_01_M00293'
p1230
(lp1231
S'ENSG00000176678'
p1232
asS'V$DBX1_01_M01483'
p1233
(lp1234
g528
asS'V$CETS1P54_01_M00032'
p1235
(lp1236
g188
asS'OLIG1_bHLH_DBD_dimeric_10_1'
p1237
(lp1238
S'ENSG00000184221'
p1239
asS'V$CDP_02_M00102'
p1240
(lp1241
g104
asS'V$E2A_Q6_01_M02088'
p1242
(lp1243
g916
asS'HNF1A_MA0046.1'
p1244
(lp1245
g1010
asS'Pou5f1_MA0142.1'
p1246
(lp1247
g695
ag696
ag697
ag698
ag699
ag700
ag701
asS'MIXL1_homeodomain_full_monomeric_10_1'
p1248
(lp1249
S'ENSG00000185155'
p1250
asS'Elk3.1'
p1251
(lp1252
g853
asS'V$EN1_02_M01365'
p1253
(lp1254
S'ENSG00000163064'
p1255
asS'Esrra_nuclearreceptor_DBD_monomeric_11_1'
p1256
(lp1257
g1080
asS'V$POU6F1_03_M01479'
p1258
(lp1259
S'ENSG00000184271'
p1260
asS'V$ZIC3_05_M02941'
p1261
(lp1262
S'ENSG00000156925'
p1263
asS'ELF4_ETS_full_monomeric_12_1'
p1264
(lp1265
g945
asS'V$AR_Q6_M00962'
p1266
(lp1267
g537
asS'V$NFE4_Q5_M02105'
p1268
(lp1269
S'ENSG00000230257'
p1270
asS'GATA3_MA0037.1'
p1271
(lp1272
g491
asS'CLOCK_bHLH_DBD_dimeric_10_1'
p1273
(lp1274
S'ENSG00000134852'
p1275
asS'V$HSF1_Q6_M01023'
p1276
(lp1277
S'ENSG00000185122'
p1278
asS'V$RARA_03_M02787'
p1279
(lp1280
g1087
asS'CEBPB_bZIP_full_dimeric_10_1'
p1281
(lp1282
g62
asS'V$AP2REP_01_M00468'
p1283
(lp1284
S'ENSG00000118922'
p1285
asS'V$GMEB1_03_M02761'
p1286
(lp1287
g925
asS'NFIL3_bZIP_DBD_dimeric_12_1'
p1288
(lp1289
S'ENSG00000165030'
p1290
asS'XBP1_bZIP_DBD_dimeric_14_1'
p1291
(lp1292
S'ENSG00000100219'
p1293
asS'V$NKX22_01_M00485'
p1294
(lp1295
g727
asS'NKX3-1_MA0124.1'
p1296
(lp1297
g433
asS'V$ETS1_B_M00339'
p1298
(lp1299
g188
asS'V$PAX1_B_M00326'
p1300
(lp1301
S'ENSG00000125813'
p1302
asS'V$PAX4_05_M01385'
p1303
(lp1304
g323
asS'NFE2L2_MA0150.1'
p1305
(lp1306
S'ENSG00000116044'
p1307
asS'V$HNF4A_02_M02868'
p1308
(lp1309
g397
asS'ETV2_ETS_DBD_monomeric_11_1'
p1310
(lp1311
S'ENSG00000105672'
p1312
asS'V$HTF_01_M00538'
p1313
(lp1314
g1293
asS'V$HNF6_Q6_M00639'
p1315
(lp1316
S'ENSG00000169856'
p1317
asS'V$GATA3_03_M00351'
p1318
(lp1319
g491
asS'Vsx1_homeodomain_DBD_monomeric_8_1'
p1320
(lp1321
g170
asS'V$IRX3_02_M01485'
p1322
(lp1323
S'ENSG00000177508'
p1324
asS'V$E2F_Q6_M00427'
p1325
(lp1326
g45
asS'POU3F1_POU_DBD_monomeric_12_2'
p1327
(lp1328
g724
asS'Esx1.1'
p1329
(lp1330
g1201
asS'POU3F1_POU_DBD_monomeric_12_1'
p1331
(lp1332
g724
asS'FOXO4_forkhead_DBD_putatively-multimeric_12_1'
p1333
(lp1334
g500
asS'V$NF1A_Q6_M02103'
p1335
(lp1336
g263
asS'V$HES1_Q2_M01009'
p1337
(lp1338
S'ENSG00000114315'
p1339
asS'XBP1_bZIP_DBD_dimeric_12_1'
p1340
(lp1341
g1293
asS'V$HOX13_01_M00023'
p1342
(lp1343
S'ENSG00000106031'
p1344
asS'V$GFI1B_01_M01058'
p1345
(lp1346
S'ENSG00000165702'
p1347
asS'V$GLI1_Q2_M01042'
p1348
(lp1349
g624
asS'V$LHX61_01_M01314'
p1350
(lp1351
S'ENSG00000106852'
p1352
asS'V$CLOX_01_M00103'
p1353
(lp1354
g104
asS'V$OCT_Q6_M00795'
p1355
(lp1356
g597
asS'V$GATA1_04_M00128'
p1357
(lp1358
g18
asS'V$ETV7_01_M02071'
p1359
(lp1360
S'ENSG00000010030'
p1361
asS'V$ATF_01_M00017'
p1362
(lp1363
g531
asS'SOX9_MA0077.1'
p1364
(lp1365
S'ENSG00000125398'
p1366
asS'Gata6.1'
p1367
(lp1368
g654
asS'ELK1_ETS_full_monomeric_10_1'
p1369
(lp1370
g182
asS'V$MYCN_01_M02259'
p1371
(lp1372
S'ENSG00000134323'
p1373
asS'V$MYCMAX_02_M00123'
p1374
(lp1375
g144
asS'VSX2_homeodomain_DBD_monomeric_8_1'
p1376
(lp1377
S'ENSG00000119614'
p1378
asS'V$GLIS2_03_M02759'
p1379
(lp1380
g584
ag585
asS'LHX9_homeodomain_DBD_monomeric_8_1'
p1381
(lp1382
g74
asS'SPI1_MA0080.2'
p1383
(lp1384
g633
asS'SPI1_MA0080.1'
p1385
(lp1386
g633
asS'FOXO1_forkhead_DBD_dimeric_14_1'
p1387
(lp1388
g110
asS'V$TGIF_01_M00418'
p1389
(lp1390
g976
asS'Evx2.1'
p1391
(lp1392
S'ENSG00000174279'
p1393
asS'Sox12.2'
p1394
(lp1395
g552
asS'V$EHF_02_M01974'
p1396
(lp1397
g965
asS'Sox12.1'
p1398
(lp1399
g552
asS'V$NKX25_02_M00241'
p1400
(lp1401
g543
asS'V$CNOT3_01_M01253'
p1402
(lp1403
S'ENSG00000275979'
p1404
aS'ENSG00000277114'
p1405
aS'ENSG00000273943'
p1406
aS'ENSG00000276082'
p1407
aS'ENSG00000088038'
p1408
aS'ENSG00000277600'
p1409
aS'ENSG00000274176'
p1410
aS'ENSG00000274616'
p1411
aS'ENSG00000277615'
p1412
aS'ENSG00000274941'
p1413
asS'V$OCT1_Q6_M00195'
p1414
(lp1415
g597
asS'ESR1_nuclearreceptor_DBD_dimeric_17_1'
p1416
(lp1417
g821
asS'V$MAFB_01_M01227'
p1418
(lp1419
g368
asS'RARA_nuclearreceptor_full_dimeric_15_1'
p1420
(lp1421
g1087
asS'RARA_nuclearreceptor_full_dimeric_17_1'
p1422
(lp1423
g1087
asS'V$NRSE_B_M00325'
p1424
(lp1425
g877
asS'V$HNF3B_Q6_M02014'
p1426
(lp1427
g217
asS'V$SATB1_Q3_M01723'
p1428
(lp1429
g222
asS'ZNF740_C2H2_full_monomeric_10_1'
p1430
(lp1431
S'ENSG00000139651'
p1432
asS'Sox1_HMG_DBD_dimeric_15_1'
p1433
(lp1434
S'ENSG00000182968'
p1435
asS'Sox1_HMG_DBD_dimeric_15_2'
p1436
(lp1437
g1435
asS'V$LEF1_04_M02774'
p1438
(lp1439
g293
asS'V$CMYC_01_M01145'
p1440
(lp1441
g762
asS'Irx6.1'
p1442
(lp1443
S'ENSG00000159387'
p1444
asS'Gmeb1.1'
p1445
(lp1446
g925
asS'KLF16_C2H2_DBD_monomeric_11_1'
p1447
(lp1448
S'ENSG00000129911'
p1449
asS'V$PITX3_01_M01343'
p1450
(lp1451
g630
asS'HOXD13_homeodomain_DBD_monomeric_10_1'
p1452
(lp1453
g939
asS'Pou2f2.1'
p1454
(lp1455
S'ENSG00000028277'
p1456
asS'HINFP1_C2H2_full_monomeric_12_1'
p1457
(lp1458
g1052
asS'V$ROAZ_01_M00467'
p1459
(lp1460
g674
asS'Rarb_nuclearreceptor_DBD_dimeric_18_1'
p1461
(lp1462
S'ENSG00000077092'
p1463
asS'SOX21_HMG_DBD_dimeric_16_1'
p1464
(lp1465
g591
asS'V$TGIF2_01_M01407'
p1466
(lp1467
S'ENSG00000118707'
p1468
asS'FOXB1_forkhead_full_monomeric_9_1'
p1469
(lp1470
g477
asS'SRY_HMG_DBD_dimeric_13_2'
p1471
(lp1472
g639
asS'Otx1.1'
p1473
(lp1474
g381
asS'SRY_HMG_DBD_dimeric_13_1'
p1475
(lp1476
g639
asS'V$VAX2_01_M01327'
p1477
(lp1478
g1069
asS'E2F4_E2F_DBD_dimeric_12_2'
p1479
(lp1480
g24
asS'V$RFX3_05_M02892'
p1481
(lp1482
S'ENSG00000080298'
p1483
asS'V$TBP_01_M00471'
p1484
(lp1485
g636
asS'V$LBX2_01_M01401'
p1486
(lp1487
g534
asS'V$HMGIY_Q3_M01010'
p1488
(lp1489
g663
asS'Sox3_HMG_DBD_dimeric_17_1'
p1490
(lp1491
S'ENSG00000134595'
p1492
asS'ZBTB49_C2H2_DBD_monomeric_17_1'
p1493
(lp1494
S'ENSG00000168826'
p1495
asS'V$GATA2_03_M00349'
p1496
(lp1497
g176
asS'V$ESRRA_03_M02748'
p1498
(lp1499
g1080
asS'FOXF2_MA0030.1'
p1500
(lp1501
S'ENSG00000137273'
p1502
asS'Rxra_nuclearreceptor_DBD_dimeric_12_1'
p1503
(lp1504
g549
asS'Elk4.1'
p1505
(lp1506
S'ENSG00000158711'
p1507
asS'POU4F1_POU_DBD_monomeric_14_1'
p1508
(lp1509
S'ENSG00000152192'
p1510
asS'Osr1.1'
p1511
(lp1512
S'ENSG00000143867'
p1513
asS'V$HNF3G_Q4_M02015'
p1514
(lp1515
S'ENSG00000170608'
p1516
asS'Irx2.1'
p1517
(lp1518
S'ENSG00000170561'
p1519
asS'Osr1.2'
p1520
(lp1521
g1513
asS'V$FOXA2_04_M02749'
p1522
(lp1523
g217
asS'V$CART1_03_M01453'
p1524
(lp1525
S'ENSG00000076604'
p1526
asS'V$HOXB4_01_M01424'
p1527
(lp1528
S'ENSG00000182742'
p1529
asS'Irx4.1'
p1530
(lp1531
S'ENSG00000113430'
p1532
asS'SRY_HMG_DBD_dimeric_15_1'
p1533
(lp1534
g639
asS'V$MEIS1_01_M00419'
p1535
(lp1536
S'ENSG00000143995'
p1537
asS'V$ERR1_Q2_01_M02093'
p1538
(lp1539
g1080
asS'GABPA_MA0062.1'
p1540
(lp1541
S'ENSG00000154727'
p1542
asS'GABPA_MA0062.2'
p1543
(lp1544
g1542
asS'V$HSF1_Q6_01_M02017'
p1545
(lp1546
g1278
asS'V$NF1_Q6_01_M00806'
p1547
(lp1548
g15
asS'V$SOX11_03_M02795'
p1549
(lp1550
S'ENSG00000176887'
p1551
asS'SOX14_HMG_DBD_dimeric_13_1'
p1552
(lp1553
g77
asS'V$HBP1_03_M02762'
p1554
(lp1555
g1146
ag1147
asS'V$AML1_Q6_M00751'
p1556
(lp1557
g86
asS'V$EGR1_02_M01972'
p1558
(lp1559
g574
asS'FOXO4_forkhead_DBD_dimeric_14_1'
p1560
(lp1561
g500
asS'SOX2_HMG_full_dimeric_15_1'
p1562
(lp1563
g410
asS'SOX14_HMG_DBD_dimeric_15_1'
p1564
(lp1565
g77
asS'IRF5_IRF_full_monomeric_11_1'
p1566
(lp1567
S'ENSG00000128604'
p1568
asS'V$TEL2_Q6_M00678'
p1569
(lp1570
g1361
asS'HINFP1_C2H2_full_dimeric_20_1'
p1571
(lp1572
g1052
asS'Rarb_nuclearreceptor_DBD_dimeric_17_1'
p1573
(lp1574
g1463
asS'Ascl2_bHLH_DBD_dimeric_10_1'
p1575
(lp1576
S'ENSG00000183734'
p1577
asS'Pou3f1.1'
p1578
(lp1579
g724
asS'V$RXRA_04_M02895'
p1580
(lp1581
g549
asS'Tcf7.2'
p1582
(lp1583
g1140
asS'Tcf7.1'
p1584
(lp1585
g1140
asS'V$SOX5_07_M02909'
p1586
(lp1587
S'ENSG00000134532'
p1588
asS'V$FOXO4_01_M00472'
p1589
(lp1590
g500
asS'V$E47_01_M00002'
p1591
(lp1592
g916
asS'V$TAL1BETAITF2_01_M00070'
p1593
(lp1594
g627
asS'V$SP1_02_M01303'
p1595
(lp1596
g1055
asS'V$BRCA_01_M01082'
p1597
(lp1598
S'ENSG00000012048'
p1599
asS'PAX1_PAX_DBD_monomeric_17_1'
p1600
(lp1601
g1302
asS'V$ZIC2_04_M02836'
p1602
(lp1603
S'ENSG00000043355'
p1604
asS'V$BARHL2_01_M01446'
p1605
(lp1606
g600
asS'PAX4_PAX_full_monomeric_8_1'
p1607
(lp1608
g323
asS'V$TCF7L2_04_M02922'
p1609
(lp1610
S'ENSG00000148737'
p1611
asS'V$RORA_Q4_M01138'
p1612
(lp1613
S'ENSG00000069667'
p1614
asS'Hoxa10.1'
p1615
(lp1616
g1026
asS'GCM1_GCM_full_monomeric_11_1'
p1617
(lp1618
g274
asS'V$ALX4_03_M02944'
p1619
(lp1620
S'ENSG00000052850'
p1621
asS'Prop1.1'
p1622
(lp1623
S'ENSG00000175325'
p1624
aS'ENSG00000280635'
p1625
aS'ENSG00000274382'
p1626
asS'V$ZBED6_01_M01598'
p1627
(lp1628
S'ENSG00000257315'
p1629
asS'HOXD12_homeodomain_DBD_monomeric_11_1'
p1630
(lp1631
S'ENSG00000170178'
p1632
asS'V$E4BP4_01_M00045'
p1633
(lp1634
g1290
asS'V$CDX2_Q5_02_M02087'
p1635
(lp1636
S'ENSG00000165556'
p1637
asS'Cdx2.1'
p1638
(lp1639
g1637
asS'V$VMYB_01_M00003'
p1640
(lp1641
g1118
asS'V$HEB_Q6_M00698'
p1642
(lp1643
S'ENSG00000140262'
p1644
asS'GBX2_homeodomain_full_monomeric_10_1'
p1645
(lp1646
g296
asS'V$CDX2_01_M01449'
p1647
(lp1648
g1637
asS'VENTX_homeodomain_DBD_monomeric_9_1'
p1649
(lp1650
S'ENSG00000151650'
p1651
asS'V$STAT3_01_M00225'
p1652
(lp1653
S'ENSG00000168610'
p1654
asS'V$NFE2L2_01_M02263'
p1655
(lp1656
g1307
asS'V$PARP_Q4_M02027'
p1657
(lp1658
S'ENSG00000143799'
p1659
asS'DPRX_homeodomain_DBD_monomeric_10_1'
p1660
(lp1661
S'ENSG00000204595'
p1662
asS'V$ATF5_01_M01295'
p1663
(lp1664
S'ENSG00000169136'
p1665
asS'NFKB2_NFAT_DBD_dimeric_13_1'
p1666
(lp1667
S'ENSG00000077150'
p1668
asS'V$HOXC13_01_M01317'
p1669
(lp1670
g1113
asS'V$TATA_01_M00252'
p1671
(lp1672
g636
asS'FOXO3_forkhead_full_monomeric_8_1'
p1673
(lp1674
g299
asS'MEIS3_MEIS_DBD_monomeric_8_1'
p1675
(lp1676
g687
asS'USF1_bHLH_DBD_dimeric_10_1'
p1677
(lp1678
g260
asS'BARHL2_homeodomain_full_monomeric_10_1'
p1679
(lp1680
g600
asS'Cart1.2'
p1681
(lp1682
g1526
asS'V$MAX_01_M00119'
p1683
(lp1684
g144
asS'V$RORA2_01_M00157'
p1685
(lp1686
g1614
asS'V$HBP1_Q2_M01661'
p1687
(lp1688
g1146
ag1147
asS'V$RSRFC4_01_M00026'
p1689
(lp1690
S'ENSG00000068305'
p1691
asS'V$NR2F2_03_M02783'
p1692
(lp1693
S'ENSG00000185551'
p1694
asS'V$SRF_02_M01257'
p1695
(lp1696
g350
asS'Rfx3_RFX_DBD_dimeric_16_1'
p1697
(lp1698
g1483
asS'V$FOXO1_03_M01968'
p1699
(lp1700
g110
asS'V$HOXA5_03_M02271'
p1701
(lp1702
S'ENSG00000106004'
p1703
asS'ETV1_ETS_DBD_monomeric_10_1'
p1704
(lp1705
S'ENSG00000006468'
p1706
asS'SPIB_ETS_DBD_monomeric_14_1'
p1707
(lp1708
g127
asS'MYBL2_MYB_DBD_dimeric_14_1'
p1709
(lp1710
S'ENSG00000101057'
p1711
asS'V$SHOX2_01_M01415'
p1712
(lp1713
S'ENSG00000168779'
p1714
asS'E2F3.1'
p1715
(lp1716
g48
asS'E2F3.2'
p1717
(lp1718
g48
asS'DBP_bZIP_full_dimeric_12_1'
p1719
(lp1720
S'ENSG00000105516'
p1721
asS'V$GBX2_01_M01382'
p1722
(lp1723
g296
asS'V$EGR3_01_M00245'
p1724
(lp1725
S'ENSG00000179388'
p1726
asS'V$MAFA_Q4_01_M01709'
p1727
(lp1728
S'ENSG00000182759'
p1729
asS'FOXB1_forkhead_DBD_putative-multimer_14_1'
p1730
(lp1731
g477
asS'V$SRY_02_M00160'
p1732
(lp1733
g639
asS'MSX1_homeodomain_DBD_dimeric_18_1'
p1734
(lp1735
g871
asS'GRHL1_CP2_DBD_dimeric_10_1'
p1736
(lp1737
S'ENSG00000134317'
p1738
asS'V$HEN1_01_M00068'
p1739
(lp1740
g651
asS'V$MEIS1_02_M01419'
p1741
(lp1742
g1537
asS'AP1_MA0099.2'
p1743
(lp1744
g994
asS'SREBF2_bHLH_DBD_dimeric_10_1'
p1745
(lp1746
g1043
asS'STAT1_MA0137.1'
p1747
(lp1748
g557
asS'EHF_ETS_full_monomeric_12_1'
p1749
(lp1750
g965
asS'MAX_bHLH_DBD_dimeric_10_1'
p1751
(lp1752
g144
asS'V$ZFP281_04_M02831'
p1753
(lp1754
g206
asS'V$EGR1_Q6_M01873'
p1755
(lp1756
g574
asS'Zfp105.1'
p1757
(lp1758
g359
ag360
asS'V$PAX_Q6_M00808'
p1759
(lp1760
g1302
asS'V$SMAD3_03_M02794'
p1761
(lp1762
S'ENSG00000166949'
p1763
asS'MYBL2_MYB_DBD_dimeric_16_1'
p1764
(lp1765
g1711
asS'Esrra_nuclearreceptor_DBD_dimeric_17_1'
p1766
(lp1767
g1080
asS'NOTO_homeodomain_DBD_monomeric_10_1'
p1768
(lp1769
S'ENSG00000214513'
p1770
asS'V$ELF_02_M02053'
p1771
(lp1772
g642
asS'V$NFKAPPAB65_01_M00052'
p1773
(lp1774
g421
asS'V$MEF2A_05_M01301'
p1775
(lp1776
g1691
asS'V$RFX_Q6_M00975'
p1777
(lp1778
g846
asS'V$HMX1_02_M01481'
p1779
(lp1780
g1206
asS'GLIS1_C2H2_DBD_monomeric_16_1'
p1781
(lp1782
S'ENSG00000174332'
p1783
asS'T_TBX_full_dimeric_16_1'
p1784
(lp1785
S'ENSG00000164458'
p1786
asS'SRF_MA0083.1'
p1787
(lp1788
g350
asS'V$POU5F1_01_M01307'
p1789
(lp1790
g695
ag696
ag697
ag698
ag699
ag700
ag701
asS'V$HOXA13_02_M01297'
p1791
(lp1792
g1344
asS'V$SOX1_04_M02906'
p1793
(lp1794
g1435
asS'V$GATA6_04_M02757'
p1795
(lp1796
g654
asS'LHX2_homeodomain_DBD_monomeric_10_1'
p1797
(lp1798
S'ENSG00000106689'
p1799
asS'POU1F1_POU_DBD_monomeric_17_1'
p1800
(lp1801
S'ENSG00000064835'
p1802
asS'V$NFKAPPAB_01_M00054'
p1803
(lp1804
g421
asS'V$HOXA7_02_M01336'
p1805
(lp1806
g546
asS'MSX2_homeodomain_DBD_dimeric_18_1'
p1807
(lp1808
g56
asS'V$ZFP187_04_M02934'
p1809
(lp1810
g1102
asS'V$CREBP1_Q2_M00179'
p1811
(lp1812
S'ENSG00000115966'
p1813
asS'TFE3_bHLH_DBD_dimeric_10_1'
p1814
(lp1815
S'ENSG00000068323'
p1816
asS'V$EKLF_Q5_M01874'
p1817
(lp1818
S'ENSG00000105610'
p1819
asS'GMEB2_SAND_DBD_dimeric_8_2'
p1820
(lp1821
S'ENSG00000101216'
p1822
asS'V$MYF6_03_M02781'
p1823
(lp1824
S'ENSG00000111046'
p1825
asS'V$ZIC2_05_M02940'
p1826
(lp1827
g1604
asS'Hmx1.1'
p1828
(lp1829
g1206
asS'Phox2b.1'
p1830
(lp1831
g33
asS'V$ZBTB4_04_M02929'
p1832
(lp1833
S'ENSG00000174282'
p1834
aS'ENSG00000283868'
p1835
asS'V$DLX2_01_M01468'
p1836
(lp1837
g707
asS'V$SRF_06_M02916'
p1838
(lp1839
g350
asS'RORA_nuclearreceptor_DBD_dimeric_20_1'
p1840
(lp1841
g1614
asS'Otp.1'
p1842
(lp1843
S'ENSG00000171540'
p1844
asS'Lhx4_homeodomain_DBD_monomeric_8_1'
p1845
(lp1846
g284
asS'TGIF1_MEIS_DBD_dimeric_12_1'
p1847
(lp1848
g976
asS'V$E2F_Q4_01_M00919'
p1849
(lp1850
g45
asS'V$AHRARNT_02_M00237'
p1851
(lp1852
g53
asS'V$GSC_01_M01428'
p1853
(lp1854
g266
asS'PAX6_PAX_DBD_monomeric_19_1'
p1855
(lp1856
g209
asS'V$NUR77_Q5_M01217'
p1857
(lp1858
S'ENSG00000123358'
p1859
asS'HSFY2_HSF_DBD_dimeric_9_1'
p1860
(lp1861
S'ENSG00000172468'
p1862
asS'TFAP2B_TFAP_DBD_dimeric_12_1'
p1863
(lp1864
g856
asS'CREB3L1_bZIP_full_dimeric_14_1'
p1865
(lp1866
S'ENSG00000157613'
p1867
asS'V$COUPTF_Q6_M01036'
p1868
(lp1869
g39
asS'GBX1_homeodomain_DBD_monomeric_10_1'
p1870
(lp1871
S'ENSG00000164900'
p1872
asS'MEIS1_MEIS_DBD_monomeric_7_1'
p1873
(lp1874
g1537
asS'Foxc1_forkhead_DBD_dimeric_11_1'
p1875
(lp1876
g563
asS'V$AP1_02_M02280'
p1877
(lp1878
g994
asS'V$GR_01_M00955'
p1879
(lp1880
g1075
asS'GCM1_GCM_DBD_monomeric_10_1'
p1881
(lp1882
g274
asS'V$E2A_Q2_M00804'
p1883
(lp1884
g916
asS'HINFP1_C2H2_full_dimeric_19_1'
p1885
(lp1886
g1052
asS'V$MAX_Q6_M01830'
p1887
(lp1888
g144
asS'V$SP1_Q4_01_M00932'
p1889
(lp1890
g1055
asS'V$PITX2_Q2_M00482'
p1891
(lp1892
g9
asS'NR2C2_nuclearreceptor_DBD_dimeric_14_1'
p1893
(lp1894
S'ENSG00000177463'
p1895
asS'Pax4.1'
p1896
(lp1897
g323
asS'ESR1_MA0112.2'
p1898
(lp1899
g821
asS'ESR1_MA0112.1'
p1900
(lp1901
g821
asS'V$TBX5_Q5_M01044'
p1902
(lp1903
g610
asS'V$BACH1_01_M00495'
p1904
(lp1905
S'ENSG00000156273'
p1906
asS'TEAD1_TEA_full_dimeric_17_1'
p1907
(lp1908
S'ENSG00000187079'
p1909
asS'Klf4_MA0039.1'
p1910
(lp1911
g98
asS'V$NANOG_02_M01247'
p1912
(lp1913
S'ENSG00000111704'
p1914
asS'MAFG_bZIP_full_dimeric_21_1'
p1915
(lp1916
S'ENSG00000197063'
p1917
asS'Ets1.1'
p1918
(lp1919
g188
asS'V$MYF6_04_M02885'
p1920
(lp1921
g1825
asS'MSX2_homeodomain_DBD_monomeric_8_1'
p1922
(lp1923
g56
asS'V$OTX2_01_M01387'
p1924
(lp1925
g89
asS'V$HOXB5_01_M01319'
p1926
(lp1927
S'ENSG00000120075'
p1928
asS'V$RFXDC2_04_M02894'
p1929
(lp1930
S'ENSG00000181827'
p1931
asS'Myb.2'
p1932
(lp1933
g1118
asS'Myb.1'
p1934
(lp1935
g1118
asS'Pou3f3.1'
p1936
(lp1937
g331
asS'ONECUT1_CUT_full_monomeric_14_1'
p1938
(lp1939
g1317
asS'En1_MA0027.1'
p1940
(lp1941
g1255
asS'V$CTF1_01_M01196'
p1942
(lp1943
S'ENSG00000150281'
p1944
asS'V$EVI1_02_M00079'
p1945
(lp1946
g777
asS'E2F2_E2F_DBD_dimeric_16_1'
p1947
(lp1948
g758
ag759
asS'V$PDEF_02_M02075'
p1949
(lp1950
g494
asS'V$HOXC12_01_M01437'
p1951
(lp1952
g594
asS'V$HNF1B_01_M01425'
p1953
(lp1954
S'ENSG00000276194'
p1955
aS'ENSG00000275410'
p1956
asS'V$SOX7_04_M02911'
p1957
(lp1958
S'ENSG00000171056'
p1959
asS'V$TFIIA_Q6_M00707'
p1960
(lp1961
S'ENSG00000165417'
p1962
asS'V$TFE_Q6_M01029'
p1963
(lp1964
S'ENSG00000112561'
p1965
asS'Gata3.1'
p1966
(lp1967
g491
asS'V$RFX3_04_M02788'
p1968
(lp1969
g1483
asS'TFCP2_CP2_full_dimeric_10_1'
p1970
(lp1971
S'ENSG00000135457'
p1972
asS'Gata3.2'
p1973
(lp1974
g491
asS'V$HOXB13_01_M01467'
p1975
(lp1976
S'ENSG00000159184'
p1977
asS'V$CP2_01_M00072'
p1978
(lp1979
g1972
asS'Dlx3.1'
p1980
(lp1981
g560
asS'V$HOXD11_01_M01434'
p1982
(lp1983
S'ENSG00000128713'
p1984
asS'V$HMBOX1_01_M01456'
p1985
(lp1986
S'ENSG00000147421'
p1987
asS'Dlx5.1'
p1988
(lp1989
S'ENSG00000105880'
p1990
asS'V$FXR_Q2_M01268'
p1991
(lp1992
S'ENSG00000012504'
p1993
asS'V$GLI_Q2_M01037'
p1994
(lp1995
g624
asS'V$E2F1_Q6_M00431'
p1996
(lp1997
g45
asS'V$AP4_Q6_01_M00927'
p1998
(lp1999
g228
asS'V$GFI1_Q6_M01067'
p2000
(lp2001
S'ENSG00000162676'
p2002
asS'V$STAT4_01_M00498'
p2003
(lp2004
g657
asS'SOX8_HMG_DBD_dimeric_14_1'
p2005
(lp2006
g888
asS'MEOX2_homeodomain_DBD_dimeric_17_1'
p2007
(lp2008
S'ENSG00000106511'
p2009
asS'V$TCFAP2C_03_M02821'
p2010
(lp2011
S'ENSG00000087510'
p2012
asS'Stat3_MA0144.1'
p2013
(lp2014
g1654
asS'V$STAT5A_03_M00493'
p2015
(lp2016
g101
asS'V$ZFP281_01_M01597'
p2017
(lp2018
g206
asS'V$PBX1_02_M00124'
p2019
(lp2020
g138
asS'TFAP2B_TFAP_DBD_dimeric_13_1'
p2021
(lp2022
g856
asS'V$JUNDM2_04_M02876'
p2023
(lp2024
g994
asS'V$ISGF4G_04_M02875'
p2025
(lp2026
g428
asS'V$E2F4_Q6_M02090'
p2027
(lp2028
g24
asS'V$GC_01_M00255'
p2029
(lp2030
S'ENSG00000145321'
p2031
asS'V$MYB_Q3_M00773'
p2032
(lp2033
g1118
asS'V$DEAF1_02_M01002'
p2034
(lp2035
S'ENSG00000282712'
p2036
aS'ENSG00000177030'
p2037
asS'V$ARNT_01_M00236'
p2038
(lp2039
S'ENSG00000143437'
p2040
asS'V$ALX4_01_M00619'
p2041
(lp2042
g1621
asS'V$ZIC2_01_M00449'
p2043
(lp2044
g1604
asS'V$NEUROD_01_M01287'
p2045
(lp2046
g1034
asS'V$EGR2_01_M00246'
p2047
(lp2048
S'ENSG00000122877'
p2049
asS'TFAP2A_TFAP_DBD_dimeric_12_1'
p2050
(lp2051
g228
asS'Barhl1_homeodomain_DBD_dimeric_16_1'
p2052
(lp2053
S'ENSG00000125492'
p2054
asS'Plagl1.2'
p2055
(lp2056
S'ENSG00000118495'
p2057
asS'Plagl1.1'
p2058
(lp2059
g2057
asS'Rax.1'
p2060
(lp2061
S'ENSG00000134438'
p2062
asS'Tbp.1'
p2063
(lp2064
g636
asS'Tbp.2'
p2065
(lp2066
g636
asS'V$ERR1_Q3_M01841'
p2067
(lp2068
g1080
asS'PAX3_PAX_DBD_dimeric_10_1'
p2069
(lp2070
S'ENSG00000135903'
p2071
asS'V$SP100_04_M02913'
p2072
(lp2073
S'ENSG00000067066'
p2074
asS'Sp100.2'
p2075
(lp2076
g2074
asS'Sp100.1'
p2077
(lp2078
g2074
asS'TFCP2_CP2_full_dimer-of-dimers_16_1'
p2079
(lp2080
g1972
asS'Hlx1.1'
p2081
(lp2082
g384
asS'Bhlhb2.1'
p2083
(lp2084
S'ENSG00000134107'
p2085
asS'Bhlhb2.2'
p2086
(lp2087
g2085
asS'TFAP2C_TFAP_full_dimeric_13_1'
p2088
(lp2089
g2012
asS'V$AP2ALPHA_01_M00469'
p2090
(lp2091
g228
asS'V$ALX4_02_M01417'
p2092
(lp2093
g1621
asS'V$MITF_Q6_M02099'
p2094
(lp2095
S'ENSG00000187098'
p2096
asS'V$HNF1B_04_M02266'
p2097
(lp2098
g1955
ag1956
asS'V$TBX5_02_M01020'
p2099
(lp2100
g610
asS'Irx3.2'
p2101
(lp2102
g1324
asS'V$NFKB_C_M00208'
p2103
(lp2104
g421
asS'V$TGIF1_01_M03111'
p2105
(lp2106
g976
asS'V$PMX2A_01_M01444'
p2107
(lp2108
S'ENSG00000165462'
p2109
asS'Bapx1.1'
p2110
(lp2111
g523
asS'V$DBP_Q6_01_M01872'
p2112
(lp2113
g1721
asS'NFKB1_NFAT_DBD_dimeric_13_1'
p2114
(lp2115
g421
asS'V$ASCL2_04_M02841'
p2116
(lp2117
g1577
asS'V$POU2F3_01_M01476'
p2118
(lp2119
g786
asS'V$CTCF_01_M01200'
p2120
(lp2121
S'ENSG00000102974'
p2122
asS'V$DAX1_01_M01248'
p2123
(lp2124
S'ENSG00000169297'
p2125
asS'V$PLAG1_01_M01778'
p2126
(lp2127
g1218
asS'V$GATA2_02_M00348'
p2128
(lp2129
g176
asS'V$HOXC10_01_M01361'
p2130
(lp2131
g671
asS'RORA_2_MA0072.1'
p2132
(lp2133
g1614
asS'EN1_homeodomain_full_dimeric_14_1'
p2134
(lp2135
g1255
asS'Tp73_p53l_DBD_dimeric_18_1'
p2136
(lp2137
S'ENSG00000078900'
p2138
asS'V$EHF_03_M02052'
p2139
(lp2140
g965
asS'Six3.1'
p2141
(lp2142
g1170
asS'Gm397.2'
p2143
(lp2144
S'ENSG00000180532'
p2145
asS'Gm397.1'
p2146
(lp2147
g2145
asS'TP53_MA0106.1'
p2148
(lp2149
g755
asS'CREB3_bZIP_full_dimeric_14_1'
p2150
(lp2151
S'ENSG00000107175'
p2152
asS'V$GATA6_05_M02861'
p2153
(lp2154
g654
asS'HOXA10_homeodomain_DBD_monomeric_11_1'
p2155
(lp2156
g1026
asS'V$SOX5_04_M02910'
p2157
(lp2158
g1588
asS'V$CEBPD_Q6_M00621'
p2159
(lp2160
S'ENSG00000221869'
p2161
asS'FOXD2_forkhead_DBD_monomeric_7_1'
p2162
(lp2163
S'ENSG00000186564'
p2164
asS'V$CETS1_Q6_M01870'
p2165
(lp2166
g188
asS'Foxl1.2'
p2167
(lp2168
g1232
asS'Foxl1.1'
p2169
(lp2170
g1232
asS'V$CDPCR3HD_01_M00106'
p2171
(lp2172
g104
asS'Alx1_homeodomain_DBD_monomeric_10_1'
p2173
(lp2174
S'ENSG00000180318'
p2175
asS'V$AML2_Q3_M01814'
p2176
(lp2177
g356
asS'V$TCF4_Q5_M00671'
p2178
(lp2179
g1130
asS'V$E2F3_Q6_M02089'
p2180
(lp2181
g48
asS'V$TR4_03_M01782'
p2182
(lp2183
g1895
asS'Lhx6.1'
p2184
(lp2185
g1352
asS'V$E12_Q6_M00693'
p2186
(lp2187
g916
asS'Zif268.1'
p2188
(lp2189
g574
asS'ZIC3_C2H2_full_monomeric_15_1'
p2190
(lp2191
g1263
asS'MEIS2_MEIS_DBD_dimeric_14_1'
p2192
(lp2193
S'ENSG00000134138'
p2194
asS'V$IRF2_01_M00063'
p2195
(lp2196
g92
asS'NR3C2_nuclearreceptor_DBD_dimeric_17_1'
p2197
(lp2198
S'ENSG00000151623'
p2199
asS'NR4A2_nuclearreceptor_full_dimeric_16_1'
p2200
(lp2201
g803
asS'V$BLIMP1_Q6_M01066'
p2202
(lp2203
S'ENSG00000057657'
p2204
asS'PITX3_homeodomain_DBD_monomeric_9_1'
p2205
(lp2206
g630
asS'V$HFH1_01_M00129'
p2207
(lp2208
g336
asS'TBX1_TBX_DBD_dimeric_20_1'
p2209
(lp2210
g225
asS'Nkx3-1.1'
p2211
(lp2212
g433
asS'V$SOX15_04_M02903'
p2213
(lp2214
g119
asS'V$CART1_01_M00416'
p2215
(lp2216
g1526
asS'TCF7L1_HMG_full_monomeric_12_1'
p2217
(lp2218
S'ENSG00000152284'
p2219
asS'V$POU6F1_01_M00465'
p2220
(lp2221
g1260
asS'Atf1.1'
p2222
(lp2223
g531
asS'Atf1.2'
p2224
(lp2225
g531
asS'V$ETV3_01_M01990'
p2226
(lp2227
g141
asS'V$USF_02_M00122'
p2228
(lp2229
g260
asS'V$NFKB_Q6_M00194'
p2230
(lp2231
g421
asS'Nr2e3_MA0164.1'
p2232
(lp2233
S'ENSG00000278570'
p2234
asS'V$PDEF_01_M02040'
p2235
(lp2236
g494
asS'TFEB_bHLH_full_dimeric_10_1'
p2237
(lp2238
g1965
asS'V$GRE_C_M00205'
p2239
(lp2240
g1075
asS'V$AML2_01_M01759'
p2241
(lp2242
g356
asS'Sry.2'
p2243
(lp2244
g639
asS'Sry.1'
p2245
(lp2246
g639
asS'V$WT1_Q6_01_M02036'
p2247
(lp2248
S'ENSG00000184937'
p2249
asS'ELF1_ETS_full_monomeric_12_1'
p2250
(lp2251
g642
asS'IRF7_IRF_DBD_dimeric_14_1'
p2252
(lp2253
g197
ag198
asS'MYBL2_MYB_DBD_monomeric_11_1'
p2254
(lp2255
g1711
asS'Gm4881.1'
p2256
(lp2257
S'ENSG00000268041'
p2258
asS'V$TCF4_01_M01705'
p2259
(lp2260
g1130
asS'V$ZFP128_03_M02828'
p2261
(lp2262
S'ENSG00000278129'
p2263
asS'V$OCT_C_M00210'
p2264
(lp2265
g597
asS'MYF6_bHLH_full_dimeric_10_1'
p2266
(lp2267
g1825
asS'V$SP1SP3_Q4_M01219'
p2268
(lp2269
g1055
asS'V$ELF4_01_M01979'
p2270
(lp2271
g945
asS'HOXA5_MA0158.1'
p2272
(lp2273
g1703
asS'THRA_nuclearreceptor_FL_dimeric_18_1'
p2274
(lp2275
g130
asS'OCT1.1'
p2276
(lp2277
g597
asS'V$TBX15_02_M01264'
p2278
(lp2279
S'ENSG00000092607'
p2280
asS'V$STAT3_02_M00497'
p2281
(lp2282
g1654
asS'EVX2_homeodomain_DBD_monomeric_10_1'
p2283
(lp2284
g1393
asS'V$GTF2IRD1_01_M01229'
p2285
(lp2286
g679
asS'V$SOX9_B1_M00410'
p2287
(lp2288
g1366
asS'V$HSF1_01_M00146'
p2289
(lp2290
g1278
asS'Zfp187.1'
p2291
(lp2292
g1102
asS'V$NFY_Q6_M00185'
p2293
(lp2294
g249
asS'Hoxa11_homeodomain_DBD_monomeric_12_1'
p2295
(lp2296
S'ENSG00000005073'
p2297
asS'V$AML1_Q5_M02084'
p2298
(lp2299
g86
asS'V$OG2_01_M01162'
p2300
(lp2301
g365
asS'Tgif1.1'
p2302
(lp2303
g976
asS'Srf.1'
p2304
(lp2305
g350
asS'V$CMAF_02_M01228'
p2306
(lp2307
g239
asS'Srf.2'
p2308
(lp2309
g350
asS'Sox3_HMG_DBD_dimeric_17_3'
p2310
(lp2311
g1492
asS'EGR2_C2H2_full_monomeric_15_1'
p2312
(lp2313
g2049
asS'V$SOX_01_M01286'
p2314
(lp2315
g1435
asS'V$TCFAP2C_04_M02925'
p2316
(lp2317
g2012
asS'Zbtb3.1'
p2318
(lp2319
S'ENSG00000185670'
p2320
asS'Zbtb3.2'
p2321
(lp2322
g2320
asS'V$BRN3C_01_M01408'
p2323
(lp2324
S'ENSG00000091010'
p2325
asS'V$HOXA9_01_M01351'
p2326
(lp2327
g1191
asS'GATA4_GATA_DBD_monomeric_8_1'
p2328
(lp2329
S'ENSG00000136574'
p2330
asS'YY2_C2H2_full_monomeric_11_1'
p2331
(lp2332
S'ENSG00000230797'
p2333
asS'Lmx1b.1'
p2334
(lp2335
g568
asS'V$CREL_01_M00053'
p2336
(lp2337
S'ENSG00000162924'
p2338
asS'Lhx8.1'
p2339
(lp2340
S'ENSG00000162624'
p2341
asS'Nkx2-9.1'
p2342
(lp2343
S'ENSG00000136327'
p2344
asS'MZF1_1-4_MA0056.1'
p2345
(lp2346
g1000
asS'V$REX1_02_M01696'
p2347
(lp2348
S'ENSG00000179059'
p2349
asS'BHLHE22_bHLH_DBD_dimeric_12_1'
p2350
(lp2351
S'ENSG00000180828'
p2352
asS'V$LMX1B_01_M01363'
p2353
(lp2354
g568
asS'RAXL1_homeodomain_DBD_monomeric_8_1'
p2355
(lp2356
S'ENSG00000173976'
p2357
asS'V$NKX26_01_M01322'
p2358
(lp2359
S'ENSG00000180053'
p2360
asS'V$GAF_Q6_M01209'
p2361
(lp2362
S'ENSG00000102678'
p2363
asS'V$YY1_01_M00059'
p2364
(lp2365
S'ENSG00000100811'
p2366
asS'V$LMAF_Q2_M01139'
p2367
(lp2368
g1729
asS'TBX20_TBX_DBD_monomeric_15_1'
p2369
(lp2370
S'ENSG00000164532'
p2371
asS'MZF1_5-13_MA0057.1'
p2372
(lp2373
g1000
asS'FOXL1_MA0033.1'
p2374
(lp2375
g1232
asS'Foxk1_forkhead_DBD_putatively-multimeric_11_1'
p2376
(lp2377
S'ENSG00000164916'
p2378
asS'V$FOXO1_Q5_M01216'
p2379
(lp2380
g110
asS'V$HOX13_02_M01452'
p2381
(lp2382
g1344
asS'V$NKX52_01_M01315'
p2383
(lp2384
g1184
asS'V$MYOD_Q6_01_M00929'
p2385
(lp2386
g893
asS'TBX21_TBX_full_dimeric_19_1'
p2387
(lp2388
g1209
asS'V$MRG2_01_M01395'
p2389
(lp2390
g687
asS'V$E2F1_Q6_01_M00940'
p2391
(lp2392
g45
asS'Zfp105.2'
p2393
(lp2394
g359
ag360
asS'V$ESR2_01_M02377'
p2395
(lp2396
g353
asS'V$ING4_01_M01743'
p2397
(lp2398
S'ENSG00000111653'
p2399
asS'V$ELF5_03_M02057'
p2400
(lp2401
g1133
asS'V$TCFAP2B_03_M02820'
p2402
(lp2403
g856
asS'HOXD12_homeodomain_DBD_monomeric_9_1'
p2404
(lp2405
g1632
asS'V$XBP1_02_M01770'
p2406
(lp2407
g1293
asS'V$E2F_03_M00516'
p2408
(lp2409
g45
asS'V$STAT1_03_M00496'
p2410
(lp2411
g557
asS'Meox2_homeodomain_DBD_monomeric_8_1'
p2412
(lp2413
g2009
asS'V$HOXD8_01_M01432'
p2414
(lp2415
S'ENSG00000175879'
p2416
asS'V$PIT1_Q6_M00802'
p2417
(lp2418
g1802
asS'SCRT1_C2H2_DBD_monomeric_15_1'
p2419
(lp2420
S'ENSG00000261678'
p2421
asS'V$OCT1_03_M00137'
p2422
(lp2423
g597
asS'V$FOXL1_04_M02753'
p2424
(lp2425
g1232
asS'V$PAX8_01_M00717'
p2426
(lp2427
g648
asS'GATA3_GATA_full_monomeric_8_1'
p2428
(lp2429
g491
asS'V$IRF1_Q6_01_M01881'
p2430
(lp2431
S'ENSG00000125347'
p2432
asS'V$E2F1_Q3_M00428'
p2433
(lp2434
g45
asS'V$OCTAMER_02_M01477'
p2435
(lp2436
g331
asS'V$CUX1_04_M02959'
p2437
(lp2438
g104
asS'Dmbx1.1'
p2439
(lp2440
S'ENSG00000197587'
p2441
asS'V$BCL6B_03_M02740'
p2442
(lp2443
g767
asS'V$HNF1_Q6_01_M01011'
p2444
(lp2445
g1010
asS'V$MYCMAX_B_M00322'
p2446
(lp2447
g144
asS'V$PPAR_DR1_Q2_M00763'
p2448
(lp2449
S'ENSG00000186951'
p2450
asS'V$CREB_Q2_01_M00916'
p2451
(lp2452
S'ENSG00000118260'
p2453
asS'IRX2_homeodomain_DBD_dimeric_12_1'
p2454
(lp2455
g1519
asS'CART1_homeodomain_DBD_dimeric_13_1'
p2456
(lp2457
g1526
asS'V$HNF4_Q6_03_M01033'
p2458
(lp2459
g397
asS'V$VSX1_01_M01335'
p2460
(lp2461
g170
asS'V$UNCX4.1_01_M01458'
p2462
(lp2463
g185
asS'Egr1_C2H2_mouse-DBD_mutant_DBD_monomeric_16_1'
p2464
(lp2465
g574
asS'LEF1_HMG_DBD_monomeric_15_1'
p2466
(lp2467
g293
asS'Meis2_MEIS_DBD_dimeric_12_1'
p2468
(lp2469
g2194
asS'YY1_C2H2_full_monomeric_11_1'
p2470
(lp2471
g2366
asS'V$OCT2_01_M01368'
p2472
(lp2473
g1456
asS'V$MAFK_03_M02776'
p2474
(lp2475
g179
asS'Rarg_nuclearreceptor_DBD_dimeric_17_1'
p2476
(lp2477
g989
asS'V$ZBTB12_03_M02824'
p2478
(lp2479
S'ENSG00000234852'
p2480
aS'ENSG00000206366'
p2481
aS'ENSG00000234196'
p2482
aS'ENSG00000204366'
p2483
aS'ENSG00000237900'
p2484
asS'MAFK_bZIP_full_dimeric_15_1'
p2485
(lp2486
g179
asS'V$PBX_Q3_M00998'
p2487
(lp2488
g138
asS'GSX2_homeodomain_DBD_monomeric_10_1'
p2489
(lp2490
g269
asS'V$NKX21_01_M01312'
p2491
(lp2492
S'ENSG00000136352'
p2493
asS'V$NKX11_01_M01334'
p2494
(lp2495
S'ENSG00000235608'
p2496
asS'V$SATB1_01_M01232'
p2497
(lp2498
g222
asS'IRF5_IRF_full_dimeric_14_1'
p2499
(lp2500
g1568
asS'BARX1_homeodomain_DBD_dimeric_17_1'
p2501
(lp2502
S'ENSG00000131668'
p2503
asS'Meis1.1'
p2504
(lp2505
g1537
asS'V$CDX1_Q5_M02086'
p2506
(lp2507
S'ENSG00000113722'
p2508
asS'V$ZSCAN4_04_M02942'
p2509
(lp2510
g2145
asS'TBX1_TBX_DBD_dimeric_23_1'
p2511
(lp2512
g225
asS'V$STAT5B_01_M00459'
p2513
(lp2514
S'ENSG00000173757'
p2515
asS'V$CBF_02_M01080'
p2516
(lp2517
g257
asS'V$E2F_01_M00024'
p2518
(lp2519
g45
asS'V$GZF1_01_M01069'
p2520
(lp2521
S'ENSG00000125812'
p2522
asS'LHX6_homeodomain_full_monomeric_10_1'
p2523
(lp2524
g1352
asS'V$TEF_01_M01305'
p2525
(lp2526
g466
asS'EGR2_C2H2_DBD_monomeric_11_1'
p2527
(lp2528
g2049
asS'Hoxb5.1'
p2529
(lp2530
g1928
asS'V$ATF2_Q5_M01862'
p2531
(lp2532
g1813
asS'V$AP4_Q6_02_M01860'
p2533
(lp2534
g228
asS'V$GATA5_03_M02756'
p2535
(lp2536
S'ENSG00000130700'
p2537
asS'Hoxd9_homeodomain_DBD_monomeric_10_1'
p2538
(lp2539
S'ENSG00000128709'
p2540
asS'V$HOXA7_01_M01108'
p2541
(lp2542
g546
asS'V$TCF3_01_M01594'
p2543
(lp2544
g916
asS'V$NKX25_Q5_M01043'
p2545
(lp2546
g543
asS'Hoxd11.1'
p2547
(lp2548
g1984
asS'ELF5_ETS_full_monomeric_11_1'
p2549
(lp2550
g1133
asS'V$IPF1_Q6_M01275'
p2551
(lp2552
g65
asS'TFAP2C_TFAP_full_dimeric_11_1'
p2553
(lp2554
g2012
asS'SOX2_HMG_full_dimeric_17_1'
p2555
(lp2556
g410
asS'Dlx2.1'
p2557
(lp2558
g707
asS'Rfx3.2'
p2559
(lp2560
g1483
asS'Rfx3.1'
p2561
(lp2562
g1483
asS'V$GM497_04_M02864'
p2563
(lp2564
S'ENSG00000154493'
p2565
asS'CPEB1_RRM_full_monomeric_8_1'
p2566
(lp2567
S'ENSG00000214575'
p2568
aS'ENSG00000277445'
p2569
asS'Zfp740.1'
p2570
(lp2571
g1432
asS'V$OSR1_03_M02784'
p2572
(lp2573
g1513
asS'Zfp740.2'
p2574
(lp2575
g1432
asS'Hoxc5.1'
p2576
(lp2577
S'ENSG00000172789'
p2578
asS'HNF1B_MA0153.1'
p2579
(lp2580
g1955
ag1956
asS'V$CEBP_Q2_M00190'
p2581
(lp2582
g254
asS'PAX5_PAX_DBD_monomeric_18_1'
p2583
(lp2584
g618
asS'V$ZABC1_01_M01306'
p2585
(lp2586
S'ENSG00000171940'
p2587
asS'FOXK1_forkhead_DBD_putatively-multimeric_10_1'
p2588
(lp2589
g2378
asS'V$LHX3b_01_M01971'
p2590
(lp2591
g116
asS'V$HNF4A_03_M02220'
p2592
(lp2593
g397
asS'BARHL2_homeodomain_full_dimeric_16_1'
p2594
(lp2595
g600
asS'HOXB2_homeodomain_DBD_monomeric_10_1'
p2596
(lp2597
S'ENSG00000173917'
p2598
asS'V$GKLF_Q4_M01835'
p2599
(lp2600
g98
asS'V$CKROX_Q2_M01175'
p2601
(lp2602
g983
asS'V$HNF1A_Q5_M02013'
p2603
(lp2604
g1010
asS'Nkx2-3.1'
p2605
(lp2606
S'ENSG00000119919'
p2607
asS'Hoxb9.1'
p2608
(lp2609
S'ENSG00000170689'
p2610
asS'En2.1'
p2611
(lp2612
S'ENSG00000164778'
p2613
asS'V$NKX25_Q6_M02108'
p2614
(lp2615
g543
asS'NFAT5_NFAT_DBD_dimeric_14_1'
p2616
(lp2617
S'ENSG00000102908'
p2618
asS'Gfi_MA0038.1'
p2619
(lp2620
g2002
asS'V$ER81_02_M02065'
p2621
(lp2622
g1706
asS'V$DEAF1_01_M01001'
p2623
(lp2624
g2036
ag2037
asS'Hoxb7.1'
p2625
(lp2626
S'ENSG00000260027'
p2627
asS'Mrg1.1'
p2628
(lp2629
g2194
asS'HMX1_homeodomain_DBD_monomeric_11_1'
p2630
(lp2631
g1206
asS'V$FREAC2_01_M00290'
p2632
(lp2633
g1502
asS'V$PITX1_Q6_M01826'
p2634
(lp2635
g12
asS'SOX9_HMG_full_dimeric_16_3'
p2636
(lp2637
g1366
asS'TFEC_bHLH_DBD_dimeric_10_1'
p2638
(lp2639
S'ENSG00000105967'
p2640
asS'ESRRG_nuclearreceptor_full_dimeric_18_1'
p2641
(lp2642
g147
asS'V$MEF2_Q6_01_M00941'
p2643
(lp2644
g1691
asS'V$AML1_Q4_M01658'
p2645
(lp2646
g86
asS'HNF4A_nuclearreceptor_full_dimeric_15_1'
p2647
(lp2648
g397
asS'TBX21_TBX_full_dimeric_16_1'
p2649
(lp2650
g1209
asS'V$LXRA_RXRA_Q3_M00647'
p2651
(lp2652
S'ENSG00000025434'
p2653
asS'V$HMEF2_Q6_M00406'
p2654
(lp2655
g1691
asS'V$CREB_Q4_01_M00917'
p2656
(lp2657
g2453
asS'V$TCF4_Q5_01_M02033'
p2658
(lp2659
g1130
asS'V$MAZ_Q6_M00649'
p2660
(lp2661
g3
asS'V$SIX1_01_M01313'
p2662
(lp2663
S'ENSG00000126778'
p2664
asS'RARB_nuclearreceptor_full_dimeric_16_1'
p2665
(lp2666
g1463
asS'Sox14.1'
p2667
(lp2668
g77
asS'Sox14.2'
p2669
(lp2670
g77
asS'V$TCFE2A_04_M02927'
p2671
(lp2672
g916
asS'V$OCT2_02_M01761'
p2673
(lp2674
g1456
asS'Tcfap2a_TFAP_DBD_dimeric_11_1'
p2675
(lp2676
g228
asS'POU3F4_POU_DBD_monomeric_9_1'
p2677
(lp2678
S'ENSG00000196767'
p2679
asS'Spdef.2'
p2680
(lp2681
g494
asS'Tcfap2a_TFAP_DBD_dimeric_13_1'
p2682
(lp2683
g228
asS'V$TTF1_Q5_M02034'
p2684
(lp2685
S'ENSG00000125482'
p2686
asS'V$PITX3_Q2_M01735'
p2687
(lp2688
g630
asS'Tcf7_HMG_DBD_monomeric_12_1'
p2689
(lp2690
g1140
asS'Elf3.2'
p2691
(lp2692
g793
asS'Elf3.3'
p2693
(lp2694
g793
asS'ISX_homeodomain_DBD_dimeric_13_1'
p2695
(lp2696
S'ENSG00000175329'
p2697
asS'V$OG2_02_M01441'
p2698
(lp2699
g365
asS'V$ISL2_02_M02079'
p2700
(lp2701
g153
asS'V$LHX8_01_M01440'
p2702
(lp2703
g2341
asS'MIZF_MA0131.1'
p2704
(lp2705
g1052
asS'V$E2F_Q4_02_M00939'
p2706
(lp2707
g45
asS'V$POU3F2_02_M00464'
p2708
(lp2709
g113
asS'HOXA13_homeodomain_full_monomeric_11_1'
p2710
(lp2711
g1344
asS'ELK4_ETS_DBD_monomeric_10_1'
p2712
(lp2713
g1507
asS'V$ESRRA_04_M02852'
p2714
(lp2715
g1080
asS'Srebf1_bHLH_DBD_dimeric_10_1'
p2716
(lp2717
g868
asS'Foxk1_forkhead_DBD_monomeric_7_1'
p2718
(lp2719
g2378
asS'PROX1_PROX_DBD_dimeric_12_1'
p2720
(lp2721
S'ENSG00000117707'
p2722
asS'V$HNF1_02_M01379'
p2723
(lp2724
g1010
asS'V$ZNF219_01_M01122'
p2725
(lp2726
S'ENSG00000165804'
p2727
asS'V$SOX8_04_M02912'
p2728
(lp2729
g888
asS'V$EVI1_Q3_M02002'
p2730
(lp2731
g777
asS'V$SPZ1_01_M00446'
p2732
(lp2733
S'ENSG00000164299'
p2734
asS'Etv6.1'
p2735
(lp2736
g290
asS'Lhx3.1'
p2737
(lp2738
g116
asS'SCRT2_C2H2_DBD_monomeric_13_1'
p2739
(lp2740
S'ENSG00000215397'
p2741
asS'SP3_C2H2_DBD_monomeric_11_1'
p2742
(lp2743
S'ENSG00000172845'
p2744
asS'GATA5_GATA_DBD_monomeric_8_1'
p2745
(lp2746
g2537
asS'V$IRX4_01_M01410'
p2747
(lp2748
g1532
asS'V$CDX_Q5_M00991'
p2749
(lp2750
g2508
asS'V$MAF_Q6_01_M00983'
p2751
(lp2752
g239
asS'CUX2_CUT_DBD_monomeric_10_1'
p2753
(lp2754
S'ENSG00000111249'
p2755
asS'Zfp161.1'
p2756
(lp2757
S'ENSG00000198081'
p2758
asS'Zfp161.2'
p2759
(lp2760
g2758
asS'V$GFI1_Q6_01_M02010'
p2761
(lp2762
g2002
asS'Prrx2_MA0075.1'
p2763
(lp2764
g371
asS'Sox11_HMG_DBD_dimeric_15_1'
p2765
(lp2766
g1551
asS'RFX3_RFX_DBD_dimeric_15_1'
p2767
(lp2768
g1483
asS'Nr2f6_nuclearreceptor_DBD_dimeric_15_1'
p2769
(lp2770
S'ENSG00000160113'
p2771
asS'FOXJ2_forkhead_DBD_dimeric_13_1'
p2772
(lp2773
g404
asS'Hoxc13.1'
p2774
(lp2775
g1113
asS'Gata1_MA0035.2'
p2776
(lp2777
g18
asS'Gata1_MA0035.1'
p2778
(lp2779
g18
asS'Pax7.1'
p2780
(lp2781
g316
asS'Hoxa5.1'
p2782
(lp2783
g1703
asS'V$CDX1_01_M01373'
p2784
(lp2785
g2508
asS'V$HOXD13_01_M01404'
p2786
(lp2787
g939
asS'V$ATF4_Q6_M01864'
p2788
(lp2789
g1123
asS'V$OTX2_Q3_M01719'
p2790
(lp2791
g89
asS'V$SPIB_03_M02076'
p2792
(lp2793
g127
asS'Arid5a.2'
p2794
(lp2795
S'ENSG00000196843'
p2796
asS'Arid5a.1'
p2797
(lp2798
g2796
asS'V$GABPA_04_M02858'
p2799
(lp2800
g1542
asS'E2F1_E2F_DBD_dimeric_12_1'
p2801
(lp2802
g45
asS'V$MEF2_02_M00231'
p2803
(lp2804
g1691
asS'V$MYC_Q2_M00799'
p2805
(lp2806
g762
asS'SOX8_HMG_full_dimeric_13_1'
p2807
(lp2808
g888
asS'ERF_ETS_DBD_monomeric_10_1'
p2809
(lp2810
S'ENSG00000105722'
p2811
asS'NFATC1_NFAT_full_dimeric_14_1'
p2812
(lp2813
S'ENSG00000131196'
p2814
asS'V$AP1_Q6_01_M00925'
p2815
(lp2816
g994
asS'Myc_MA0147.1'
p2817
(lp2818
g762
asS'BATF3_bZIP_DBD_dimeric_14_1'
p2819
(lp2820
S'ENSG00000123685'
p2821
asS'V$ZIC3_04_M02837'
p2822
(lp2823
g1263
asS'V$SRF_Q6_M00186'
p2824
(lp2825
g350
asS'Fos_MA0099.1'
p2826
(lp2827
S'ENSG00000170345'
p2828
asS'V$KLF15_Q2_M01714'
p2829
(lp2830
S'ENSG00000163884'
p2831
asS'V$ELF5_02_M01980'
p2832
(lp2833
g1133
asS'V$HIF1_Q5_M00466'
p2834
(lp2835
g1066
asS'V$SREBP1_Q5_M01173'
p2836
(lp2837
g868
asS'HLF_MA0043.1'
p2838
(lp2839
S'ENSG00000108924'
p2840
asS'V$SMAD_Q6_01_M00974'
p2841
(lp2842
g1018
asS'Gabpa.3'
p2843
(lp2844
g1542
asS'V$ARID5A_03_M02736'
p2845
(lp2846
g2796
asS'TBX5_TBX_DBD_monomeric_8_1'
p2847
(lp2848
g610
asS'V$LMO2COM_02_M00278'
p2849
(lp2850
S'ENSG00000135363'
p2851
asS'V$P63_01_M01656'
p2852
(lp2853
S'ENSG00000073282'
p2854
asS'V$AP1FJ_Q2_M00172'
p2855
(lp2856
g994
asS'FOXC1_MA0032.1'
p2857
(lp2858
g563
asS'E2F1_MA0024.1'
p2859
(lp2860
g45
asS'ZNF143_C2H2_DBD_monomeric_16_1'
p2861
(lp2862
g438
asS'V$CHX10_01_M00437'
p2863
(lp2864
g1378
asS'V$IK2_01_M00087'
p2865
(lp2866
S'ENSG00000030419'
p2867
asS'V$ALPHACP1_01_M00687'
p2868
(lp2869
g249
asS'V$COUP_01_M00158'
p2870
(lp2871
g39
asS'V$BHLHB2_04_M02845'
p2872
(lp2873
g2085
asS'TEAD1_MA0090.1'
p2874
(lp2875
g1909
asS'GLI2_C2H2_DBD_monomeric_14_1'
p2876
(lp2877
g173
asS'V$DELTAEF1_01_M00073'
p2878
(lp2879
g718
asS'V$CTCF_02_M01259'
p2880
(lp2881
g2122
asS'V$STAT_Q6_M00777'
p2882
(lp2883
g557
asS'Irf6.1'
p2884
(lp2885
S'ENSG00000117595'
p2886
asS'V$E2F_Q4_M00426'
p2887
(lp2888
g45
asS'V$GATA3_01_M00077'
p2889
(lp2890
g491
asS'RUNX1_MA0002.1'
p2891
(lp2892
g86
asS'RUNX1_MA0002.2'
p2893
(lp2894
g86
asS'V$HMX3_02_M01413'
p2895
(lp2896
g908
asS'Irf4.2'
p2897
(lp2898
S'ENSG00000137265'
p2899
asS'Irf4.1'
p2900
(lp2901
g2899
asS'V$ZFP740_04_M02938'
p2902
(lp2903
g1432
asS'V$HLF_01_M00260'
p2904
(lp2905
g2840
asS'FOXA1_MA0148.1'
p2906
(lp2907
g721
asS'V$GCNF_Q3_M02009'
p2908
(lp2909
S'ENSG00000148200'
p2910
asS'V$TCF3_05_M02920'
p2911
(lp2912
g916
asS'Foxa2_MA0047.2'
p2913
(lp2914
g217
asS'V$GABPA_02_M02074'
p2915
(lp2916
g1542
asS'Zic3.1'
p2917
(lp2918
g1263
asS'V$FOXO1_02_M00474'
p2919
(lp2920
g110
asS'V$ATF3_Q6_M00513'
p2921
(lp2922
S'ENSG00000162772'
p2923
asS'V$YY2_M01694'
p2924
(lp2925
g2333
asS'V$PPARA_01_M00242'
p2926
(lp2927
g2450
asS'V$BARHL1_01_M01332'
p2928
(lp2929
g2054
asS'V$FKLF_Q5_M01837'
p2930
(lp2931
S'ENSG00000172059'
p2932
asS'Msx2.1'
p2933
(lp2934
g56
asS'V$JUNDM2_03_M02772'
p2935
(lp2936
g994
asS'Nkx6-1.2'
p2937
(lp2938
g1212
asS'TBR1_TBX_DBD_monomeric_10_1'
p2939
(lp2940
S'ENSG00000136535'
p2941
asS'E2F1_E2F_DBD_monomeric_14_2'
p2942
(lp2943
g45
asS'E2F1_E2F_DBD_monomeric_14_1'
p2944
(lp2945
g45
asS'V$IPF1_04_M01236'
p2946
(lp2947
g65
asS'V$MOX1_01_M01443'
p2948
(lp2949
S'ENSG00000005102'
p2950
asS'V$SFPI1_04_M02896'
p2951
(lp2952
g633
asS'V$CEBP_01_M00159'
p2953
(lp2954
g254
asS'TGIF2LX_MEIS_full_dimeric_12_1'
p2955
(lp2956
S'ENSG00000153779'
p2957
asS'Pax4_MA0068.1'
p2958
(lp2959
g323
asS'V$DR3_Q4_M00966'
p2960
(lp2961
S'ENSG00000215788'
p2962
asS'V$CETS2_02_M02064'
p2963
(lp2964
g1196
asS'Mafb.2'
p2965
(lp2966
g368
asS'V$MZF1_Q5_M01733'
p2967
(lp2968
g1000
asS'Mafb.1'
p2969
(lp2970
g368
asS'GLIS3_C2H2_DBD_monomeric_14_1'
p2971
(lp2972
S'ENSG00000107249'
p2973
asS'V$HNF1_C_M00206'
p2974
(lp2975
g1010
asS'V$NKX12_01_M01427'
p2976
(lp2977
g231
asS'HOXB5_homeodomain_DBD_monomeric_10_1'
p2978
(lp2979
g1928
asS'JDP2_bZIP_full_dimeric_12_1'
p2980
(lp2981
S'ENSG00000140044'
p2982
asS'V$FOXP3_01_M01599'
p2983
(lp2984
S'ENSG00000049768'
p2985
asS'V$E2F1_02_M01251'
p2986
(lp2987
g45
asS'MEF2D_MADS_DBD_dimeric_12_1'
p2988
(lp2989
S'ENSG00000116604'
p2990
asS'V$FOXO3_01_M00477'
p2991
(lp2992
g299
asS'V$CREM_Q6_M01820'
p2993
(lp2994
S'ENSG00000095794'
p2995
asS'JDP2_bZIP_full_dimeric_9_1'
p2996
(lp2997
g2982
asS'V$ZFP105_04_M02931'
p2998
(lp2999
g359
ag360
asS'V$HOXD10_01_M01375'
p3000
(lp3001
S'ENSG00000128710'
p3002
asS'POU6F2_POU_full_monomeric_10_1'
p3003
(lp3004
S'ENSG00000106536'
p3005
asS'FOXO4_forkhead_DBD_monomeric_7_1'
p3006
(lp3007
g500
asS'V$RFXDC2_03_M02790'
p3008
(lp3009
g1931
asS'V$RP58_01_M00532'
p3010
(lp3011
S'ENSG00000179456'
p3012
asS'V$ERG_02_M01985'
p3013
(lp3014
g503
asS'ZNF713_C2H2_full_monomeric_17_1'
p3015
(lp3016
S'ENSG00000178665'
p3017
asS'Tcfe2a.2'
p3018
(lp3019
g916
asS'LHX2_homeodomain_DBD_dimeric_15_1'
p3020
(lp3021
g1799
asS'V$MYB_03_M02883'
p3022
(lp3023
g1118
asS'V$SP1_Q2_01_M00933'
p3024
(lp3025
g1055
asS'PITX1_homeodomain_full_monomeric_9_1'
p3026
(lp3027
g12
asS'TBR1_TBX_full_monomeric_11_1'
p3028
(lp3029
g2941
asS'V$HMGIY_01_M01653'
p3030
(lp3031
g663
asS'V$LRF_Q2_M01100'
p3032
(lp3033
S'ENSG00000178951'
p3034
asS'V$HOXA3_01_M00395'
p3035
(lp3036
S'ENSG00000105997'
p3037
asS'TBX4_TBX_DBD_dimeric_20_1'
p3038
(lp3039
g942
asS'V$SPIC_01_M02042'
p3040
(lp3041
g1176
asS'V$IRF_Q6_M00772'
p3042
(lp3043
g2432
asS'V$DMRT2_01_M01147'
p3044
(lp3045
S'ENSG00000173253'
p3046
asS'FOXJ3_forkhead_DBD_dimeric_14_1'
p3047
(lp3048
g752
asS'POU2F1_POU_DBD_monomeric_12_1'
p3049
(lp3050
g597
asS'V$HOXA11_01_M01378'
p3051
(lp3052
g2297
asS'Spz1_MA0111.1'
p3053
(lp3054
g2734
asS'HNF1B_homeodomain_full_dimeric_13_1'
p3055
(lp3056
g1955
ag1956
asS'V$TBX5_01_M01019'
p3057
(lp3058
g610
asS'CUX1_CUT_DBD_dimeric_18_1'
p3059
(lp3060
g104
asS'V$OCT1_06_M00162'
p3061
(lp3062
g597
asS'V$SRF_Q4_M00810'
p3063
(lp3064
g350
asS'POU3F3_POU_DBD_monomeric_12_1'
p3065
(lp3066
g331
asS'V$CIZ_01_M00734'
p3067
(lp3068
S'ENSG00000126746'
p3069
asS'Tcfap2a.1'
p3070
(lp3071
g228
asS'Tcfap2a.2'
p3072
(lp3073
g228
asS'V$ER71_01_M01988'
p3074
(lp3075
g1312
asS'V$NKX3A_01_M00451'
p3076
(lp3077
g433
asS'HMX2_homeodomain_DBD_monomeric_11_1'
p3078
(lp3079
g1184
asS'Lef1.2'
p3080
(lp3081
g293
asS'V$PLAGL1_03_M02786'
p3082
(lp3083
g2057
asS'Lef1.1'
p3084
(lp3085
g293
asS'HNF1B_homeodomain_full_dimeric_15_1'
p3086
(lp3087
g1955
ag1956
asS'EOMES_TBX_DBD_monomeric_13_1'
p3088
(lp3089
g1143
asS'V$AR_02_M00953'
p3090
(lp3091
g537
asS'SOX7_HMG_full_dimeric_16_1'
p3092
(lp3093
g1959
asS'V$ZFP740_03_M02834'
p3094
(lp3095
g1432
asS'Ascl2.1'
p3096
(lp3097
g1577
asS'Ascl2.2'
p3098
(lp3099
g1577
asS'Vax1.1'
p3100
(lp3101
S'ENSG00000148704'
p3102
asS'V$MEF2D_Q4_M02026'
p3103
(lp3104
g2990
asS'V$ISRE_01_M00258'
p3105
(lp3106
g428
asS'V$FREAC4_01_M00292'
p3107
(lp3108
S'ENSG00000251493'
p3109
asS'Barx2.1'
p3110
(lp3111
S'ENSG00000043039'
p3112
asS'TBX20_TBX_DBD_dimeric_19_1'
p3113
(lp3114
g2371
asS'V$AP1_01_M00517'
p3115
(lp3116
g994
asS'V$STAT6_02_M00500'
p3117
(lp3118
S'ENSG00000166888'
p3119
asS'V$SP1_Q6_01_M00931'
p3120
(lp3121
g1055
asS'V$PNR_01_M01650'
p3122
(lp3123
g2234
asS'V$SRF_Q5_02_M01007'
p3124
(lp3125
g350
asS'ZNF306_C2H2_full_monomeric_14_1'
p3126
(lp3127
S'ENSG00000189298'
p3128
asS'GRHL1_CP2_DBD_dimer-of-dimers_17_1'
p3129
(lp3130
g1738
asS'V$HOXB7_01_M01396'
p3131
(lp3132
g2627
asS'Nkx2-4.1'
p3133
(lp3134
S'ENSG00000125816'
p3135
asS'V$STAT6_01_M00494'
p3136
(lp3137
g3119
asS'V$SAP1A_02_M01983'
p3138
(lp3139
S'ENSG00000183918'
p3140
asS'V$LHX3A_01_M00510'
p3141
(lp3142
g116
asS'znf143_MA0088.1'
p3143
(lp3144
g438
asS'Nkx2-6.1'
p3145
(lp3146
g2360
asS'RUNX2_RUNX_DBD_monomeric_9_1'
p3147
(lp3148
g451
asS'E2F7_E2F_DBD_dimeric_14_1'
p3149
(lp3150
S'ENSG00000165891'
p3151
asS'Foxa2_MA0047.1'
p3152
(lp3153
g217
asS'V$AP2_Q6_01_M00915'
p3154
(lp3155
g228
asS'V$TR4_Q2_M01725'
p3156
(lp3157
g1895
asS'V$PPARA_Q6_M01282'
p3158
(lp3159
g2450
asS'V$NGFIC_01_M00244'
p3160
(lp3161
S'ENSG00000135625'
p3162
asS'V$ZFX_01_M01593'
p3163
(lp3164
S'ENSG00000005889'
p3165
asS'V$INSM1_01_M02268'
p3166
(lp3167
g1015
asS'V$AML1_01_M00271'
p3168
(lp3169
g86
asS'V$K2B_01_M01348'
p3170
(lp3171
g65
asS'V$IRF3_05_M02767'
p3172
(lp3173
g242
asS'V$SOX18_04_M02905'
p3174
(lp3175
g1221
asS'V$OSR2_04_M02889'
p3176
(lp3177
S'ENSG00000164920'
p3178
asS'V$OCT4_02_M01124'
p3179
(lp3180
g695
ag696
ag697
ag698
ag699
ag700
ag701
asS'V$CREBATF_Q6_M00981'
p3181
(lp3182
g2453
asS'V$CREBP1_01_M00040'
p3183
(lp3184
g1813
asS'V$CDPCR3_01_M00105'
p3185
(lp3186
g104
asS'V$IRF1_01_M00062'
p3187
(lp3188
g2432
asS'GSC_homeodomain_full_monomeric_10_1'
p3189
(lp3190
g266
asS'REST_MA0138.1'
p3191
(lp3192
g877
asS'MNT_bHLH_DBD_dimeric_10_1'
p3193
(lp3194
S'ENSG00000070444'
p3195
asS'Hoxc8.1'
p3196
(lp3197
g42
asS'V$SPI1_04_M02278'
p3198
(lp3199
g633
asS'LHX6_homeodomain_full_dimeric_12_1'
p3200
(lp3201
g1352
asS'SPDEF_ETS_full_putative-multimer_15_1'
p3202
(lp3203
g494
asS'Lhx3_MA0135.1'
p3204
(lp3205
g116
asS'V$PAX6_02_M01391'
p3206
(lp3207
g209
asS'USF1_MA0093.1'
p3208
(lp3209
g260
asS'Sox17_MA0078.1'
p3210
(lp3211
g159
asS'SOX18_HMG_full_dimeric_15_1'
p3212
(lp3213
g1221
asS'SOX18_HMG_full_dimeric_15_3'
p3214
(lp3215
g1221
asS'Hoxd8.1'
p3216
(lp3217
g2416
asS'LHX6_homeodomain_full_dimeric_16_1'
p3218
(lp3219
g1352
asS'KLF14_C2H2_DBD_monomeric_14_1'
p3220
(lp3221
S'ENSG00000266265'
p3222
asS'V$CETS1_02_M02063'
p3223
(lp3224
g188
asS'Zfp740_C2H2_DBD_monomeric_10_1'
p3225
(lp3226
g1432
asS'V$SF1_Q6_M00727'
p3227
(lp3228
S'ENSG00000168066'
p3229
asS'V$HMGIY_Q4_M01879'
p3230
(lp3231
g663
asS'Zfp128.1'
p3232
(lp3233
g2263
asS'Zfp128.2'
p3234
(lp3235
g2263
asS'FOXL1_forkhead_full_monomeric_7_1'
p3236
(lp3237
g1232
asS'V$ASCL2_03_M02737'
p3238
(lp3239
g1577
asS'V$SF1_Q6_01_M01132'
p3240
(lp3241
g3229
asS'V$ZIC3_01_M00450'
p3242
(lp3243
g1263
asS'V$YY1_Q6_03_M01894'
p3244
(lp3245
g2366
asS'Hmx3.1'
p3246
(lp3247
g908
asS'CUX1_CUT_DBD_dimeric_17_1'
p3248
(lp3249
g104
asS'V$VAX1_01_M01397'
p3250
(lp3251
g3102
asS'CUX1_CUT_DBD_monomeric_10_1'
p3252
(lp3253
g104
asS'TBX19_TBX_DBD_dimeric_20_1'
p3254
(lp3255
S'ENSG00000143178'
p3256
asS'NFIA_NFI_full_dimeric_15_1'
p3257
(lp3258
g263
asS'Hoxd9_homeodomain_DBD_monomeric_9_2'
p3259
(lp3260
g2540
asS'Hoxd9_homeodomain_DBD_monomeric_9_1'
p3261
(lp3262
g2540
asS'V$ZSCAN4_03_M02838'
p3263
(lp3264
g2145
asS'V$REX1_01_M01695'
p3265
(lp3266
g2349
asS'V$ISX_01_M01331'
p3267
(lp3268
g2697
asS'V$P50RELAP65_Q5_01_M01224'
p3269
(lp3270
g421
asS'ZNF524_C2H2_full_dimeric_12_1'
p3271
(lp3272
S'ENSG00000171443'
p3273
asS'TBP_MA0108.2'
p3274
(lp3275
g636
asS'V$ELK1_03_M01163'
p3276
(lp3277
g182
asS'Six1.1'
p3278
(lp3279
g2664
asS'V$PKNOX2_01_M01411'
p3280
(lp3281
g471
asS'V$MYB_Q5_01_M00913'
p3282
(lp3283
g1118
asS'V$E2F_Q2_M00803'
p3284
(lp3285
g45
asS'V$AREB6_03_M00414'
p3286
(lp3287
g718
asS'V$PR_Q2_M00960'
p3288
(lp3289
g497
asS'V$FOXA2_03_M02260'
p3290
(lp3291
g217
asS'HESX1_homeodomain_DBD_monomeric_10_1'
p3292
(lp3293
S'ENSG00000163666'
p3294
asS'V$PPARG_01_M00512'
p3295
(lp3296
g1072
asS'V$SMAD3_Q6_01_M01888'
p3297
(lp3298
g1763
asS'YY2_C2H2_full_dimeric_12_1'
p3299
(lp3300
g2333
asS'V$ZBRK1_01_M01105'
p3301
(lp3302
S'ENSG00000256683'
p3303
asS'V$BTEB3_Q5_M01865'
p3304
(lp3305
S'ENSG00000275746'
p3306
aS'ENSG00000169926'
p3307
asS'FOXC1_forkhead_DBD_dimeric_14_1'
p3308
(lp3309
g563
asS'V$DEC2_Q2_M01843'
p3310
(lp3311
S'ENSG00000123095'
p3312
asS'RUNX2_RUNX_DBD_dimeric_16_1'
p3313
(lp3314
g451
asS'V$OCAB_Q6_M02113'
p3315
(lp3316
S'ENSG00000110777'
p3317
asS'ETV6_ETS_full_monomeric_10_1'
p3318
(lp3319
g290
asS'Sox5_MA0087.1'
p3320
(lp3321
g1588
asS'V$DLX1_01_M01439'
p3322
(lp3323
g347
asS'V$SOX21_03_M02803'
p3324
(lp3325
g591
asS'V$TATA_C_M00216'
p3326
(lp3327
g636
asS'Gata5.2'
p3328
(lp3329
g2537
asS'Gata5.1'
p3330
(lp3331
g2537
asS'POU5F1P1_POU_DBD_monomeric_9_1'
p3332
(lp3333
S'ENSG00000212993'
p3334
asS'V$PITX2_Q6_M02114'
p3335
(lp3336
g9
asS'V$CREB_Q2_M00177'
p3337
(lp3338
g2453
asS'V$TFEB_01_M01768'
p3339
(lp3340
g1965
asS'V$SRY_07_M02813'
p3341
(lp3342
g639
asS'V$GATA1_01_M00075'
p3343
(lp3344
g18
asS'V$DBP_Q6_M00624'
p3345
(lp3346
g1721
asS'V$CREB_01_M00039'
p3347
(lp3348
g2453
asS'V$VDR_Q3_M00444'
p3349
(lp3350
g540
asS'SOX8_HMG_DBD_dimeric_16_1'
p3351
(lp3352
g888
asS'Mafb_MA0117.1'
p3353
(lp3354
g368
asS'V$CREB_Q4_M00178'
p3355
(lp3356
g2453
asS'RUNX3_RUNX_DBD_dimeric_16_1'
p3357
(lp3358
g356
asS'V$HIC1_06_M02867'
p3359
(lp3360
g579
asS'V$TST1_01_M00133'
p3361
(lp3362
g724
asS'V$AP1_Q2_M00173'
p3363
(lp3364
g994
asS'V$BBX_04_M02843'
p3365
(lp3366
S'ENSG00000114439'
p3367
asS'V$HNF4_Q6_01_M01031'
p3368
(lp3369
g397
asS'V$NKX24_01_M01350'
p3370
(lp3371
g3135
asS'V$ZBTB3_03_M02825'
p3372
(lp3373
g2320
asS'V$ZF5_01_M00716'
p3374
(lp3375
g2758
asS'Hmbox1.1'
p3376
(lp3377
g1987
asS'V$CDX2_Q5_01_M01659'
p3378
(lp3379
g1637
asS'STAT1_MA0137.2'
p3380
(lp3381
g557
asS'Evi1_MA0029.1'
p3382
(lp3383
g777
asS'V$ATF1_03_M02738'
p3384
(lp3385
g531
asS'Lhx8_homeodomain_DBD_monomeric_8_1'
p3386
(lp3387
g2341
asS'EBF1_EBF_full_dimeric_14_1'
p3388
(lp3389
g474
asS'V$MIF1_01_M00279'
p3390
(lp3391
S'ENSG00000010818'
p3392
asS'V$ZBP89_Q4_M01816'
p3393
(lp3394
g571
asS'PKNOX1_MEIS_DBD_dimeric_12_1'
p3395
(lp3396
g509
asS'Elf3.1'
p3397
(lp3398
g793
asS'V$EOMES_04_M02851'
p3399
(lp3400
g1143
asS'Sox11.1'
p3401
(lp3402
g1551
asS'Sox11.2'
p3403
(lp3404
g1551
asS'V$AP2GAMMA_01_M00470'
p3405
(lp3406
g2012
asS'V$GR_Q6_02_M01836'
p3407
(lp3408
g1075
asS'NKX2-3_homeodomain_full_monomeric_10_1'
p3409
(lp3410
g2607
asS'Sox13.2'
p3411
(lp3412
S'ENSG00000143842'
p3413
asS'Sox13.1'
p3414
(lp3415
g3413
asS'Creb3l2_bZIP_DBD_dimeric_12_1'
p3416
(lp3417
g124
asS'DLX6_homeodomain_DBD_monomeric_8_1'
p3418
(lp3419
S'ENSG00000006377'
p3420
asS'V$SRY_05_M02917'
p3421
(lp3422
g639
asS'V$P53_05_M01655'
p3423
(lp3424
g755
asS'Zfp691.1'
p3425
(lp3426
g214
asS'V$MSX1_01_M00394'
p3427
(lp3428
g871
asS'V$PPARG_03_M00528'
p3429
(lp3430
g1072
asS'V$TCFE2A_03_M02823'
p3431
(lp3432
g916
asS'V$RUSH1A_02_M01107'
p3433
(lp3434
S'ENSG00000071794'
p3435
asS'Klf12_C2H2_DBD_monomeric_15_1'
p3436
(lp3437
g1285
asS'NR2F1_nuclearreceptor_DBD_monomeric_13_1'
p3438
(lp3439
g39
asS'FOXD2_forkhead_DBD_dimeric_14_1'
p3440
(lp3441
g2164
asS'BHLHE41_bHLH_full_dimeric_10_1'
p3442
(lp3443
g3312
asS'ESR2_MA0258.1'
p3444
(lp3445
g353
asS'NFATC1_NFAT_full_dimeric_20_1'
p3446
(lp3447
g2814
asS'V$DR1_Q3_M00762'
p3448
(lp3449
S'ENSG00000117505'
p3450
asS'V$BSX_01_M01442'
p3451
(lp3452
g588
asS'SP4_C2H2_full_monomeric_17_1'
p3453
(lp3454
g997
asS'V$NURR1_Q3_M01269'
p3455
(lp3456
g803
asS'Mafb_bZIP_DBD_dimeric_17_1'
p3457
(lp3458
g368
asS'SOX10_HMG_full_dimeric_14_1'
p3459
(lp3460
g191
asS'V$DMRT4_01_M01149'
p3461
(lp3462
S'ENSG00000176399'
p3463
asS'Bbx.2'
p3464
(lp3465
g3367
asS'Bbx.1'
p3466
(lp3467
g3367
asS'V$HOXC11_01_M01329'
p3468
(lp3469
g201
asS'V$RORBETA_Q2_M01722'
p3470
(lp3471
S'ENSG00000198963'
p3472
asS'ONECUT2_CUT_DBD_monomeric_14_1'
p3473
(lp3474
S'ENSG00000119547'
p3475
asS'V$EWSR1FLI1_01_M02252'
p3476
(lp3477
S'ENSG00000182944'
p3478
asS'V$GLI3_01_M01596'
p3479
(lp3480
g810
asS'V$ERG_01_M01752'
p3481
(lp3482
g503
asS'KLF13_C2H2_full_monomeric_18_1'
p3483
(lp3484
g3306
ag3307
asS'V$FOXP3_Q4_M00992'
p3485
(lp3486
g2985
asS'Osr2.2'
p3487
(lp3488
g3178
asS'Osr2.1'
p3489
(lp3490
g3178
asS'V$PXR_Q2_M00964'
p3491
(lp3492
S'ENSG00000144852'
p3493
asS'Nkx1-1.1'
p3494
(lp3495
g2496
asS'V$CEBPE_Q6_M01868'
p3496
(lp3497
g341
asS'Irx5.1'
p3498
(lp3499
S'ENSG00000176842'
p3500
asS'Nkx2-5_MA0063.1'
p3501
(lp3502
g543
asS'V$IRXB3_01_M01377'
p3503
(lp3504
g1444
asS'V$BARX1_01_M01340'
p3505
(lp3506
g2503
asS'EOMES_TBX_DBD_dimeric_20_1'
p3507
(lp3508
g1143
asS'FOXD3_forkhead_DBD_dimeric_14_1'
p3509
(lp3510
g1110
asS'V$CREB_Q3_M00801'
p3511
(lp3512
g2453
asS'HNF1A_homeodomain_full_dimeric_15_1'
p3513
(lp3514
g1010
asS'Gsh2.1'
p3515
(lp3516
g269
asS'Tcf7l2.2'
p3517
(lp3518
g1611
asS'V$AIRE_01_M00999'
p3519
(lp3520
g684
asS'V$ARID5A_04_M02840'
p3521
(lp3522
g2796
asS'FOXC2_forkhead_DBD_dimeric_14_1'
p3523
(lp3524
S'ENSG00000176692'
p3525
asS'Etv4.1'
p3526
(lp3527
g742
asS'V$HNF3_Q6_M00791'
p3528
(lp3529
g721
asS'V$AR_Q2_M00447'
p3530
(lp3531
g537
asS'V$MEF2A_Q6_M02024'
p3532
(lp3533
g1691
asS'Cdx1.1'
p3534
(lp3535
g2508
asS'TBX15_TBX_DBD_dimeric_19_1'
p3536
(lp3537
g2280
asS'V$SOX10_Q6_01_M02116'
p3538
(lp3539
g191
asS'V$HOXD12_01_M01380'
p3540
(lp3541
g1632
asS'V$ELF5_04_M02241'
p3542
(lp3543
g1133
asS'V$ERR3_Q2_M02000'
p3544
(lp3545
g147
asS'TFAP2A_TFAP_DBD_dimeric_13_1'
p3546
(lp3547
g228
asS'Barhl1_homeodomain_DBD_monomeric_10_1'
p3548
(lp3549
g2054
asS'PROP1_homeodomain_full_dimeric_11_1'
p3550
(lp3551
g1624
ag1625
ag1626
asS'Barx1.1'
p3552
(lp3553
g2503
asS'Elk1.1'
p3554
(lp3555
g182
asS'SOX21_HMG_DBD_dimeric_13_2'
p3556
(lp3557
g591
asS'Hoxa11.1'
p3558
(lp3559
g2297
asS'V$PBX1_Q3_M02028'
p3560
(lp3561
g138
asS'V$ESR1_01_M02261'
p3562
(lp3563
g821
asS'Lhx2.1'
p3564
(lp3565
g1799
asS'Hoxc6.1'
p3566
(lp3567
g413
asS'V$SP1_01_M00008'
p3568
(lp3569
g1055
asS'FEV_ETS_DBD_monomeric_10_1'
p3570
(lp3571
g839
asS'V$PROP1_02_M01320'
p3572
(lp3573
g1624
ag1625
ag1626
asS'Dlx1_homeodomain_DBD_monomeric_8_1'
p3574
(lp3575
g347
asS'RARA_nuclearreceptor_DBD_dimeric_18_2'
p3576
(lp3577
g1087
asS'V$FXR_Q3_M00631'
p3578
(lp3579
g1993
asS'POU6F2_POU_DBD_dimeric_16_1'
p3580
(lp3581
g3005
asS'NR3C1_MA0113.1'
p3582
(lp3583
g1075
asS'ESX1_homeodomain_full_monomeric_10_1'
p3584
(lp3585
g1201
asS'V$FOXP1_01_M00987'
p3586
(lp3587
S'ENSG00000114861'
p3588
asS'Alx4.1'
p3589
(lp3590
g1621
asS'V$E2F2_03_M02742'
p3591
(lp3592
g758
ag759
asS'TFAP2A_TFAP_DBD_dimeric_11_1'
p3593
(lp3594
g228
asS'POU4F3_POU_DBD_monomeric_16_1'
p3595
(lp3596
g2325
asS'V$IRF4_04_M02872'
p3597
(lp3598
g2899
asS'HIC2_C2H2_DBD_monomeric_9_1'
p3599
(lp3600
S'ENSG00000169635'
p3601
asS'NR2F1_MA0017.1'
p3602
(lp3603
g39
asS'V$ZNF333_01_M01230'
p3604
(lp3605
S'ENSG00000160961'
p3606
asS'V$NR3C1_01_M02219'
p3607
(lp3608
g1075
asS'V$HNF4A_04_M02764'
p3609
(lp3610
g397
asS'Tcf21_bHLH_DBD_dimeric_14_1'
p3611
(lp3612
S'ENSG00000118526'
p3613
asS'Sox7.1'
p3614
(lp3615
g1959
asS'V$IPF1_02_M01234'
p3616
(lp3617
g65
asS'Sox7.2'
p3618
(lp3619
g1959
asS'RORA_nuclearreceptor_DBD_dimeric_19_1'
p3620
(lp3621
g1614
asS'V$YY1_02_M00069'
p3622
(lp3623
g2366
asS'V$CMYB_Q5_M01821'
p3624
(lp3625
g1118
asS'Cutl1.1'
p3626
(lp3627
g104
asS'Cutl1.2'
p3628
(lp3629
g104
asS'ELK1_MA0028.1'
p3630
(lp3631
g182
asS'Mafb_bZIP_DBD_dimeric_18_1'
p3632
(lp3633
g368
asS'GMEB2_SAND_DBD_dimer-of-dimers_14_1'
p3634
(lp3635
g1822
asS'V$ERM_01_M01992'
p3636
(lp3637
g6
asS'V$NFAT2_01_M01748'
p3638
(lp3639
g2814
asS'V$CREB1_01_M02279'
p3640
(lp3641
g2453
asS'V$EGR2_Q6_M02092'
p3642
(lp3643
g2049
asS'FOXI1_forkhead_full_dimeric_17_1'
p3644
(lp3645
S'ENSG00000168269'
p3646
asS'HOXC13_homeodomain_DBD_monomeric_11_1'
p3647
(lp3648
g1113
asS'V$VMAF_01_M00035'
p3649
(lp3650
g239
asS'V$EBF1_01_M02267'
p3651
(lp3652
g474
asS'V$BCL6_Q3_01_M02085'
p3653
(lp3654
g83
asS'V$SAP1A_01_M01167'
p3655
(lp3656
g3140
asS'POU2F2_POU_DBD_monomeric_11_1'
p3657
(lp3658
g1456
asS'V$EVX2_01_M01386'
p3659
(lp3660
g1393
asS'Smad3.1'
p3661
(lp3662
g1763
asS'POU2F3_POU_DBD_monomeric_9_1'
p3663
(lp3664
g786
asS'MTF1_C2H2_DBD_monomeric_14_1'
p3665
(lp3666
g378
asS'V$OC2_Q3_M02112'
p3667
(lp3668
g3475
asS'Dbx2.1'
p3669
(lp3670
g1061
asS'POU5F1P1_POU_DBD_monomeric_12_1'
p3671
(lp3672
g3334
asS'V$ATF1_Q6_01_M01861'
p3673
(lp3674
g531
asS'V$CETS1_01_M01986'
p3675
(lp3676
g188
asS'FIGLA_bHLH_DBD_dimeric_10_1'
p3677
(lp3678
S'ENSG00000183733'
p3679
asS'Tcf2.1'
p3680
(lp3681
g1955
ag1956
asS'Zic3.2'
p3682
(lp3683
g1263
asS'POU2F1_POU_DBD_dimeric_14_1'
p3684
(lp3685
g597
asS'Nr2f2.2'
p3686
(lp3687
g1694
asS'Nr2f2.1'
p3688
(lp3689
g1694
asS'V$E4F1_Q6_M00694'
p3690
(lp3691
S'ENSG00000167967'
p3692
asS'Alx4_homeodomain_DBD_dimeric_13_1'
p3693
(lp3694
g1621
asS'V$AML_Q6_M00769'
p3695
(lp3696
g86
asS'REST_MA0138.2'
p3697
(lp3698
g877
asS'Zic1.2'
p3699
(lp3700
g830
asS'Zic1.1'
p3701
(lp3702
g830
asS'V$ETS2_Q6_M01207'
p3703
(lp3704
g1196
asS'Pax6_MA0069.1'
p3705
(lp3706
g209
asS'V$STAT1STAT1_Q3_M01212'
p3707
(lp3708
g557
asS'V$CETS1P54_02_M00074'
p3709
(lp3710
g188
asS'V$IRF2_Q6_M01882'
p3711
(lp3712
g92
asS'Hic1.1'
p3713
(lp3714
g579
asS'FOXC2_forkhead_DBD_dimeric_11_1'
p3715
(lp3716
g3525
asS'V$CBF_01_M01079'
p3717
(lp3718
g257
asS'V$NRSF_01_M00256'
p3719
(lp3720
g877
asS'RFX2_RFX_DBD_dimeric_16_1'
p3721
(lp3722
g1092
asS'Pou4f3.1'
p3723
(lp3724
g2325
asS'V$E2F_Q3_01_M00918'
p3725
(lp3726
g45
asS'V$HIF1_Q3_M00797'
p3727
(lp3728
g1066
asS'FOXO1_forkhead_DBD_monomeric_8_1'
p3729
(lp3730
g110
asS'Esrra.1'
p3731
(lp3732
g1080
asS'Esrra.2'
p3733
(lp3734
g1080
asS'Arnt_MA0004.1'
p3735
(lp3736
g2040
asS'V$GR_Q6_01_M00921'
p3737
(lp3738
g1075
asS'ZNF435_C2H2_full_dimeric_18_1'
p3739
(lp3740
S'ENSG00000196812'
p3741
asS'V$ELF2_02_M02054'
p3742
(lp3743
g164
asS'GMEB2_SAND_DBD_dimer-of-dimers_15_1'
p3744
(lp3745
g1822
asS'Glis2.1'
p3746
(lp3747
g584
ag585
asS'Glis2.2'
p3748
(lp3749
g584
ag585
asS'RXRA_nuclearreceptor_DBD_dimeric_14_2'
p3750
(lp3751
g549
asS'V$NR1B2_Q6_M02111'
p3752
(lp3753
g1463
asS'V$TAL1ALPHAE47_01_M00066'
p3754
(lp3755
g627
asS'V$FOXK1_04_M02856'
p3756
(lp3757
g2378
asS'Rfxdc2.2'
p3758
(lp3759
g1931
asS'NRF1_NRF_full_dimeric_12_1'
p3760
(lp3761
S'ENSG00000106459'
p3762
asS'V$SAP1A_03_M02058'
p3763
(lp3764
g3140
asS'NRL_bZIP_DBD_monomeric_11_1'
p3765
(lp3766
S'ENSG00000129535'
p3767
asS'V$DMRT7_01_M01151'
p3768
(lp3769
S'ENSG00000142025'
p3770
asS'V$SOX_Q6_M01014'
p3771
(lp3772
g1435
asS'Erg.1'
p3773
(lp3774
g503
asS'V$OTX_Q1_M01117'
p3775
(lp3776
g381
asS'V$TBX22_01_M01195'
p3777
(lp3778
S'ENSG00000277800'
p3779
aS'ENSG00000122145'
p3780
asS'V$OCT1_01_M00135'
p3781
(lp3782
g597
asS'Foxj3.1'
p3783
(lp3784
g752
asS'V$SMAD3_Q6_M00701'
p3785
(lp3786
g1763
asS'MYBL1_MYB_DBD_monomeric_11_1'
p3787
(lp3788
g818
asS'V$STAT1_01_M00224'
p3789
(lp3790
g557
asS'V$SPDEF_04_M02915'
p3791
(lp3792
g494
asS'V$SPI1_01_M01203'
p3793
(lp3794
g633
asS'Phox2a.1'
p3795
(lp3796
g2109
asS'Pou2f2_POU_DBD_dimeric_14_1'
p3797
(lp3798
g1456
asS'NKX6-2_homeodomain_full_monomeric_8_1'
p3799
(lp3800
S'ENSG00000148826'
p3801
asS'V$FRA1_Q6_M02095'
p3802
(lp3803
S'ENSG00000175592'
p3804
asS'V$EVX1_01_M01475'
p3805
(lp3806
S'ENSG00000106038'
p3807
asS'V$IRX2_01_M01405'
p3808
(lp3809
g1519
asS'HOXB13_homeodomain_DBD_monomeric_11_1'
p3810
(lp3811
g1977
asS'Otx2.1'
p3812
(lp3813
g89
asS'V$ARNT_02_M00539'
p3814
(lp3815
g2040
asS'Foxj3_forkhead_DBD_putatively-multimeric_11_1'
p3816
(lp3817
g752
asS'Tgif2.1'
p3818
(lp3819
g1468
asS'FLI1_ETS_full_monomeric_14_1'
p3820
(lp3821
g896
asS'V$FOXM1_01_M00630'
p3822
(lp3823
S'ENSG00000111206'
p3824
asS'V$TR4_01_M01776'
p3825
(lp3826
g1895
asS'Fli1.1'
p3827
(lp3828
g896
asS'V$BACH2_01_M00490'
p3829
(lp3830
S'ENSG00000112182'
p3831
asS'Meox1.1'
p3832
(lp3833
g2950
asS'V$NRF2_01_M00108'
p3834
(lp3835
g1307
asS'V$HNF4_01_M00134'
p3836
(lp3837
g397
asS'V$PU1_Q6_M00658'
p3838
(lp3839
g633
asS'V$SRF_C_M00215'
p3840
(lp3841
g350
asS'V$HSF2_02_M01244'
p3842
(lp3843
S'ENSG00000025156'
p3844
asS'POU4F2_POU_full_monomeric_16_1'
p3845
(lp3846
S'ENSG00000151615'
p3847
asS'V$MSX1_02_M01412'
p3848
(lp3849
g871
asS'V$HOXC4_01_M01369'
p3850
(lp3851
S'ENSG00000198353'
p3852
asS'HOXD8_homeodomain_DBD_monomeric_10_1'
p3853
(lp3854
g2416
asS'Hltf_MA0109.1'
p3855
(lp3856
g3435
asS'ELF3_ETS_full_monomeric_13_1'
p3857
(lp3858
g793
asS'ELF5_MA0136.1'
p3859
(lp3860
g1133
asS'CTCF_C2H2_full_monomeric_17_1'
p3861
(lp3862
g2122
asS'Zscan4.2'
p3863
(lp3864
g2145
asS'V$CDPCR1_01_M00104'
p3865
(lp3866
g104
asS'ARID3A_MA0151.1'
p3867
(lp3868
g713
asS'V$P53_DECAMER_Q2_M00761'
p3869
(lp3870
g755
asS'V$PXRRXR_01_M01152'
p3871
(lp3872
g549
asS'V$MEF2_01_M00006'
p3873
(lp3874
g1691
asS'TBX15_TBX_DBD_monomeric_8_1'
p3875
(lp3876
g2280
asS'Hoxd3_homeodomain_DBD_monomeric_10_1'
p3877
(lp3878
g919
asS'Pitx2.1'
p3879
(lp3880
g9
asS'V$SIX6_02_M01398'
p3881
(lp3882
g287
asS'V$AR_01_M00481'
p3883
(lp3884
g537
asS'FOXI1_forkhead_full_monomeric_7_1'
p3885
(lp3886
g3646
asS'V$HOXA2_01_M01402'
p3887
(lp3888
g150
asS'V$BCL6_02_M01185'
p3889
(lp3890
g83
asS'HOXB13_homeodomain_DBD_monomeric_10_1'
p3891
(lp3892
g1977
asS'IRF3_IRF_full_trimeric_21_1'
p3893
(lp3894
g242
asS'MYBL1_MYB_DBD_dimeric_17_1'
p3895
(lp3896
g818
asS'V$GM397_03_M02760'
p3897
(lp3898
g2145
asS'V$HNF3A_01_M01261'
p3899
(lp3900
g721
asS'OTX2_homeodomain_DBD_monomeric_8_1'
p3901
(lp3902
g89
asS'Hoxa3.1'
p3903
(lp3904
g3037
asS'Hoxa3.2'
p3905
(lp3906
g3037
asS'Hoxa3.3'
p3907
(lp3908
g3037
asS'V$AP1_Q6_M00174'
p3909
(lp3910
g994
asS'ZBTB7B_C2H2_full_monomeric_12_1'
p3911
(lp3912
g983
asS'ZNF282_C2H2_DBD_monomeric_17_1'
p3913
(lp3914
S'ENSG00000170265'
p3915
asS'GCM2_GCM_DBD_monomeric_10_1'
p3916
(lp3917
S'ENSG00000124827'
p3918
asS'V$CAP_01_M00253'
p3919
(lp3920
S'ENSG00000141867'
p3921
asS'Hoxa1.1'
p3922
(lp3923
g80
asS'Dlx4.1'
p3924
(lp3925
S'ENSG00000108813'
p3926
asS'V$IRF6_03_M02770'
p3927
(lp3928
g2886
asS'V$IK3_01_M00088'
p3929
(lp3930
S'ENSG00000161405'
p3931
asS'Zbtb7b.2'
p3932
(lp3933
g983
asS'V$ERF_02_M02061'
p3934
(lp3935
g2811
asS'HOXD13_homeodomain_DBD_monomeric_11_1'
p3936
(lp3937
g939
asS'EN1_homeodomain_DBD_monomeric_10_1'
p3938
(lp3939
g1255
asS'Smad3.2'
p3940
(lp3941
g1763
asS'HOXC11_homeodomain_DBD_monomeric_11_1'
p3942
(lp3943
g201
asS'PAX2_PAX_DBD_monomeric_18_1'
p3944
(lp3945
g416
asS'ZNF238_C2H2_full_monomeric_13_1'
p3946
(lp3947
g3012
asS'V$SPIB_01_M01204'
p3948
(lp3949
g127
asS'V$IRX5_01_M01472'
p3950
(lp3951
g3500
asS'RXRG_nuclearreceptor_DBD_dimeric_14_2'
p3952
(lp3953
S'ENSG00000143171'
p3954
asS'V$AP2ALPHA_02_M01045'
p3955
(lp3956
g228
asS'GLIS2_C2H2_DBD_monomeric_14_1'
p3957
(lp3958
g584
ag585
asS'EVX1_homeodomain_DBD_monomeric_10_1'
p3959
(lp3960
g3807
asS'V$ERF_01_M01984'
p3961
(lp3962
g2811
asS'V$TCFAP2A_03_M02819'
p3963
(lp3964
g228
asS'CEBPA_MA0102.2'
p3965
(lp3966
g254
asS'MAFK_bZIP_DBD_dimeric_21_1'
p3967
(lp3968
g179
asS'V$IK1_01_M00086'
p3969
(lp3970
g621
asS'V$TCFAP2E_04_M02926'
p3971
(lp3972
S'ENSG00000116819'
p3973
asS'V$NR1B1_Q6_M02110'
p3974
(lp3975
g1087
asS'V$STAT3STAT3_Q3_M01220'
p3976
(lp3977
g1654
asS'V$E4F1_Q6_01_M02091'
p3978
(lp3979
g3692
asS'V$TBR2_01_M01774'
p3980
(lp3981
g1143
asS'Pou3f4.1'
p3982
(lp3983
g2679
asS'V$BRN4_01_M01473'
p3984
(lp3985
g2679
asS'V$NMYC_01_M00055'
p3986
(lp3987
g1373
asS'SRY_HMG_DBD_dimeric_16_1'
p3988
(lp3989
g639
asS'Eomes.1'
p3990
(lp3991
g1143
asS'Eomes.2'
p3992
(lp3993
g1143
asS'Barhl1.1'
p3994
(lp3995
g2054
asS'FOXO3_forkhead_full_putatively-multimeric_11_1'
p3996
(lp3997
g299
asS'V$PREP1_01_M01459'
p3998
(lp3999
g509
asS'Alx3.1'
p4000
(lp4001
g95
asS'Sox21.1'
p4002
(lp4003
g591
asS'V$MYCMAX_01_M00118'
p4004
(lp4005
g144
asS'V$BBX_03_M02739'
p4006
(lp4007
g3367
asS'Sox21.2'
p4008
(lp4009
g591
asS'V$NKX61_01_M00424'
p4010
(lp4011
g1212
asS'Pou6f1.2'
p4012
(lp4013
g1260
asS'RAX_homeodomain_DBD_monomeric_10_1'
p4014
(lp4015
g2062
asS'V$BCL6_01_M01183'
p4016
(lp4017
g83
asS'PHOX2A_homeodomain_DBD_dimeric_11_1'
p4018
(lp4019
g2109
asS'Six6.2'
p4020
(lp4021
g287
asS'Six6.3'
p4022
(lp4023
g287
asS'Sp4.1'
p4024
(lp4025
g997
asS'Sp4.2'
p4026
(lp4027
g997
asS'Zfp410.1'
p4028
(lp4029
g71
asS'RHOXF1_homeodomain_full_dimeric_9_1'
p4030
(lp4031
g885
asS'V$MEIS2_01_M01488'
p4032
(lp4033
g2194
asS'Zfp410.2'
p4034
(lp4035
g71
asS'V$ISL1_Q6_M01127'
p4036
(lp4037
S'ENSG00000016082'
p4038
asS'Hoxa2_homeodomain_DBD_monomeric_10_1'
p4039
(lp4040
g150
asS'V$PIT1_01_M01465'
p4041
(lp4042
g1802
asS'V$TCF3_04_M02816'
p4043
(lp4044
g916
asS'V$ERG_03_M02062'
p4045
(lp4046
g503
asS'FEV_MA0156.1'
p4047
(lp4048
g839
asS'V$ER81_01_M01987'
p4049
(lp4050
g1706
asS'Hoxa9.1'
p4051
(lp4052
g1191
asS'V$TTF1_Q6_M00794'
p4053
(lp4054
g2686
asS'V$TEL1_02_M02070'
p4055
(lp4056
g290
asS'RARG_nuclearreceptor_full_dimeric_17_1'
p4057
(lp4058
g989
asS'DLX3_homeodomain_DBD_monomeric_8_1'
p4059
(lp4060
g560
asS'VENTX_homeodomain_DBD_dimeric_21_1'
p4061
(lp4062
g1651
asS'V$HOXA6_01_M01392'
p4063
(lp4064
g59
asS'V$ZIC1_04_M02835'
p4065
(lp4066
g830
asS'NR2F1_nuclearreceptor_DBD_dimeric_16_1'
p4067
(lp4068
g39
asS'V$SOX18_03_M02801'
p4069
(lp4070
g1221
asS'Prrx2.1'
p4071
(lp4072
g371
asS'V$FOXJ1_03_M02750'
p4073
(lp4074
S'ENSG00000129654'
p4075
asS'V$VDR_Q6_M00961'
p4076
(lp4077
g540
asS'Hbp1.1'
p4078
(lp4079
g1146
ag1147
asS'V$HNF4_Q6_M00967'
p4080
(lp4081
g397
asS'V$TEF1_Q6_03_M01817'
p4082
(lp4083
g1909
asS'V$ZIC1_01_M00448'
p4084
(lp4085
g830
asS'TBX1_TBX_DBD_dimeric_19_1'
p4086
(lp4087
g225
asS'V$RPC155_01_M01798'
p4088
(lp4089
S'ENSG00000148606'
p4090
asS'Tcf7l2.1'
p4091
(lp4092
g1611
asS'V$E2F1_01_M01250'
p4093
(lp4094
g45
asS'V$NANOG_01_M01123'
p4095
(lp4096
g1914
asS'V$PET1_02_M02072'
p4097
(lp4098
g839
asS'RARG_nuclearreceptor_full_dimeric_18_1'
p4099
(lp4100
g989
asS'V$ARID3A_02_M02839'
p4101
(lp4102
g713
asS'ESRRG_nuclearreceptor_full_monomeric_10_1'
p4103
(lp4104
g147
asS'HOXB3_homeodomain_DBD_monomeric_10_1'
p4105
(lp4106
g605
asS'V$TBP_06_M02814'
p4107
(lp4108
g636
asS'NFIX_NFI_full_dimeric_15_2'
p4109
(lp4110
g1179
asS'Arx.1'
p4111
(lp4112
S'ENSG00000004848'
p4113
asS'MYBL2_MYB_DBD_dimeric_15_1'
p4114
(lp4115
g1711
asS'Gata6.2'
p4116
(lp4117
g654
asS'V$GATA3_02_M00350'
p4118
(lp4119
g491
asS'V$AR_Q6_01_M01996'
p4120
(lp4121
g537
asS'V$STAT_01_M00223'
p4122
(lp4123
g557
asS'V$ATF_B_M00338'
p4124
(lp4125
g531
asS'SP8_C2H2_DBD_monomeric_12_1'
p4126
(lp4127
S'ENSG00000164651'
p4128
asS'IRF9_IRF_full_trimeric_15_1'
p4129
(lp4130
g428
asS'V$PPARG_02_M00515'
p4131
(lp4132
g1072
asS'RFX4_RFX_DBD_dimeric_16_1'
p4133
(lp4134
g1157
asS'HOXD11_homeodomain_DBD_monomeric_10_2'
p4135
(lp4136
g1984
asS'HOXD11_homeodomain_DBD_monomeric_10_1'
p4137
(lp4138
g1984
asS'ETS1_MA0098.1'
p4139
(lp4140
g188
asS'Bhlhb2_bHLH_DBD_monomeric_10_1'
p4141
(lp4142
g2085
asS'V$ZFP281_05_M02935'
p4143
(lp4144
g206
asS'EN1_homeodomain_full_monomeric_8_1'
p4145
(lp4146
g1255
asS'POU3F2_POU_DBD_monomeric_13_1'
p4147
(lp4148
g113
asS'V$CHOP_01_M00249'
p4149
(lp4150
S'ENSG00000175197'
p4151
asS'ALX3_homeodomain_full_monomeric_10_1'
p4152
(lp4153
g95
asS'V$SOX1_03_M02802'
p4154
(lp4155
g1435
asS'V$SIRT6_01_M01797'
p4156
(lp4157
S'ENSG00000077463'
p4158
asS'FOXO1_forkhead_DBD_putatively-multimeric_12_1'
p4159
(lp4160
g110
asS'V$LEF1TCF1_Q4_M00978'
p4161
(lp4162
g1010
asS'V$ARX_02_M02945'
p4163
(lp4164
g4113
asS'GATA2_MA0036.1'
p4165
(lp4166
g176
asS'V$FLI1_Q6_M01208'
p4167
(lp4168
g896
asS'IRF4_IRF_full_dimeric_15_1'
p4169
(lp4170
g2899
asS'V$FOXJ3_06_M02855'
p4171
(lp4172
g752
asS'ESRRB_nuclearreceptor_DBD_monomeric_11_1'
p4173
(lp4174
S'ENSG00000119715'
p4175
asS'V$RSRFC4_Q2_M00407'
p4176
(lp4177
g1691
asS'V$FOXA2_02_M02853'
p4178
(lp4179
g217
asS'V$GATA1_05_M00346'
p4180
(lp4181
g18
asS'V$HB9_01_M01349'
p4182
(lp4183
g486
asS'V$EMX2_01_M01461'
p4184
(lp4185
g305
asS'V$HOXB8_01_M01451'
p4186
(lp4187
g394
asS'V$MTF1_06_M02882'
p4188
(lp4189
g378
asS'BSX_homeodomain_DBD_monomeric_8_1'
p4190
(lp4191
g588
asS'V$OSR2_03_M02785'
p4192
(lp4193
g3178
asS'V$NRF2_Q4_M00821'
p4194
(lp4195
g1307
asS'V$ARID3A_04_M02735'
p4196
(lp4197
g713
asS'ZBTB7A_C2H2_DBD_monomeric_12_1'
p4198
(lp4199
g3034
asS'NKX2-8_homeodomain_full_monomeric_9_1'
p4200
(lp4201
g2344
asS'V$DMRT3_01_M01148'
p4202
(lp4203
S'ENSG00000064218'
p4204
asS'V$GADP_01_M01258'
p4205
(lp4206
g1542
asS'BCL6B_C2H2_DBD_monomeric_17_1'
p4207
(lp4208
g767
asS'V$LBP1_Q6_M00644'
p4209
(lp4210
g1972
asS'CREB3L1_bZIP_full_dimeric_12_1'
p4211
(lp4212
g1867
asS'V$HFH4_01_M00742'
p4213
(lp4214
g4075
asS'MEIS2_MEIS_DBD_monomeric_8_1'
p4215
(lp4216
g2194
asS'HSF1_HSF_full_trimeric_13_1'
p4217
(lp4218
g1278
asS'ZIC4_C2H2_DBD_monomeric_15_1'
p4219
(lp4220
S'ENSG00000174963'
p4221
asS'Zfp691.2'
p4222
(lp4223
g214
asS'GABPA_ETS_full_monomeric_10_1'
p4224
(lp4225
g1542
asS'V$NKX22_02_M01372'
p4226
(lp4227
g727
asS'V$SREBP1_01_M00220'
p4228
(lp4229
g868
asS'IRF1_MA0050.1'
p4230
(lp4231
g2432
asS'V$ELF5_01_M01197'
p4232
(lp4233
g1133
asS'FOXC2_forkhead_DBD_monomeric_12_1'
p4234
(lp4235
g3525
asS'V$PEA3_01_M01991'
p4236
(lp4237
g742
asS'ETS1_ETS_full_monomeric_10_1'
p4238
(lp4239
g188
asS'V$AP2ALPHA_03_M01047'
p4240
(lp4241
g228
asS'V$PAX3_B_M00327'
p4242
(lp4243
g2071
asS'Nkx6-3.1'
p4244
(lp4245
S'ENSG00000165066'
p4246
asS'POU3F3_POU_DBD_dimeric_12_1'
p4247
(lp4248
g331
asS'Gabpa.2'
p4249
(lp4250
g1542
asS'V$IRF8_Q6_M01665'
p4251
(lp4252
g986
asS'V$AREB6_04_M00415'
p4253
(lp4254
g718
asS'HOXC12_homeodomain_DBD_monomeric_9_1'
p4255
(lp4256
g594
asS'POU2F3_POU_DBD_dimeric_12_1'
p4257
(lp4258
g786
asS'Gbx1.1'
p4259
(lp4260
g1872
asS'HMBOX1_homeodomain_DBD_monomeric_10_1'
p4261
(lp4262
g1987
asS'V$GABPBETA_Q3_M01876'
p4263
(lp4264
S'ENSG00000104064'
p4265
asS'SOX7_HMG_full_dimeric_17_1'
p4266
(lp4267
g1959
asS'Sox1_HMG_DBD_dimeric_13_1'
p4268
(lp4269
g1435
asS'V$TCF11MAFG_01_M00284'
p4270
(lp4271
g1917
asS'V$ELF4_04_M02850'
p4272
(lp4273
g945
asS'GSC2_homeodomain_DBD_monomeric_10_1'
p4274
(lp4275
S'ENSG00000063515'
p4276
asS'NFYA_MA0060.1'
p4277
(lp4278
g249
asS'V$PPARGRXRA_01_M02262'
p4279
(lp4280
g1072
asS'V$MAF_Q6_M00648'
p4281
(lp4282
g239
asS'V$NFE2_01_M00037'
p4283
(lp4284
S'ENSG00000123405'
p4285
asS'V$EAR2_Q2_M01728'
p4286
(lp4287
g2771
asS'V$RAX_01_M01389'
p4288
(lp4289
g2062
asS'GCM1_GCM_full_dimeric_16_1'
p4290
(lp4291
g274
asS'V$ERR2_01_M01589'
p4292
(lp4293
g4175
asS'V$RXRA_03_M02791'
p4294
(lp4295
g549
asS'HOXC10_homeodomain_DBD_monomeric_10_3'
p4296
(lp4297
g671
asS'MESP1_bHLH_DBD_dimeric_10_1'
p4298
(lp4299
S'ENSG00000166823'
p4300
asS'IRF8_IRF_full_dimeric_14_1'
p4301
(lp4302
g986
asS'V$IRF5_03_M02769'
p4303
(lp4304
g1568
asS'HLF_bZIP_full_dimeric_12_1'
p4305
(lp4306
g2840
asS'V$HBP1_04_M02866'
p4307
(lp4308
g1146
ag1147
asS'V$CDP_04_M01344'
p4309
(lp4310
g104
asS'V$CDC5_01_M00478'
p4311
(lp4312
S'ENSG00000096401'
p4313
asS'V$HOXB6_01_M01460'
p4314
(lp4315
g313
asS'ZSCAN4_C2H2_full_monomeric_15_1'
p4316
(lp4317
g2145
asS'V$MYF_01_M01302'
p4318
(lp4319
g893
asS'Mafb_bZIP_DBD_monomeric_12_1'
p4320
(lp4321
g368
asS'V$RXRLXRB_01_M01198'
p4322
(lp4323
g549
asS'V$MEF2_03_M00232'
p4324
(lp4325
g1691
asS'Klf4_MA0039.2'
p4326
(lp4327
g98
asS'REL_MA0101.1'
p4328
(lp4329
g2338
asS'V$MYB_05_M02779'
p4330
(lp4331
g1118
asS'V$IRF4_Q6_M01883'
p4332
(lp4333
g2899
asS'CTCF_MA0139.1'
p4334
(lp4335
g2122
asS'V$BCL6B_04_M02844'
p4336
(lp4337
g767
asS'V$IPF1_Q4_01_M01013'
p4338
(lp4339
g65
asS'V$TCF11_01_M00285'
p4340
(lp4341
S'ENSG00000082641'
p4342
asS'V$SOX2_Q6_M01272'
p4343
(lp4344
g410
asS'EGR1_C2H2_full_monomeric_14_1'
p4345
(lp4346
g574
asS'V$SOX15_03_M02799'
p4347
(lp4348
g119
asS'V$IRF6_04_M02874'
p4349
(lp4350
g2886
asS'RFX5_RFX_DBD_dimeric_16_3'
p4351
(lp4352
S'ENSG00000143390'
p4353
asS'DLX1_homeodomain_DBD_monomeric_10_1'
p4354
(lp4355
g347
asS'ZIC1_C2H2_full_monomeric_14_1'
p4356
(lp4357
g830
asS'PAX9_PAX_DBD_monomeric_17_1'
p4358
(lp4359
g948
asS'V$POU1F1_Q6_M00744'
p4360
(lp4361
g1802
asS'V$S8_01_M00099'
p4362
(lp4363
g371
asS'Rfx4.1'
p4364
(lp4365
g1157
asS'V$DLX3_02_M02051'
p4366
(lp4367
g560
asS'V$AP3_Q6_M00690'
p4368
(lp4369
g1037
asS'V$TCF1_07_M02919'
p4370
(lp4371
g1010
asS'V$IRF_Q6_01_M00972'
p4372
(lp4373
g2432
asS'V$WT1_Q6_M01118'
p4374
(lp4375
g2249
asS'V$NR2F2_04_M02887'
p4376
(lp4377
g1694
asS'Creb5_bZIP_DBD_dimeric_12_1'
p4378
(lp4379
S'ENSG00000146592'
p4380
asS'V$KAISO_01_M01119'
p4381
(lp4382
S'ENSG00000177485'
p4383
asS'V$MEF2_04_M00233'
p4384
(lp4385
g1691
asS'V$ZFP410_04_M02936'
p4386
(lp4387
g71
asS'V$ZBTB12_04_M02928'
p4388
(lp4389
g2480
ag2481
ag2482
ag2483
ag2484
asS'V$VJUN_01_M00036'
p4390
(lp4391
g994
asS'RUNX2_RUNX_DBD_dimeric_18_1'
p4392
(lp4393
g451
asS'RREB1_MA0073.1'
p4394
(lp4395
S'ENSG00000124782'
p4396
asS'V$GATA5_04_M02860'
p4397
(lp4398
g2537
asS'FOXD3_forkhead_DBD_monomeric_7_1'
p4399
(lp4400
g1110
asS'V$AP2GAMMA_Q5_M01859'
p4401
(lp4402
g2012
asS'V$NMYC_02_M01808'
p4403
(lp4404
g1373
asS'Pax5_MA0014.1'
p4405
(lp4406
g618
asS'V$STAT5A_01_M00457'
p4407
(lp4408
g101
asS'MGA_TBX_DBD_monomeric_8_1'
p4409
(lp4410
S'ENSG00000174197'
p4411
asS'V$CMYB_01_M00004'
p4412
(lp4413
g1118
asS'V$SRY_01_M00148'
p4414
(lp4415
g639
asS'Sox1_HMG_DBD_dimeric_14_1'
p4416
(lp4417
g1435
asS'V$HNF4_01_B_M00411'
p4418
(lp4419
g397
asS'Bhlhb2_bHLH_DBD_dimeric_10_1'
p4420
(lp4421
g2085
asS'V$ZFP187_03_M02830'
p4422
(lp4423
g1102
asS'V$FOXK1_03_M02752'
p4424
(lp4425
g2378
asS'NFATC2_MA0152.1'
p4426
(lp4427
S'ENSG00000101096'
p4428
asS'BARX1_homeodomain_DBD_monomeric_8_1'
p4429
(lp4430
g2503
asS'V$IRF4_03_M02768'
p4431
(lp4432
g2899
asS'HSF2_HSF_DBD_trimeric_13_1'
p4433
(lp4434
g3844
asS'V$RFX4_03_M02789'
p4435
(lp4436
g1157
asS'Hoxd10.1'
p4437
(lp4438
g3002
asS'Tcfap2e.1'
p4439
(lp4440
g3973
asS'Tcfap2e.2'
p4441
(lp4442
g3973
asS'V$AP1_Q4_01_M00926'
p4443
(lp4444
g994
asS'V$TFIII_Q6_M00706'
p4445
(lp4446
S'ENSG00000263001'
p4447
asS'Tcfap2c.2'
p4448
(lp4449
g2012
asS'Hoxd12.1'
p4450
(lp4451
g1632
asS'Tcfap2c.1'
p4452
(lp4453
g2012
asS'V$NFKB_Q6_01_M00774'
p4454
(lp4455
g421
asS'Og2x.1'
p4456
(lp4457
g365
asS'Mtf1.1'
p4458
(lp4459
g378
asS'V$GATA1_02_M00126'
p4460
(lp4461
g18
asS'V$SOX5_01_M00042'
p4462
(lp4463
g1588
asS'V$NKX32_01_M01181'
p4464
(lp4465
g523
asS'V$PAX2_02_M00486'
p4466
(lp4467
g416
asS'Arx_homeodomain_DBD_dimeric_13_1'
p4468
(lp4469
g4113
asS'FOXG1_forkhead_DBD_putatively-multimeric_12_1'
p4470
(lp4471
S'ENSG00000176165'
p4472
asS'V$HNF1_Q6_M00790'
p4473
(lp4474
g1010
asS'ELK4_MA0076.1'
p4475
(lp4476
g1507
asS'FOXI1_MA0042.1'
p4477
(lp4478
g3646
asS'Nkx2-2.1'
p4479
(lp4480
g727
asS'V$SOX13_03_M02797'
p4481
(lp4482
g3413
asS'V$HELIOSA_02_M01004'
p4483
(lp4484
g2867
asS'HNF4A_nuclearreceptor_full_dimeric_14_1'
p4485
(lp4486
g397
asS'Foxc1_forkhead_DBD_monomeric_7_1'
p4487
(lp4488
g563
asS'V$LEF1_03_M02878'
p4489
(lp4490
g293
asS'V$STAT1_02_M00492'
p4491
(lp4492
g557
asS'Mrg2.1'
p4493
(lp4494
g687
asS'Sox15.1'
p4495
(lp4496
g119
asS'En1.1'
p4497
(lp4498
g1255
asS'V$PEA3_02_M02066'
p4499
(lp4500
g742
asS'V$PMX2B_01_M01356'
p4501
(lp4502
g33
asS'Zbtb12.1'
p4503
(lp4504
g2480
ag2481
ag2482
ag2483
ag2484
asS'V$NFATC2_01_M02265'
p4505
(lp4506
g4428
asS'Zbtb12.2'
p4507
(lp4508
g2480
ag2481
ag2482
ag2483
ag2484
asS'V$NET_01_M01982'
p4509
(lp4510
g853
asS'V$REST_02_M02256'
p4511
(lp4512
g877
asS'V$STAT1_Q6_M01823'
p4513
(lp4514
g557
asS'SOX14_HMG_DBD_dimeric_12_1'
p4515
(lp4516
g77
asS'FOXJ2_forkhead_DBD_monomeric_8_1'
p4517
(lp4518
g404
asS'V$OCT1_05_M00161'
p4519
(lp4520
g597
asS'CENPB_CENPB_full_monomeric_15_1'
p4521
(lp4522
S'ENSG00000125817'
p4523
asS'V$DLX7_01_M01486'
p4524
(lp4525
g3926
asS'SOX9_HMG_full_dimeric_16_1'
p4526
(lp4527
g1366
asS'Irf6.2'
p4528
(lp4529
g2886
asS'Hoxc4.1'
p4530
(lp4531
g3852
asS'GBX2_homeodomain_DBD_dimeric_14_1'
p4532
(lp4533
g296
asS'V$MYB_Q6_M00183'
p4534
(lp4535
g1118
asS'PDX1_homeodomain_DBD_dimeric_18_1'
p4536
(lp4537
g65
asS'V$EHF_07_M02849'
p4538
(lp4539
g965
asS'V$KLF7_04_M02877'
p4540
(lp4541
g387
asS'Sox17.2'
p4542
(lp4543
g159
asS'Sox17.1'
p4544
(lp4545
g159
asS'V$PLAG1_02_M01973'
p4546
(lp4547
g1218
asS'GLI2_C2H2_DBD_monomeric_12_1'
p4548
(lp4549
g173
asS'V$NFAT3_Q3_M01734'
p4550
(lp4551
S'ENSG00000100968'
p4552
asS'V$NKX29_01_M01352'
p4553
(lp4554
g2344
asS'V$PXRRXR_02_M01153'
p4555
(lp4556
g549
asS'PPARG_MA0066.1'
p4557
(lp4558
g1072
asS'V$HOXC5_01_M01454'
p4559
(lp4560
g2578
asS'V$AP4_Q5_M00175'
p4561
(lp4562
g228
asS'V$PU1_Q4_M01172'
p4563
(lp4564
g633
asS'Lbx2.1'
p4565
(lp4566
g534
asS'V$LXR_DR4_Q3_M00766'
p4567
(lp4568
g2653
asS'Titf1.1'
p4569
(lp4570
g2493
asS'V$PAX6_01_M00097'
p4571
(lp4572
g209
asS'MLX_bHLH_full_dimeric_10_1'
p4573
(lp4574
S'ENSG00000108788'
p4575
asS'SPDEF_ETS_full_monomeric_11_1'
p4576
(lp4577
g494
asS'V$PITX1_01_M01484'
p4578
(lp4579
g12
asS'Shox2_homeodomain_DBD_monomeric_8_1'
p4580
(lp4581
g1714
asS'V$EVI1_06_M00011'
p4582
(lp4583
g777
asS'V$IRX3_01_M01318'
p4584
(lp4585
g1324
asS'E2F2_E2F_DBD_dimeric_18_1'
p4586
(lp4587
g758
ag759
asS'V$P50P50_Q3_M01223'
p4588
(lp4589
g421
asS'YY1_MA0095.1'
p4590
(lp4591
g2366
asS'Cebpa_MA0102.1'
p4592
(lp4593
g254
asS'Egr1_MA0162.1'
p4594
(lp4595
g574
asS'ETS1_ETS_full_dimeric_18_1'
p4596
(lp4597
g188
asS'Pou1f1.1'
p4598
(lp4599
g1802
asS'Shox2.1'
p4600
(lp4601
g1714
asS'V$LXRB_RXRA_Q5_M02021'
p4602
(lp4603
S'ENSG00000131408'
p4604
asS'DPRX_homeodomain_DBD_monomeric_11_1'
p4605
(lp4606
g1662
asS'V$NFAT4_Q3_M01886'
p4607
(lp4608
S'ENSG00000072736'
p4609
asS'V$MYBL1_03_M02780'
p4610
(lp4611
g818
asS'Etv5.1'
p4612
(lp4613
g6
asS'PRDM1_C2H2_full_monomeric-or-dimeric_15_1'
p4614
(lp4615
g2204
asS'V$SOX30_03_M02804'
p4616
(lp4617
g1162
asS'V$LMO2COM_01_M00277'
p4618
(lp4619
g2851
asS'Etv1.1'
p4620
(lp4621
g1706
asS'TEAD1_TEA_full_monomeric_10_1'
p4622
(lp4623
g1909
asS'V$AP1_Q4_M00188'
p4624
(lp4625
g994
asS'V$SOX10_Q6_M01131'
p4626
(lp4627
g191
asS'Sox15.2'
p4628
(lp4629
g119
asS'V$HOXA3_02_M01337'
p4630
(lp4631
g3037
asS'MLXIPL_bHLH_full_dimeric_10_1'
p4632
(lp4633
S'ENSG00000009950'
p4634
asS'V$TITF1_Q3_M00432'
p4635
(lp4636
g2493
asS'NR4A2_MA0160.1'
p4637
(lp4638
g803
asS'V$SIX4_01_M01374'
p4639
(lp4640
g615
asS'V$PAX4_01_M00373'
p4641
(lp4642
g323
asS'IRX5_homeodomain_DBD_dimeric_12_1'
p4643
(lp4644
g3500
asS'V$GATA5_Q4_M02006'
p4645
(lp4646
g2537
asS'V$RORA1_01_M00156'
p4647
(lp4648
g1614
asS'V$E2F_Q6_01_M00920'
p4649
(lp4650
g45
asS'V$FLI1_01_M02038'
p4651
(lp4652
g896
asS'V$HSF_Q6_M00641'
p4653
(lp4654
g1278
asS'Hoxa4.1'
p4655
(lp4656
g512
asS'MYBL1_MYB_DBD_dimeric_12_2'
p4657
(lp4658
g818
asS'V$ATF6_01_M00483'
p4659
(lp4660
S'ENSG00000118217'
p4661
asS'V$TBX18_01_M01262'
p4662
(lp4663
S'ENSG00000112837'
p4664
asS'OTX1_homeodomain_DBD_monomeric_8_1'
p4665
(lp4666
g381
asS'V$OCT1_B_M00342'
p4667
(lp4668
g597
asS'V$EHF_06_M02745'
p4669
(lp4670
g965
asS'V$NRF1_Q6_M00652'
p4671
(lp4672
g3762
asS'ESRRA_nuclearreceptor_DBD_dimeric_19_1'
p4673
(lp4674
g1080
asS'V$MTF1_02_M01243'
p4675
(lp4676
g378
asS'V$ISL2_01_M01328'
p4677
(lp4678
g153
asS'V$HES1_Q6_M02011'
p4679
(lp4680
g1339
asS'EWSR1-FLI1_MA0149.1'
p4681
(lp4682
g3478
asS'V$TBP_Q6_M00980'
p4683
(lp4684
g636
asS'Elf4.1'
p4685
(lp4686
g945
asS'ZNF410_C2H2_DBD_monomeric_17_1'
p4687
(lp4688
g71
asS'Foxj3_forkhead_DBD_dimeric_13_1'
p4689
(lp4690
g752
asS'V$CREB_02_M00113'
p4691
(lp4692
g2453
asS'V$CART1_02_M01362'
p4693
(lp4694
g1526
asS'V$SP4_03_M02810'
p4695
(lp4696
g997
asS'V$AR_04_M01201'
p4697
(lp4698
g537
asS'NR2F6_nuclearreceptor_full_dimeric_14_1'
p4699
(lp4700
g2771
asS'V$PAX4_04_M00380'
p4701
(lp4702
g323
asS'V$PPARA_02_M00518'
p4703
(lp4704
g2450
asS'V$GFI1_01_M00250'
p4705
(lp4706
g2002
asS'Mybl1.1'
p4707
(lp4708
g818
asS'Isx.1'
p4709
(lp4710
g2697
asS'Mycn_MA0104.1'
p4711
(lp4712
g1373
asS'Mycn_MA0104.2'
p4713
(lp4714
g1373
asS'POU1F1_POU_DBD_monomeric_14_1'
p4715
(lp4716
g1802
asS'Hoxa11_homeodomain_DBD_monomeric_11_1'
p4717
(lp4718
g2297
asS'V$ELF1_Q6_M00746'
p4719
(lp4720
g642
asS'CUX2_CUT_DBD_dimeric_18_1'
p4721
(lp4722
g2755
asS'NFIL3_MA0025.1'
p4723
(lp4724
g1290
asS'BHLHE23_bHLH_DBD_dimeric_10_1'
p4725
(lp4726
S'ENSG00000125533'
p4727
asS'V$PAX5_01_M00143'
p4728
(lp4729
g618
asS'Hoxc10.1'
p4730
(lp4731
g671
asS'V$CDP_01_M00095'
p4732
(lp4733
g104
asS'GSX1_homeodomain_DBD_monomeric_10_1'
p4734
(lp4735
S'ENSG00000169840'
p4736
asS'ATF4_bZIP_DBD_dimeric_13_1'
p4737
(lp4738
g1123
asS'V$TCF7_04_M02921'
p4739
(lp4740
g1140
asS'MNX1_homeodomain_DBD_monomeric_10_1'
p4741
(lp4742
g486
asS'V$FXR_IR1_Q6_M00767'
p4743
(lp4744
g1993
asS'V$MOVOB_01_M01104'
p4745
(lp4746
S'ENSG00000125850'
p4747
asS'V$FOXL1_02_M02857'
p4748
(lp4749
g1232
asS'V$AML2_Q3_01_M01854'
p4750
(lp4751
g356
asS'EN2_homeodomain_full_monomeric_10_1'
p4752
(lp4753
g2613
asS'OLIG3_bHLH_DBD_dimeric_10_1'
p4754
(lp4755
S'ENSG00000177468'
p4756
asS'Alx1_homeodomain_DBD_dimeric_13_1'
p4757
(lp4758
g2175
asS'V$EVI1_03_M00080'
p4759
(lp4760
g777
asS'V$CBF1_QX_M01727'
p4761
(lp4762
g690
asS'EMX1_homeodomain_DBD_monomeric_10_1'
p4763
(lp4764
g21
asS'TEAD3_TEA_DBD_dimeric_17_1'
p4765
(lp4766
S'ENSG00000007866'
p4767
asS'V$NKX62_Q2_M00489'
p4768
(lp4769
g3801
asS'V$FLI1_02_M02073'
p4770
(lp4771
g896
asS'SOX10_MA0442.1'
p4772
(lp4773
g191
asS'ZEB1_MA0103.1'
p4774
(lp4775
g718
asS'V$HNF1_01_M00132'
p4776
(lp4777
g1010
asS'Irf5.2'
p4778
(lp4779
g1568
asS'Homez.1'
p4780
(lp4781
g133
asS'Irf5.1'
p4782
(lp4783
g1568
asS'Lhx8_homeodomain_DBD_dimeric_18_1'
p4784
(lp4785
g2341
asS'ARNTL_bHLH_DBD_dimeric_10_1'
p4786
(lp4787
S'ENSG00000133794'
p4788
asS'V$EN1_01_M00396'
p4789
(lp4790
g1255
asS'V$NFYC_Q5_M02107'
p4791
(lp4792
S'ENSG00000066136'
p4793
asS'V$NKX61_02_M01469'
p4794
(lp4795
g1212
asS'Jundm2.2'
p4796
(lp4797
g994
asS'TFAP2B_TFAP_DBD_dimeric_11_1'
p4798
(lp4799
g856
asS'Jundm2.1'
p4800
(lp4801
g2982
asS'Lhx8_homeodomain_DBD_dimeric_12_1'
p4802
(lp4803
g2341
asS'V$TCFAP2E_03_M02822'
p4804
(lp4805
g3973
asS'HOXC12_homeodomain_DBD_monomeric_11_1'
p4806
(lp4807
g594
asS'V$BDP1_01_M01796'
p4808
(lp4809
S'ENSG00000274803'
p4810
aS'ENSG00000273873'
p4811
aS'ENSG00000145734'
p4812
asS'V$SP1_03_M02281'
p4813
(lp4814
g1055
asS'Esrrb_MA0141.1'
p4815
(lp4816
g4175
asS'V$LEF1_Q2_01_M01022'
p4817
(lp4818
g293
asS'Elk3_ETS_DBD_monomeric_10_1'
p4819
(lp4820
g853
asS'HOXA13_homeodomain_full_monomeric_10_1'
p4821
(lp4822
g1344
asS'V$SOX11_04_M02899'
p4823
(lp4824
g1551
asS'V$HTF4_Q2_M02018'
p4825
(lp4826
g1644
asS'V$EN2_01_M01455'
p4827
(lp4828
g2613
asS'V$NKX3A_02_M01383'
p4829
(lp4830
g433
asS'V$HOXC9_01_M01416'
p4831
(lp4832
S'ENSG00000180806'
p4833
asS'V$RFX4_04_M02893'
p4834
(lp4835
g1157
asS'V$ELK1_06_M02059'
p4836
(lp4837
g182
asS'SOX9_HMG_DBD_monomeric_9_1'
p4838
(lp4839
g1366
asS'Hoxb4.1'
p4840
(lp4841
g1529
asS'V$KLF7_03_M02773'
p4842
(lp4843
g387
asS'V$RBPJK_01_M01112'
p4844
(lp4845
g690
asS'V$GMEB1_04_M02865'
p4846
(lp4847
g925
asS'V$HOXA13_01_M01292'
p4848
(lp4849
g1344
asS'V$YY1_03_M02044'
p4850
(lp4851
g2366
asS'EMX2_homeodomain_DBD_monomeric_10_1'
p4852
(lp4853
g305
asS'SPIC_ETS_full_monomeric_14_1'
p4854
(lp4855
g1176
asS'V$IRF1_Q6_M00747'
p4856
(lp4857
g2432
asS'V$ALX3_01_M01355'
p4858
(lp4859
g95
asS'V$GATA1_06_M00347'
p4860
(lp4861
g18
asS'V$ER71_02_M02067'
p4862
(lp4863
g1312
asS'V$OCT1_Q5_01_M00930'
p4864
(lp4865
g597
asS'V$SOX40_04_M02908'
p4866
(lp4867
S'ENSG00000186827'
p4868
asS'V$RARA_04_M02891'
p4869
(lp4870
g1087
asS'Ar_MA0007.1'
p4871
(lp4872
g537
asS'CREB1_MA0018.2'
p4873
(lp4874
g2453
asS'CREB1_MA0018.1'
p4875
(lp4876
g2453
asS'V$GCNF_01_M00526'
p4877
(lp4878
g2910
asS'V$AML3_Q6_M01856'
p4879
(lp4880
g451
asS'V$E2F_02_M00050'
p4881
(lp4882
g45
asS'Hoxc10_homeodomain_DBD_monomeric_10_2'
p4883
(lp4884
g671
asS'Foxj1.1'
p4885
(lp4886
g4075
asS'Foxj1.2'
p4887
(lp4888
g4075
asS'Hoxb13.1'
p4889
(lp4890
g1977
asS'V$PBX1_05_M01967'
p4891
(lp4892
g138
asS'V$HIC1_03_M01073'
p4893
(lp4894
g579
asS'AR_nuclearreceptor_full_dimeric_17_1'
p4895
(lp4896
g537
asS'V$NFY_01_M00287'
p4897
(lp4898
g249
asS'MEOX2_homeodomain_DBD_dimeric_14_1'
p4899
(lp4900
g2009
asS'V$PAX3_01_M00360'
p4901
(lp4902
g2071
asS'V$FPM315_01_M01587'
p4903
(lp4904
S'ENSG00000006194'
p4905
asS'V$POU6F1_02_M01462'
p4906
(lp4907
g1260
asS'MAFF_bZIP_DBD_dimeric_15_1'
p4908
(lp4909
S'ENSG00000185022'
p4910
asS'Pou2f1.1'
p4911
(lp4912
g597
asS'V$ELF1_01_M01975'
p4913
(lp4914
g642
asS'Foxk1.2'
p4915
(lp4916
g2378
asS'Foxk1.1'
p4917
(lp4918
g2378
asS'V$CEBPB_Q6_M01896'
p4919
(lp4920
g62
asS'V$CDX2_Q5_M00729'
p4921
(lp4922
g1637
asS'V$SMAD4_04_M02898'
p4923
(lp4924
S'ENSG00000141646'
p4925
asS'V$SZF11_01_M01109'
p4926
(lp4927
S'ENSG00000164048'
p4928
asS'Egr3_C2H2_DBD_monomeric_15_1'
p4929
(lp4930
g1726
asS'V$FOXJ1_04_M02854'
p4931
(lp4932
g4075
asS'LBX2_homeodomain_DBD_dimeric_13_1'
p4933
(lp4934
g534
asS'TFAP2C_TFAP_full_dimeric_12_1'
p4935
(lp4936
g2012
asS'V$MYOGENIN_Q6_01_M02101'
p4937
(lp4938
g302
asS'FOXD1_MA0031.1'
p4939
(lp4940
g3109
asS'Sox5.2'
p4941
(lp4942
g1588
asS'Sox5.1'
p4943
(lp4944
g1588
asS'TCF3_bHLH_DBD_dimeric_10_1'
p4945
(lp4946
g916
asS'V$SMAD4_Q6_M00733'
p4947
(lp4948
g4925
asS'ELF3_ETS_DBD_monomeric_12_1'
p4949
(lp4950
g793
asS'RARG_nuclearreceptor_DBD_dimeric_17_2'
p4951
(lp4952
g989
asS'RARG_nuclearreceptor_DBD_dimeric_17_1'
p4953
(lp4954
g989
asS'V$GABPA_01_M02039'
p4955
(lp4956
g1542
asS'V$IRF5_04_M02873'
p4957
(lp4958
g1568
asS'V$NFE2_Q6_M02104'
p4959
(lp4960
g4285
asS'V$GATA4_Q3_M00632'
p4961
(lp4962
g2330
asS'V$TEF1_Q6_M00704'
p4963
(lp4964
g1909
asS'Spic.1'
p4965
(lp4966
g1176
asS'DLX5_homeodomain_FL_monomeric_8_1'
p4967
(lp4968
g1990
asS'Sox1.2'
p4969
(lp4970
g1435
asS'Sox1.1'
p4971
(lp4972
g1435
asS'V$YY1_Q6_02_M01035'
p4973
(lp4974
g2366
asS'V$ZF5_B_M00333'
p4975
(lp4976
g2758
asS'V$GATA6_01_M00462'
p4977
(lp4978
g654
asS'TP63_p53l_DBD_dimeric_18_1'
p4979
(lp4980
g2854
asS'SOX4_HMG_DBD_dimeric_16_1'
p4981
(lp4982
g30
asS'V$RFX1_02_M00281'
p4983
(lp4984
g846
asS'PRRX1_homeodomain_full_dimeric_11_1'
p4985
(lp4986
g813
asS'V$MZF1_01_M00083'
p4987
(lp4988
g1000
asS'V$MMEF2_Q6_M00405'
p4989
(lp4990
g1691
asS'Zfx_MA0146.1'
p4991
(lp4992
g3165
asS'V$LHX61_02_M01422'
p4993
(lp4994
g1352
asS'V$LRH1_Q5_01_M02098'
p4995
(lp4996
g36
asS'V$REX1_03_M01744'
p4997
(lp4998
g2349
asS'Mafk.2'
p4999
(lp5000
g179
asS'Mafk.1'
p5001
(lp5002
g179
asS'V$AP1_Q2_01_M00924'
p5003
(lp5004
g994
asS'V$BRACH_01_M00150'
p5005
(lp5006
g1786
asS'HNF4A_MA0114.1'
p5007
(lp5008
g397
asS'ONECUT3_CUT_DBD_monomeric_14_1'
p5009
(lp5010
S'ENSG00000205922'
p5011
asS'V$TAL1BETAE47_01_M00065'
p5012
(lp5013
g627
asS'FOXO3_MA0157.1'
p5014
(lp5015
g299
asS'TBX2_TBX_full_monomeric_11_1'
p5016
(lp5017
g167
asS'Mybl1.2'
p5018
(lp5019
g818
asS'V$MYBL1_04_M02884'
p5020
(lp5021
g818
asS'EBF1_MA0154.1'
p5022
(lp5023
g474
asS'V$NKX63_01_M01470'
p5024
(lp5025
g4246
asS'V$FRA1_Q5_M01267'
p5026
(lp5027
g3804
asS'MEOX2_homeodomain_DBD_monomeric_10_1'
p5028
(lp5029
g2009
asS'NHLH1_bHLH_full_dimeric_10_1'
p5030
(lp5031
g281
asS'Myf6.2'
p5032
(lp5033
g1825
asS'Myf6.1'
p5034
(lp5035
g1825
asS'Tcfe2a.1'
p5036
(lp5037
g916
asS'V$RREB1_01_M00257'
p5038
(lp5039
g4396
asS'V$IPF1_01_M01233'
p5040
(lp5041
g65
asS'V$IRF7_Q3_M01884'
p5042
(lp5043
g197
ag198
asS'Gcm1.1'
p5044
(lp5045
g274
asS'Gcm1.2'
p5046
(lp5047
g274
asS'V$SOX7_03_M02807'
p5048
(lp5049
g1959
asS'V$CEBPA_Q6_M01866'
p5050
(lp5051
g254
asS'V$SIX2_01_M01433'
p5052
(lp5053
S'ENSG00000170577'
p5054
asS'V$NKX23_01_M01457'
p5055
(lp5056
g2607
asS'VAX2_homeodomain_DBD_monomeric_8_1'
p5057
(lp5058
g1069
asS'V$HIC1_02_M01072'
p5059
(lp5060
g579
asS'V$TBP_04_M02918'
p5061
(lp5062
g636
asS'V$STAT5A_04_M00499'
p5063
(lp5064
g101
asS'HOXA10_homeodomain_DBD_monomeric_12_1'
p5065
(lp5066
g1026
asS'V$LTF_Q6_M01692'
p5067
(lp5068
S'ENSG00000012223'
p5069
asS'JUNFOS.1'
p5070
(lp5071
g2828
asS'TBX20_TBX_full_monomeric_11_1'
p5072
(lp5073
g2371
asS'V$NFAT_Q6_M00302'
p5074
(lp5075
g4428
asS'V$E47_02_M00071'
p5076
(lp5077
g916
asS'V$MEF2C_Q4_M02025'
p5078
(lp5079
S'ENSG00000081189'
p5080
asS'TBX20_TBX_full_dimeric_16_1'
p5081
(lp5082
g2371
asS'Irx3_homeodomain_DBD_dimeric_12_1'
p5083
(lp5084
g1324
asS'MEOX1_homeodomain_full_monomeric_10_1'
p5085
(lp5086
g2950
asS'V$NKX61_03_M01489'
p5087
(lp5088
g1212
asS'V$SOX17_01_M01016'
p5089
(lp5090
g159
asS'NR4A2_nuclearreceptor_full_dimeric_17_1'
p5091
(lp5092
g803
asS'V$AREB6_02_M00413'
p5093
(lp5094
g718
asS'CEBPG_bZIP_full_dimeric_10_1'
p5095
(lp5096
S'ENSG00000153879'
p5097
asS'Nkx3-1.2'
p5098
(lp5099
g433
asS'Nkx3-1.3'
p5100
(lp5101
g433
asS'Zfp652_C2H2_DBD_monomeric_13_1'
p5102
(lp5103
S'ENSG00000198740'
p5104
asS'V$BARX2_01_M01431'
p5105
(lp5106
g3112
asS'V$ZNF515_01_M01231'
p5107
(lp5108
g2973
asS'E2F2.1'
p5109
(lp5110
g758
ag759
asS'TFAP2A_MA0003.1'
p5111
(lp5112
g228
asS'E2F2.2'
p5113
(lp5114
g758
ag759
asS'V$SREBP1_02_M00221'
p5115
(lp5116
g868
asS'V$HFH8_01_M00294'
p5117
(lp5118
S'ENSG00000103241'
p5119
asS'Prrx1.1'
p5120
(lp5121
g813
asS'Hoxa7.1'
p5122
(lp5123
g546
asS'V$STAT4_Q4_M01666'
p5124
(lp5125
g657
asS'E2F8_E2F_DBD_dimeric_12_1'
p5126
(lp5127
S'ENSG00000129173'
p5128
asS'Atf4_bZIP_DBD_dimeric_14_1'
p5129
(lp5130
g1123
asS'V$PLAGL1_04_M02890'
p5131
(lp5132
g2057
asS'V$VBP_01_M00228'
p5133
(lp5134
S'ENSG00000155959'
p5135
asS'HOXA1_homeodomain_DBD_monomeric_10_1'
p5136
(lp5137
g80
asS'V$MEIS1AHOXA9_01_M00420'
p5138
(lp5139
g1191
asS'Six2.1'
p5140
(lp5141
g5054
asS'MAX_bHLH_DBD_dimer-of-dimers_17_1'
p5142
(lp5143
g144
asS'V$MEF3_B_M00319'
p5144
(lp5145
S'ENSG00000242265'
p5146
asS'V$SP2_01_M01783'
p5147
(lp5148
S'ENSG00000167182'
p5149
asS'ZNF784_C2H2_full_monomeric_10_1'
p5150
(lp5151
S'ENSG00000179922'
p5152
asS'V$P300_01_M00033'
p5153
(lp5154
S'ENSG00000100393'
p5155
asS'V$COE1_Q6_M01871'
p5156
(lp5157
g474
asS'TEAD4_TEA_DBD_monomeric_10_1'
p5158
(lp5159
S'ENSG00000197905'
p5160
asS'Hdx.1'
p5161
(lp5162
g459
asS'V$HNF4_DR1_Q3_M00764'
p5163
(lp5164
g397
asS'Pdx1_MA0132.1'
p5165
(lp5166
g65
asS'DLX4_homeodomain_DBD_monomeric_8_1'
p5167
(lp5168
g3926
asS'Rxrb_nuclearreceptor_DBD_dimeric_14_1'
p5169
(lp5170
S'ENSG00000204231'
p5171
aS'ENSG00000235712'
p5172
aS'ENSG00000206289'
p5173
aS'ENSG00000227322'
p5174
aS'ENSG00000231321'
p5175
aS'ENSG00000228333'
p5176
asS'BHLHB3_bHLH_full_dimeric_10_1'
p5177
(lp5178
g3312
asS'V$STAT3_03_M01595'
p5179
(lp5180
g1654
asS'Meis2_MEIS_DBD_monomeric_7_1'
p5181
(lp5182
g2194
asS'V$TCFAP2B_04_M02924'
p5183
(lp5184
g856
asS'CDX1_homeodomain_DBD_monomeric_9_1'
p5185
(lp5186
g2508
asS'V$FAC1_01_M00456'
p5187
(lp5188
S'ENSG00000171634'
p5189
asS'V$HNF3B_01_M00131'
p5190
(lp5191
g217
asS'ELK1_ETS_full_dimeric_17_1'
p5192
(lp5193
g182
asS'V$PARP_Q3_M01211'
p5194
(lp5195
g1659
asS'V$NFAT2_02_M01749'
p5196
(lp5197
g2814
asS'V$CEBPE_01_M01772'
p5198
(lp5199
g341
asS'V$SREBP_Q6_M01168'
p5200
(lp5201
g868
asS'MSX1_homeodomain_full_monomeric_8_1'
p5202
(lp5203
g871
asS'V$IRF3_06_M02871'
p5204
(lp5205
g242
asS'Zscan4.1'
p5206
(lp5207
g2145
asS'V$YY1_Q6_M00793'
p5208
(lp5209
g2366
asS'V$RNF96_01_M01199'
p5210
(lp5211
S'ENSG00000130726'
p5212
asS'Foxg1_forkhead_DBD_monomeric_7_1'
p5213
(lp5214
g4472
asS'RXRG_nuclearreceptor_full_dimeric_14_1'
p5215
(lp5216
g3954
asS'RXRG_nuclearreceptor_full_dimeric_14_2'
p5217
(lp5218
g3954
asS'V$NKX31_02_M02782'
p5219
(lp5220
g433
asS'HESX1_homeodomain_DBD_dimeric_15_1'
p5221
(lp5222
g3294
asS'HSFY2_HSF_DBD_dimer-of-dimers_15_1'
p5223
(lp5224
g1862
asS'MGA_TBX_DBD_dimeric_18_1'
p5225
(lp5226
g4411
asS'MGA_TBX_DBD_dimeric_18_2'
p5227
(lp5228
g4411
asS'V$ARX_01_M01423'
p5229
(lp5230
g4113
asS'V$NKX25_03_M01414'
p5231
(lp5232
g543
asS'V$HOXD3_01_M01338'
p5233
(lp5234
g919
asS'V$OCT1_08_M01354'
p5235
(lp5236
g597
asS'V$IRF7_01_M00453'
p5237
(lp5238
g197
ag198
asS'V$LHX2_01_M01325'
p5239
(lp5240
g1799
asS'Foxd3_MA0041.1'
p5241
(lp5242
g1110
asS'V$CEBP_Q3_M00770'
p5243
(lp5244
g254
asS'V$PBX1_03_M01017'
p5245
(lp5246
g138
asS'ISX_homeodomain_full_monomeric_8_1'
p5247
(lp5248
g2697
asS'V$ZFP206_01_M01742'
p5249
(lp5250
S'ENSG00000130182'
p5251
asS'V$SP3_Q3_M00665'
p5252
(lp5253
g2744
asS'V$PITX2_01_M01447'
p5254
(lp5255
g9
asS'DUXA_homeodomain_DBD_dimeric_13_1'
p5256
(lp5257
S'ENSG00000258873'
p5258
asS'POU3F4_POU_DBD_monomeric_11_1'
p5259
(lp5260
g2679
asS'NR4A2_nuclearreceptor_full_monomeric_11_1'
p5261
(lp5262
g803
asS'VAX1_homeodomain_DBD_monomeric_8_1'
p5263
(lp5264
g3102
asS'V$CHCH_01_M00986'
p5265
(lp5266
S'ENSG00000258289'
p5267
asS'FOXO3_forkhead_full_dimeric_14_1'
p5268
(lp5269
g299
asS'V$GBX1_01_M01371'
p5270
(lp5271
g1872
asS'Pou2f2_POU_DBD_monomeric_9_1'
p5272
(lp5273
g1456
asS'V$P53_02_M00272'
p5274
(lp5275
g755
asS'V$NCX_02_M01420'
p5276
(lp5277
g645
asS'V$CREBP1CJUN_01_M00041'
p5278
(lp5279
g1813
asS'V$LMX1_01_M01409'
p5280
(lp5281
g68
asS'V$E2F6_01_M01252'
p5282
(lp5283
S'ENSG00000169016'
p5284
asS'NEUROD2_bHLH_full_dimeric_10_1'
p5285
(lp5286
S'ENSG00000171532'
p5287
asS'V$POU3F3_01_M03090'
p5288
(lp5289
g331
asS'V$TBX15_01_M01263'
p5290
(lp5291
g2280
asS'V$HELIOSA_01_M01003'
p5292
(lp5293
g2867
asS'V$OTP_01_M01323'
p5294
(lp5295
g1844
asS'CDX2_homeodomain_DBD_monomeric_9_1'
p5296
(lp5297
g1637
asS'V$HFH3_01_M00289'
p5298
(lp5299
g3646
asS'V$SREBP1_Q6_M00749'
p5300
(lp5301
g868
asS'FOXP3_forkhead_DBD_monomeric_7_1'
p5302
(lp5303
g2985
asS'V$E2F1_Q4_M00430'
p5304
(lp5305
g45
asS'V$ZFP128_04_M02932'
p5306
(lp5307
g2263
asS'V$PUR1_Q4_M01721'
p5308
(lp5309
S'ENSG00000185129'
p5310
asS'V$ATF3_Q6_01_M01863'
p5311
(lp5312
g2923
asS'Pou3f2.1'
p5313
(lp5314
g113
asS'V$CP2_02_M00947'
p5315
(lp5316
g1972
asS'V$VDRRXR_01_M01202'
p5317
(lp5318
g549
asS'V$BEN_01_M01240'
p5319
(lp5320
g679
asS'VSX1_homeodomain_DBD_monomeric_8_1'
p5321
(lp5322
g170
asS'V$HOXB9_01_M01426'
p5323
(lp5324
g2610
asS'V$SPI1_Q5_M02031'
p5325
(lp5326
g633
asS'V$E2F1_Q3_01_M00938'
p5327
(lp5328
g45
asS'V$HOXA13_03_M01430'
p5329
(lp5330
g1344
asS'V$NRSF_Q4_M01028'
p5331
(lp5332
g877
asS'V$LHX5_01_M01353'
p5333
(lp5334
S'ENSG00000089116'
p5335
asS'MEF2A_MA0052.1'
p5336
(lp5337
g1691
asS'RXRA_nuclearreceptor_full_dimeric_14_2'
p5338
(lp5339
g549
asS'RXRA_nuclearreceptor_full_dimeric_14_1'
p5340
(lp5341
g549
asS'ETV3_ETS_DBD_monomeric_10_1'
p5342
(lp5343
g141
asS'V$EBF_Q6_M00977'
p5344
(lp5345
g474
asS'V$HOXA4_Q2_M00640'
p5346
(lp5347
g512
asS'V$P53_04_M01652'
p5348
(lp5349
g755
asS'NR2E1_nuclearreceptor_full_monomeric_9_1'
p5350
(lp5351
g156
asS'V$AMEF2_Q6_M00403'
p5352
(lp5353
g1691
asS'V$SP4_04_M02914'
p5354
(lp5355
g997
asS'EGR4_C2H2_DBD_monomeric_16_2'
p5356
(lp5357
g3162
asS'DMBX1_homeodomain_DBD_monomeric_10_1'
p5358
(lp5359
g2441
asS'V$TAL1_Q6_M00993'
p5360
(lp5361
g627
asS'V$TCF1_06_M02815'
p5362
(lp5363
g1010
asS'FOXL1_forkhead_full_dimeric_13_1'
p5364
(lp5365
g1232
asS'SHOX_homeodomain_DBD_monomeric_8_1'
p5366
(lp5367
S'ENSG00000185960'
p5368
asS'V$NFAT2_Q5_M01718'
p5369
(lp5370
g2814
asS'V$DLX5_01_M01388'
p5371
(lp5372
g1990
asS'CEBPD_bZIP_DBD_dimeric_10_1'
p5373
(lp5374
g2161
asS'Uncx_homeodomain_DBD_monomeric_8_1'
p5375
(lp5376
g185
asS'V$CEBPG_Q6_01_M01869'
p5377
(lp5378
g5097
asS'V$ELK1_02_M00025'
p5379
(lp5380
g182
asS'V$MAFB_05_M02775'
p5381
(lp5382
g368
asS'Foxj3_forkhead_DBD_monomeric_8_1'
p5383
(lp5384
g752
asS'Hoxa13.1'
p5385
(lp5386
g1344
asS'V$SP100_03_M02809'
p5387
(lp5388
g2074
asS'V$ZFP161_04_M02933'
p5389
(lp5390
g2758
asS'MEF2A_MADS_DBD_dimeric_12_1'
p5391
(lp5392
g1691
asS'V$HOXA3_07_M02869'
p5393
(lp5394
g3037
asS'V$ELK1_01_M00007'
p5395
(lp5396
g182
asS'V$NFAT1_Q6_M01281'
p5397
(lp5398
g4428
asS'V$CEBPG_Q6_M00622'
p5399
(lp5400
g5097
asS'SOX7_HMG_full_dimeric_17_2'
p5401
(lp5402
g1959
asS'V$KID3_01_M01160'
p5403
(lp5404
g1165
asS'V$VMYB_02_M00227'
p5405
(lp5406
g1118
asS'V$SOX14_04_M02901'
p5407
(lp5408
g77
asS'V$SOX14_03_M02798'
p5409
(lp5410
g77
asS'RARA_nuclearreceptor_full_dimeric_18_1'
p5411
(lp5412
g1087
asS'Irf3.1'
p5413
(lp5414
g242
asS'ZNF524_C2H2_full_monomeric_14_1'
p5415
(lp5416
g3273
asS'HNF4A_nuclearreceptor_full_dimeric_16_1'
p5417
(lp5418
g397
asS'V$MTF1_Q4_M00650'
p5419
(lp5420
g378
asS'ID4_bHLH_DBD_dimeric_10_1'
p5421
(lp5422
S'ENSG00000172201'
p5423
asS'Irf3.2'
p5424
(lp5425
g242
asS'V$PAX7_01_M01339'
p5426
(lp5427
g316
asS'V$SMAD4_Q6_01_M01889'
p5428
(lp5429
g4925
asS'V$ER_Q6_M00191'
p5430
(lp5431
g821
asS'ESRRG_nuclearreceptor_full_dimeric_17_1'
p5432
(lp5433
g147
asS'V$SOX21_04_M02907'
p5434
(lp5435
g591
asS'V$MATH1_Q2_M01716'
p5436
(lp5437
S'ENSG00000172238'
p5438
asS'V$OTX1_01_M01366'
p5439
(lp5440
g381
asS'NKX3-2_homeodomain_DBD_monomeric_9_1'
p5441
(lp5442
g523
asS'SOX9_HMG_full_dimeric_17_1'
p5443
(lp5444
g1366
asS'SOX9_HMG_full_dimeric_17_3'
p5445
(lp5446
g1366
asS'Tp53_p53l_DBD_dimeric_18_1'
p5447
(lp5448
g755
asS'Tp53_p53l_DBD_dimeric_18_2'
p5449
(lp5450
g755
asS'Sox4.2'
p5451
(lp5452
g30
asS'V$HSF2_01_M00147'
p5453
(lp5454
g3844
asS'Sox4.1'
p5455
(lp5456
g30
asS'SOX8_HMG_full_dimeric_15_1'
p5457
(lp5458
g888
asS'V$NFAT_Q4_01_M00935'
p5459
(lp5460
g4428
asS'V$GABPA_Q4_M01660'
p5461
(lp5462
g1542
asS'ETV5_ETS_DBD_monomeric_10_1'
p5463
(lp5464
g6
asS'V$PROP1_01_M01294'
p5465
(lp5466
g1624
ag1625
ag1626
asS'SOX8_HMG_full_dimeric_17_1'
p5467
(lp5468
g888
asS'TGIF2_MEIS_DBD_dimeric_12_1'
p5469
(lp5470
g1468
asS'V$XBP1_01_M00251'
p5471
(lp5472
g1293
asS'V$HNF3ALPHA_Q6_M00724'
p5473
(lp5474
g721
asS'FOXC1_forkhead_DBD_monomeric_11_1'
p5475
(lp5476
g563
asS'Tcfap2a_TFAP_DBD_dimeric_12_1'
p5477
(lp5478
g228
asS'V$ZEC_01_M01081'
p5479
(lp5480
S'ENSG00000197483'
p5481
asS'Meis3_MEIS_DBD_dimeric_12_1'
p5482
(lp5483
g687
asS'SMAD3_MAD_DBD_dimeric_10_1'
p5484
(lp5485
g1763
asS'V$STAF_01_M00262'
p5486
(lp5487
g438
asS'Arid3a.1'
p5488
(lp5489
g713
asS'Arid3a.2'
p5490
(lp5491
g713
asS'Sox8.2'
p5492
(lp5493
g888
asS'V$AP4_Q6_M00176'
p5494
(lp5495
g228
asS'Sox8.1'
p5496
(lp5497
g888
asS'FOXG1_forkhead_DBD_dimeric_17_1'
p5498
(lp5499
g4472
asS'BRCA1_MA0133.1'
p5500
(lp5501
g1599
asS'V$MYC_01_M02250'
p5502
(lp5503
g762
asS'V$SOX12_03_M02796'
p5504
(lp5505
g552
asS'Hoxc9.1'
p5506
(lp5507
g4833
asS'NFKB1_MA0105.1'
p5508
(lp5509
g421
asS'Atoh1_bHLH_DBD_dimeric_10_1'
p5510
(lp5511
g5438
asS'V$MRF2_01_M00454'
p5512
(lp5513
S'ENSG00000150347'
p5514
asS'V$CEBP_Q2_01_M00912'
p5515
(lp5516
g254
asS'Tcf3.2'
p5517
(lp5518
g916
asS'Zic2.1'
p5519
(lp5520
g1604
asS'Zic2.2'
p5521
(lp5522
g1604
asS'Tcf3.1'
p5523
(lp5524
g916
asS'Lhx5.1'
p5525
(lp5526
g5335
asS'V$ZBTB7B_03_M02826'
p5527
(lp5528
g983
asS'Nkx3-2_MA0122.1'
p5529
(lp5530
g523
asS'V$MAFK_Q3_M02022'
p5531
(lp5532
g179
asS'V$SP1_Q6_M00196'
p5533
(lp5534
g1055
asS'V$MYOD_01_M00001'
p5535
(lp5536
g893
asS'FOXJ2_forkhead_DBD_dimeric_14_1'
p5537
(lp5538
g404
asS'RORA_1_MA0071.1'
p5539
(lp5540
g1614
asS'Myf_MA0055.1'
p5541
(lp5542
g893
asS'Tp53_p53l_DBD_dimeric_17_1'
p5543
(lp5544
g755
asS'Lhx1.1'
p5545
(lp5546
S'ENSG00000273706'
p5547
aS'ENSG00000274577'
p5548
asS'Zbtb7b.1'
p5549
(lp5550
g983
asS'GRHL1_CP2_full_dimeric_12_1'
p5551
(lp5552
g1738
asS'V$LBP9_01_M01592'
p5553
(lp5554
g911
asS'Evx1.1'
p5555
(lp5556
g3807
asS'V$LIM1_01_M01418'
p5557
(lp5558
g5547
ag5548
asS'V$EGR1_06_M02744'
p5559
(lp5560
g574
asS'V$EFC_Q6_M00626'
p5561
(lp5562
S'ENSG00000111445'
p5563
asS'V$HOXD9_Q2_M01834'
p5564
(lp5565
g2540
asS'V$ALX3_02_M02943'
p5566
(lp5567
g95
asS'V$SOX9_Q4_M01284'
p5568
(lp5569
g1366
asS'V$OSR1_04_M02888'
p5570
(lp5571
g1513
asS'V$EVI1_01_M00078'
p5572
(lp5573
g777
asS'V$GR_Q6_M00192'
p5574
(lp5575
g1075
asS'THRB_nuclearreceptor_DBD_dimeric_20_1'
p5576
(lp5577
g407
asS'NEUROG2_bHLH_full_dimeric_10_1'
p5578
(lp5579
S'ENSG00000178403'
p5580
asS'V$GLI3_02_M01704'
p5581
(lp5582
g810
asS'Tcf1.2'
p5583
(lp5584
g1010
asS'Tcf1.3'
p5585
(lp5586
g1010
asS'V$ERALPHA_01_M01801'
p5587
(lp5588
g821
asS'NFE2_bZIP_DBD_dimeric_11_1'
p5589
(lp5590
g4285
asS'T_MA0009.1'
p5591
(lp5592
g1786
asS'ZNF75A_C2H2_DBD_monomeric_12_1'
p5593
(lp5594
S'ENSG00000162086'
p5595
asS'NFATC1_NFAT_full_dimeric_15_1'
p5596
(lp5597
g2814
asS'V$MYCMAX_03_M00615'
p5598
(lp5599
g144
asS'V$NFY_C_M00209'
p5600
(lp5601
g249
asS'TEAD3_TEA_DBD_monomeric_8_1'
p5602
(lp5603
g4767
asS'HES5_bHLH_DBD_dimeric_12_1'
p5604
(lp5605
S'ENSG00000273529'
p5606
aS'ENSG00000197921'
p5607
as.