(dp0
S'ENSG00000134954'
p1
(lp2
S'V$CETS1_01_M01986'
p3
aS'V$CETS1_02_M02063'
p4
aS'V$CETS1_Q6_M01870'
p5
aS'V$CETS1P54_01_M00032'
p6
aS'V$CETS1P54_02_M00074'
p7
aS'V$CETS1P54_03_M01078'
p8
aS'Ets1.1'
p9
aS'ETS1_ETS_full_dimeric_18_1'
p10
aS'ETS1_ETS_full_monomeric_10_1'
p11
aS'ETS1_MA0098.1'
p12
aS'V$ETS1_B_M00339'
p13
asS'ENSG00000106006'
p14
(lp15
S'Hoxa6.1'
p16
aS'V$HOXA6_01_M01392'
p17
asS'ENSG00000106004'
p18
(lp19
S'Hoxa5.1'
p20
aS'HOXA5_MA0158.1'
p21
aS'V$HOXA5_03_M02271'
p22
asS'ENSG00000189298'
p23
(lp24
S'ZNF306_C2H2_full_monomeric_14_1'
p25
asS'ENSG00000147862'
p26
(lp27
S'NFIB_NFI_full_dimeric_15_1'
p28
asS'ENSG00000138795'
p29
(lp30
S'Lef1.1'
p31
aS'Lef1.2'
p32
aS'LEF1_HMG_DBD_monomeric_15_1'
p33
aS'V$LEF1_03_M02878'
p34
aS'V$LEF1_04_M02774'
p35
aS'V$LEF1_Q2_01_M01022'
p36
aS'V$LEF1_Q2_M00805'
p37
aS'V$LEF1_Q5_M02019'
p38
asS'ENSG00000163884'
p39
(lp40
S'V$KLF15_Q2_M01714'
p41
asS'ENSG00000136574'
p42
(lp43
S'GATA4_GATA_DBD_monomeric_8_1'
p44
aS'V$GATA4_Q3_M00632'
p45
asS'ENSG00000127989'
p46
(lp47
S'V$MTERF_01_M01245'
p48
asS'ENSG00000119614'
p49
(lp50
S'V$CHX10_01_M00437'
p51
aS'VSX2_homeodomain_DBD_monomeric_8_1'
p52
asS'ENSG00000197062'
p53
(lp54
S'V$ZFP187_03_M02830'
p55
aS'V$ZFP187_04_M02934'
p56
aS'Zfp187.1'
p57
aS'Zfp187.2'
p58
asS'ENSG00000102908'
p59
(lp60
S'NFAT5_NFAT_DBD_dimeric_14_1'
p61
asS'ENSG00000185122'
p62
(lp63
S'V$HSF_Q6_M00641'
p64
aS'HSF1_HSF_full_trimeric_13_1'
p65
aS'V$HSF1_01_M00146'
p66
aS'V$HSF1_Q6_01_M02017'
p67
aS'V$HSF1_Q6_M01023'
p68
asS'ENSG00000126351'
p69
(lp70
S'V$T3RALPHA_Q6_M01724'
p71
aS'THRA_nuclearreceptor_FL_dimeric_18_1'
p72
asS'ENSG00000163497'
p73
(lp74
S'FEV_ETS_DBD_monomeric_10_1'
p75
aS'FEV_MA0156.1'
p76
aS'V$FEV_01_M02269'
p77
aS'V$PET1_01_M02037'
p78
aS'V$PET1_02_M02072'
p79
asS'ENSG00000185129'
p80
(lp81
S'V$PUR1_Q4_M01721'
p82
asS'ENSG00000128709'
p83
(lp84
S'Hoxd9_homeodomain_DBD_monomeric_10_1'
p85
aS'Hoxd9_homeodomain_DBD_monomeric_9_1'
p86
aS'Hoxd9_homeodomain_DBD_monomeric_9_2'
p87
aS'V$HOXD9_Q2_M01834'
p88
asS'ENSG00000143355'
p89
(lp90
S'Lhx9.1'
p91
aS'LHX9_homeodomain_DBD_dimeric_13_1'
p92
aS'LHX9_homeodomain_DBD_monomeric_8_1'
p93
aS'V$LHX9_01_M01367'
p94
asS'ENSG00000025434'
p95
(lp96
S'V$LXR_DR4_Q3_M00766'
p97
aS'V$LXRA_RXRA_Q3_M00647'
p98
asS'ENSG00000157613'
p99
(lp100
S'CREB3L1_bZIP_full_dimeric_12_1'
p101
aS'CREB3L1_bZIP_full_dimeric_14_1'
p102
asS'ENSG00000275979'
p103
(lp104
S'V$CNOT3_01_M01253'
p105
asS'ENSG00000143190'
p106
(lp107
S'OCT1.1'
p108
aS'V$OCT1_01_M00135'
p109
aS'V$OCT1_02_M00136'
p110
aS'V$OCT1_03_M00137'
p111
aS'V$OCT1_04_M00138'
p112
aS'V$OCT1_05_M00161'
p113
aS'V$OCT1_06_M00162'
p114
aS'V$OCT1_07_M00248'
p115
aS'V$OCT1_08_M01354'
p116
aS'V$OCT1_B_M00342'
p117
aS'V$OCT1_Q5_01_M00930'
p118
aS'V$OCT1_Q6_M00195'
p119
aS'V$OCT_C_M00210'
p120
aS'V$OCT_Q6_M00795'
p121
aS'Pou2f1.1'
p122
aS'POU2F1_POU_DBD_dimeric_14_1'
p123
aS'POU2F1_POU_DBD_monomeric_12_1'
p124
asS'ENSG00000276194'
p125
(lp126
S'HNF1B_homeodomain_full_dimeric_13_1'
p127
aS'HNF1B_homeodomain_full_dimeric_15_1'
p128
aS'HNF1B_MA0153.1'
p129
aS'V$HNF1B_01_M01425'
p130
aS'V$HNF1B_04_M02266'
p131
aS'Tcf2.1'
p132
asS'ENSG00000165495'
p133
(lp134
S'Pknox2.1'
p135
aS'Pknox2_MEIS_DBD_dimeric_12_1'
p136
aS'V$PKNOX2_01_M01411'
p137
asS'ENSG00000171532'
p138
(lp139
S'NEUROD2_bHLH_full_dimeric_10_1'
p140
asS'ENSG00000156150'
p141
(lp142
S'Alx3.1'
p143
aS'ALX3_homeodomain_full_dimeric_13_1'
p144
aS'ALX3_homeodomain_full_monomeric_10_1'
p145
aS'V$ALX3_01_M01355'
p146
aS'V$ALX3_02_M02943'
p147
asS'ENSG00000164683'
p148
(lp149
S'HEY1_bHLH_DBD_dimeric_10_1'
p150
asS'ENSG00000204595'
p151
(lp152
S'DPRX_homeodomain_DBD_monomeric_10_1'
p153
aS'DPRX_homeodomain_DBD_monomeric_11_1'
p154
asS'ENSG00000123095'
p155
(lp156
S'V$DEC2_Q2_M01843'
p157
aS'BHLHB3_bHLH_full_dimeric_10_1'
p158
aS'BHLHE41_bHLH_full_dimeric_10_1'
p159
asS'ENSG00000196812'
p160
(lp161
S'ZNF435_C2H2_full_dimeric_18_1'
p162
asS'ENSG00000164330'
p163
(lp164
S'V$COE1_Q6_M01871'
p165
aS'V$EBF_Q6_M00977'
p166
aS'EBF1_EBF_full_dimeric_14_1'
p167
aS'EBF1_MA0154.1'
p168
aS'V$EBF1_01_M02267'
p169
aS'V$OLF1_01_M00261'
p170
asS'ENSG00000277114'
p171
(lp172
g105
asS'ENSG00000100987'
p173
(lp174
S'V$VSX1_01_M01335'
p175
aS'Vsx1.1'
p176
aS'Vsx1_homeodomain_DBD_monomeric_8_1'
p177
aS'VSX1_homeodomain_DBD_monomeric_8_1'
p178
aS'VSX1_homeodomain_full_monomeric_11_1'
p179
asS'ENSG00000135373'
p180
(lp181
S'Ehf.1'
p182
aS'Ehf.2'
p183
aS'Ehf.3'
p184
aS'EHF_ETS_full_monomeric_12_1'
p185
aS'V$EHF_02_M01974'
p186
aS'V$EHF_03_M02052'
p187
aS'V$EHF_06_M02745'
p188
aS'V$EHF_07_M02849'
p189
asS'ENSG00000266265'
p190
(lp191
S'KLF14_C2H2_DBD_monomeric_14_1'
p192
asS'ENSG00000182759'
p193
(lp194
S'V$LMAF_Q2_M01139'
p195
aS'V$MAFA_Q4_01_M01709'
p196
asS'ENSG00000135374'
p197
(lp198
S'Elf5.1'
p199
aS'ELF5_ETS_full_monomeric_11_1'
p200
aS'ELF5_MA0136.1'
p201
aS'V$ELF5_01_M01197'
p202
aS'V$ELF5_02_M01980'
p203
aS'V$ELF5_03_M02057'
p204
aS'V$ELF5_04_M02241'
p205
asS'ENSG00000196712'
p206
(lp207
S'V$NF1_Q6_01_M00806'
p208
aS'V$NF1_Q6_M00193'
p209
asS'ENSG00000261678'
p210
(lp211
S'SCRT1_C2H2_DBD_monomeric_15_1'
p212
asS'ENSG00000143995'
p213
(lp214
S'Meis1.1'
p215
aS'MEIS1_MEIS_DBD_monomeric_7_1'
p216
aS'V$MEIS1_01_M00419'
p217
aS'V$MEIS1_02_M01419'
p218
asS'ENSG00000102974'
p219
(lp220
S'CTCF_C2H2_full_monomeric_17_1'
p221
aS'CTCF_MA0139.1'
p222
aS'V$CTCF_01_M01200'
p223
aS'V$CTCF_02_M01259'
p224
asS'ENSG00000131759'
p225
(lp226
S'V$NR1B1_Q6_M02110'
p227
aS'Rara.1'
p228
aS'Rara.2'
p229
aS'RARA_nuclearreceptor_DBD_dimeric_18_2'
p230
aS'RARA_nuclearreceptor_full_dimeric_15_1'
p231
aS'RARA_nuclearreceptor_full_dimeric_17_1'
p232
aS'RARA_nuclearreceptor_full_dimeric_18_1'
p233
aS'V$RARA_03_M02787'
p234
aS'V$RARA_04_M02891'
p235
asS'ENSG00000123388'
p236
(lp237
S'Hoxc11.1'
p238
aS'HOXC11_homeodomain_DBD_monomeric_11_1'
p239
aS'HOXC11_homeodomain_full_monomeric_11_1'
p240
aS'HOXC11_homeodomain_full_monomeric_11_2'
p241
aS'V$HOXC11_01_M01329'
p242
asS'ENSG00000204231'
p243
(lp244
S'Rxrb_nuclearreceptor_DBD_dimeric_14_1'
p245
asS'ENSG00000125347'
p246
(lp247
S'V$IRF_Q6_01_M00972'
p248
aS'V$IRF_Q6_M00772'
p249
aS'IRF1_MA0050.1'
p250
aS'V$IRF1_01_M00062'
p251
aS'V$IRF1_Q6_01_M01881'
p252
aS'V$IRF1_Q6_M00747'
p253
asS'ENSG00000166888'
p254
(lp255
S'V$STAT6_01_M00494'
p256
aS'V$STAT6_02_M00500'
p257
asS'ENSG00000168505'
p258
(lp259
S'Gbx2.1'
p260
aS'GBX2_homeodomain_DBD_dimeric_14_1'
p261
aS'GBX2_homeodomain_full_monomeric_10_1'
p262
aS'V$GBX2_01_M01382'
p263
asS'ENSG00000107485'
p264
(lp265
S'Gata3.1'
p266
aS'Gata3.2'
p267
aS'GATA3_GATA_full_monomeric_8_1'
p268
aS'GATA3_MA0037.1'
p269
aS'V$GATA3_01_M00077'
p270
aS'V$GATA3_02_M00350'
p271
aS'V$GATA3_03_M00351'
p272
aS'V$GATA3_05_M02859'
p273
asS'ENSG00000043355'
p274
(lp275
S'V$ZIC2_01_M00449'
p276
aS'V$ZIC2_04_M02836'
p277
aS'V$ZIC2_05_M02940'
p278
aS'Zic2.1'
p279
aS'Zic2.2'
p280
asS'ENSG00000130700'
p281
(lp282
S'Gata5.1'
p283
aS'Gata5.2'
p284
aS'GATA5_GATA_DBD_monomeric_8_1'
p285
aS'V$GATA5_03_M02756'
p286
aS'V$GATA5_04_M02860'
p287
aS'V$GATA5_Q4_M02006'
p288
asS'ENSG00000105996'
p289
(lp290
S'Hoxa2.1'
p291
aS'Hoxa2_homeodomain_DBD_monomeric_10_1'
p292
aS'V$HOXA2_01_M01402'
p293
asS'ENSG00000105997'
p294
(lp295
S'Hoxa3.1'
p296
aS'Hoxa3.2'
p297
aS'Hoxa3.3'
p298
aS'V$HOXA3_01_M00395'
p299
aS'V$HOXA3_02_M01337'
p300
aS'V$HOXA3_07_M02869'
p301
asS'ENSG00000105991'
p302
(lp303
S'Hoxa1.1'
p304
aS'HOXA1_homeodomain_DBD_monomeric_10_1'
p305
aS'V$HOXA1_01_M01487'
p306
asS'ENSG00000005073'
p307
(lp308
S'Hoxa11.1'
p309
aS'Hoxa11_homeodomain_DBD_monomeric_11_1'
p310
aS'Hoxa11_homeodomain_DBD_monomeric_12_1'
p311
aS'V$HOXA11_01_M01378'
p312
asS'ENSG00000102678'
p313
(lp314
S'V$GAF_Q6_M01209'
p315
asS'ENSG00000268041'
p316
(lp317
S'Gm4881.1'
p318
asS'ENSG00000179059'
p319
(lp320
S'V$REX1_01_M01695'
p321
aS'V$REX1_02_M01696'
p322
aS'V$REX1_03_M01744'
p323
asS'ENSG00000123364'
p324
(lp325
S'Hoxc13.1'
p326
aS'HOXC13_homeodomain_DBD_monomeric_10_1'
p327
aS'HOXC13_homeodomain_DBD_monomeric_11_1'
p328
aS'V$HOXC13_01_M01317'
p329
asS'ENSG00000237582'
p330
(lp331
S'V$OCT4_01_M01125'
p332
aS'V$OCT4_02_M01124'
p333
aS'Pou5f1_MA0142.1'
p334
aS'V$POU5F1_01_M01307'
p335
aS'V$POU5F1_02_M02245'
p336
asS'ENSG00000184486'
p337
(lp338
S'V$BRN2_01_M00145'
p339
aS'Pou3f2.1'
p340
aS'POU3F2_POU_DBD_monomeric_12_1'
p341
aS'POU3F2_POU_DBD_monomeric_13_1'
p342
aS'V$POU3F2_01_M00463'
p343
aS'V$POU3F2_02_M00464'
p344
asS'ENSG00000184481'
p345
(lp346
S'FOXO4_forkhead_DBD_dimeric_14_1'
p347
aS'FOXO4_forkhead_DBD_monomeric_7_1'
p348
aS'FOXO4_forkhead_DBD_putatively-multimeric_12_1'
p349
aS'V$FOXO4_01_M00472'
p350
aS'V$FOXO4_02_M00476'
p351
asS'ENSG00000162624'
p352
(lp353
S'Lhx8.1'
p354
aS'Lhx8_homeodomain_DBD_dimeric_12_1'
p355
aS'Lhx8_homeodomain_DBD_dimeric_18_1'
p356
aS'Lhx8_homeodomain_DBD_monomeric_8_1'
p357
aS'V$LHX8_01_M01440'
p358
asS'ENSG00000118260'
p359
(lp360
S'V$CREB_01_M00039'
p361
aS'V$CREB_02_M00113'
p362
aS'V$CREB_Q2_01_M00916'
p363
aS'V$CREB_Q2_M00177'
p364
aS'V$CREB_Q3_M00801'
p365
aS'V$CREB_Q4_01_M00917'
p366
aS'V$CREB_Q4_M00178'
p367
aS'CREB1_MA0018.1'
p368
aS'CREB1_MA0018.2'
p369
aS'V$CREB1_01_M02279'
p370
aS'V$CREBATF_Q6_M00981'
p371
asS'ENSG00000118263'
p372
(lp373
S'Klf7.1'
p374
aS'Klf7.2'
p375
aS'V$KLF7_03_M02773'
p376
aS'V$KLF7_04_M02877'
p377
asS'ENSG00000172468'
p378
(lp379
S'HSFY2_HSF_DBD_dimeric_9_1'
p380
aS'HSFY2_HSF_DBD_dimer-of-dimers_15_1'
p381
asS'ENSG00000118495'
p382
(lp383
S'Plagl1.1'
p384
aS'Plagl1.2'
p385
aS'V$PLAGL1_03_M02786'
p386
aS'V$PLAGL1_04_M02890'
p387
asS'ENSG00000043039'
p388
(lp389
S'Barx2.1'
p390
aS'V$BARX2_01_M01431'
p391
asS'ENSG00000066136'
p392
(lp393
S'V$NFYC_Q5_M02107'
p394
asS'ENSG00000168269'
p395
(lp396
S'FOXI1_forkhead_full_dimeric_17_1'
p397
aS'FOXI1_forkhead_full_monomeric_7_1'
p398
aS'FOXI1_MA0042.1'
p399
aS'V$HFH3_01_M00289'
p400
asS'ENSG00000273943'
p401
(lp402
g105
asS'ENSG00000174282'
p403
(lp404
S'V$ZBTB4_04_M02929'
p405
asS'ENSG00000170365'
p406
(lp407
S'V$SMAD_Q6_01_M00974'
p408
aS'V$SMAD_Q6_M00792'
p409
aS'V$SMAD1_01_M01590'
p410
asS'ENSG00000110777'
p411
(lp412
S'V$OCAB_Q6_M02113'
p413
asS'ENSG00000128272'
p414
(lp415
S'ATF4_bZIP_DBD_dimeric_13_1'
p416
aS'Atf4_bZIP_DBD_dimeric_14_1'
p417
aS'V$ATF4_Q2_M00514'
p418
aS'V$ATF4_Q6_M01864'
p419
asS'ENSG00000171786'
p420
(lp421
S'NHLH1_bHLH_full_dimeric_10_1'
p422
aS'NHLH1_MA0048.1'
p423
asS'ENSG00000105722'
p424
(lp425
S'ERF_ETS_DBD_monomeric_10_1'
p426
aS'V$ERF_01_M01984'
p427
aS'V$ERF_02_M02061'
p428
asS'ENSG00000244405'
p429
(lp430
S'V$ERM_01_M01992'
p431
aS'V$ERM_02_M02069'
p432
aS'Etv5.1'
p433
aS'ETV5_ETS_DBD_monomeric_10_1'
p434
asS'ENSG00000235712'
p435
(lp436
g245
asS'ENSG00000276082'
p437
(lp438
g105
asS'ENSG00000167840'
p439
(lp440
S'ZNF232_C2H2_full_monomeric_19_1'
p441
asS'ENSG00000006704'
p442
(lp443
S'V$BEN_01_M01240'
p444
aS'V$BEN_02_M01241'
p445
aS'V$GTF2IRD1_01_M01229'
p446
asS'ENSG00000274636'
p447
(lp448
S'Glis2.1'
p449
aS'Glis2.2'
p450
aS'GLIS2_C2H2_DBD_monomeric_14_1'
p451
aS'V$GLIS2_03_M02759'
p452
aS'V$GLIS2_04_M02863'
p453
asS'ENSG00000162599'
p454
(lp455
S'V$NF1A_Q6_M02103'
p456
aS'NFIA_NFI_full_dimeric_15_1'
p457
aS'NFIA_NFI_full_monomeric_10_1'
p458
asS'ENSG00000125618'
p459
(lp460
S'V$PAX8_01_M00717'
p461
aS'V$PAX8_B_M00328'
p462
asS'ENSG00000141510'
p463
(lp464
S'V$P53_01_M00034'
p465
aS'V$P53_02_M00272'
p466
aS'V$P53_03_M01651'
p467
aS'V$P53_04_M01652'
p468
aS'V$P53_05_M01655'
p469
aS'V$P53_DECAMER_Q2_M00761'
p470
aS'TP53_MA0106.1'
p471
aS'Tp53_p53l_DBD_dimeric_17_1'
p472
aS'Tp53_p53l_DBD_dimeric_18_1'
p473
aS'Tp53_p53l_DBD_dimeric_18_2'
p474
asS'ENSG00000139651'
p475
(lp476
S'V$ZFP740_03_M02834'
p477
aS'V$ZFP740_04_M02938'
p478
aS'Zfp740.1'
p479
aS'Zfp740.2'
p480
aS'Zfp740_C2H2_DBD_monomeric_10_1'
p481
aS'ZNF740_C2H2_full_monomeric_10_1'
p482
asS'ENSG00000121068'
p483
(lp484
S'TBX2_TBX_full_dimeric_18_1'
p485
aS'TBX2_TBX_full_monomeric_11_1'
p486
asS'ENSG00000129152'
p487
(lp488
S'Myf_MA0055.1'
p489
aS'V$MYF_01_M01302'
p490
aS'V$MYOD_01_M00001'
p491
aS'V$MYOD_Q6_01_M00929'
p492
aS'V$MYOD_Q6_02_M02100'
p493
aS'V$MYOD_Q6_M00184'
p494
asS'ENSG00000171862'
p495
(lp496
S'V$DEC_Q1_M00997'
p497
asS'ENSG00000135100'
p498
(lp499
S'HNF1A_homeodomain_full_dimeric_15_1'
p500
aS'HNF1A_MA0046.1'
p501
aS'V$HNF1A_01_M02162'
p502
aS'V$HNF1A_Q5_M02013'
p503
aS'V$LEF1TCF1_Q4_M00978'
p504
aS'Tcf1.2'
p505
aS'Tcf1.3'
p506
aS'V$TCF1_06_M02815'
p507
aS'V$TCF1_07_M02919'
p508
aS'V$HNF1_01_M00132'
p509
aS'V$HNF1_02_M01379'
p510
aS'V$HNF1_C_M00206'
p511
aS'V$HNF1_Q6_01_M01011'
p512
aS'V$HNF1_Q6_M00790'
p513
asS'ENSG00000081189'
p514
(lp515
S'V$MEF2C_Q4_M02025'
p516
asS'ENSG00000064195'
p517
(lp518
S'Dlx3.1'
p519
aS'DLX3_homeodomain_DBD_monomeric_8_1'
p520
aS'V$DLX3_01_M01400'
p521
aS'V$DLX3_02_M02051'
p522
asS'ENSG00000283868'
p523
(lp524
g405
asS'ENSG00000187140'
p525
(lp526
S'FOXD3_forkhead_DBD_dimeric_14_1'
p527
aS'FOXD3_forkhead_DBD_monomeric_7_1'
p528
aS'Foxd3_MA0041.1'
p529
aS'V$FOXD3_01_M00130'
p530
asS'ENSG00000185610'
p531
(lp532
S'Dbx2.1'
p533
aS'V$DBX2_01_M01360'
p534
asS'ENSG00000170561'
p535
(lp536
S'Irx2.1'
p537
aS'IRX2_homeodomain_DBD_dimeric_12_1'
p538
aS'V$IRX2_01_M01405'
p539
asS'ENSG00000282712'
p540
(lp541
S'V$DEAF1_01_M01001'
p542
aS'V$DEAF1_02_M01002'
p543
asS'ENSG00000118922'
p544
(lp545
S'V$AP2REP_01_M00468'
p546
aS'Klf12_C2H2_DBD_monomeric_15_1'
p547
asS'ENSG00000088038'
p548
(lp549
g105
asS'ENSG00000136535'
p550
(lp551
S'TBR1_TBX_DBD_monomeric_10_1'
p552
aS'TBR1_TBX_full_monomeric_11_1'
p553
asS'ENSG00000165702'
p554
(lp555
S'V$GFI1B_01_M01058'
p556
asS'ENSG00000179348'
p557
(lp558
S'GATA2_MA0036.1'
p559
aS'V$GATA2_01_M00076'
p560
aS'V$GATA2_02_M00348'
p561
aS'V$GATA2_03_M00349'
p562
asS'ENSG00000109906'
p563
(lp564
S'V$PLZF_02_M01075'
p565
asS'ENSG00000129514'
p566
(lp567
S'FOXA1_MA0148.1'
p568
aS'V$HNF3_Q6_01_M01012'
p569
aS'V$HNF3_Q6_M00791'
p570
aS'V$HNF3A_01_M01261'
p571
aS'V$HNF3ALPHA_Q6_M00724'
p572
asS'ENSG00000134323'
p573
(lp574
S'Mycn_MA0104.1'
p575
aS'Mycn_MA0104.2'
p576
aS'V$MYCN_01_M02259'
p577
aS'V$NMYC_01_M00055'
p578
aS'V$NMYC_02_M01808'
p579
asS'ENSG00000156273'
p580
(lp581
S'V$BACH1_01_M00495'
p582
asS'ENSG00000143032'
p583
(lp584
S'Barhl2.1'
p585
aS'BARHL2_homeodomain_full_dimeric_16_1'
p586
aS'BARHL2_homeodomain_full_monomeric_10_1'
p587
aS'V$BARHL2_01_M01446'
p588
asS'ENSG00000137270'
p589
(lp590
S'V$GCM_Q2_M00634'
p591
aS'Gcm1.1'
p592
aS'Gcm1.2'
p593
aS'GCM1_GCM_DBD_monomeric_10_1'
p594
aS'GCM1_GCM_full_dimeric_16_1'
p595
aS'GCM1_GCM_full_monomeric_11_1'
p596
aS'V$GCM1_03_M02758'
p597
aS'V$GCM1_04_M02862'
p598
asS'ENSG00000183733'
p599
(lp600
S'FIGLA_bHLH_DBD_dimeric_10_1'
p601
asS'ENSG00000186564'
p602
(lp603
S'FOXD2_forkhead_DBD_dimeric_14_1'
p604
aS'FOXD2_forkhead_DBD_monomeric_7_1'
p605
asS'ENSG00000198740'
p606
(lp607
S'Zfp652_C2H2_DBD_monomeric_13_1'
p608
asS'ENSG00000175197'
p609
(lp610
S'V$CHOP_01_M00249'
p611
asS'ENSG00000052850'
p612
(lp613
S'Alx4.1'
p614
aS'Alx4_homeodomain_DBD_dimeric_13_1'
p615
aS'V$ALX4_01_M00619'
p616
aS'V$ALX4_02_M01417'
p617
aS'V$ALX4_03_M02944'
p618
asS'ENSG00000184937'
p619
(lp620
S'V$WT1_Q6_01_M02036'
p621
aS'V$WT1_Q6_M01118'
p622
asS'ENSG00000144852'
p623
(lp624
S'V$PXR_Q2_M00964'
p625
asS'ENSG00000137265'
p626
(lp627
S'Irf4.1'
p628
aS'Irf4.2'
p629
aS'IRF4_IRF_full_dimeric_15_1'
p630
aS'V$IRF4_03_M02768'
p631
aS'V$IRF4_04_M02872'
p632
aS'V$IRF4_Q6_M01883'
p633
asS'ENSG00000118526'
p634
(lp635
S'Tcf21_bHLH_DBD_dimeric_14_1'
p636
asS'ENSG00000230336'
p637
(lp638
g332
ag333
ag334
ag335
ag336
asS'ENSG00000164379'
p639
(lp640
S'Foxq1_MA0040.1'
p641
aS'V$HFH1_01_M00129'
p642
asS'ENSG00000196843'
p643
(lp644
S'Arid5a.1'
p645
aS'Arid5a.2'
p646
aS'V$ARID5A_03_M02736'
p647
aS'V$ARID5A_04_M02840'
p648
asS'ENSG00000172789'
p649
(lp650
S'Hoxc5.1'
p651
aS'V$HOXC5_01_M01454'
p652
asS'ENSG00000103495'
p653
(lp654
S'V$MAZ_Q6_01_M02023'
p655
aS'V$MAZ_Q6_M00649'
p656
asS'ENSG00000175745'
p657
(lp658
S'NR2F1_MA0017.1'
p659
aS'NR2F1_nuclearreceptor_DBD_dimeric_15_1'
p660
aS'NR2F1_nuclearreceptor_DBD_dimeric_16_1'
p661
aS'NR2F1_nuclearreceptor_DBD_monomeric_13_1'
p662
aS'NR2F1_nuclearreceptor_full_monomeric_8_1'
p663
aS'V$COUP_01_M00158'
p664
aS'V$COUP_DR1_Q6_M00765'
p665
aS'V$COUPTF_Q6_M01036'
p666
asS'ENSG00000182158'
p667
(lp668
S'Creb3l2_bZIP_DBD_dimeric_12_1'
p669
aS'Creb3l2_bZIP_DBD_dimeric_13_1'
p670
asS'ENSG00000134138'
p671
(lp672
S'Meis2_MEIS_DBD_dimeric_12_1'
p673
aS'MEIS2_MEIS_DBD_dimeric_14_1'
p674
aS'Meis2_MEIS_DBD_monomeric_7_1'
p675
aS'MEIS2_MEIS_DBD_monomeric_8_1'
p676
aS'V$MEIS2_01_M01488'
p677
aS'Mrg1.1'
p678
asS'ENSG00000113916'
p679
(lp680
S'V$BCL6_01_M01183'
p681
aS'V$BCL6_02_M01185'
p682
aS'V$BCL6_Q3_01_M02085'
p683
aS'V$BCL6_Q3_M01171'
p684
asS'ENSG00000163623'
p685
(lp686
S'V$NKX61_01_M00424'
p687
aS'V$NKX61_02_M01469'
p688
aS'V$NKX61_03_M01489'
p689
aS'Nkx6-1.2'
p690
aS'NKX6-1_homeodomain_full_monomeric_8_1'
p691
asS'ENSG00000068323'
p692
(lp693
S'TFE3_bHLH_DBD_dimeric_10_1'
p694
asS'ENSG00000064218'
p695
(lp696
S'V$DMRT3_01_M01148'
p697
asS'ENSG00000102935'
p698
(lp699
S'V$ROAZ_01_M00467'
p700
aS'Zfp423_MA0116.1'
p701
asS'ENSG00000123268'
p702
(lp703
S'V$ATF_01_M00017'
p704
aS'V$ATF_B_M00338'
p705
aS'Atf1.1'
p706
aS'Atf1.2'
p707
aS'V$ATF1_03_M02738'
p708
aS'V$ATF1_04_M02842'
p709
aS'V$ATF1_Q6_01_M01861'
p710
aS'V$ATF1_Q6_M00691'
p711
asS'ENSG00000111783'
p712
(lp713
S'Rfx4.1'
p714
aS'RFX4_RFX_DBD_dimeric_15_1'
p715
aS'RFX4_RFX_DBD_dimeric_16_1'
p716
aS'V$RFX4_03_M02789'
p717
aS'V$RFX4_04_M02893'
p718
asS'ENSG00000106511'
p719
(lp720
S'MEOX2_homeodomain_DBD_dimeric_14_1'
p721
aS'MEOX2_homeodomain_DBD_dimeric_17_1'
p722
aS'MEOX2_homeodomain_DBD_monomeric_10_1'
p723
aS'Meox2_homeodomain_DBD_monomeric_8_1'
p724
asS'ENSG00000171443'
p725
(lp726
S'ZNF524_C2H2_full_dimeric_12_1'
p727
aS'ZNF524_C2H2_full_monomeric_14_1'
p728
asS'ENSG00000196767'
p729
(lp730
S'V$BRN4_01_M01473'
p731
aS'Pou3f4.1'
p732
aS'POU3F4_POU_DBD_monomeric_11_1'
p733
aS'POU3F4_POU_DBD_monomeric_9_1'
p734
asS'ENSG00000153879'
p735
(lp736
S'CEBPG_bZIP_full_dimeric_10_1'
p737
aS'V$CEBPG_Q6_01_M01869'
p738
aS'V$CEBPG_Q6_M00622'
p739
asS'ENSG00000164651'
p740
(lp741
S'SP8_C2H2_DBD_monomeric_12_1'
p742
asS'ENSG00000206289'
p743
(lp744
g245
asS'ENSG00000186130'
p745
(lp746
S'V$ZID_01_M00085'
p747
asS'ENSG00000119919'
p748
(lp749
S'V$NKX23_01_M01457'
p750
aS'Nkx2-3.1'
p751
aS'NKX2-3_homeodomain_full_monomeric_10_1'
p752
asS'ENSG00000258289'
p753
(lp754
S'V$CHCH_01_M00986'
p755
asS'ENSG00000067066'
p756
(lp757
S'Sp100.1'
p758
aS'Sp100.2'
p759
aS'V$SP100_03_M02809'
p760
aS'V$SP100_04_M02913'
p761
asS'ENSG00000197483'
p762
(lp763
S'V$ZEC_01_M01081'
p764
asS'ENSG00000118513'
p765
(lp766
S'V$CMYB_01_M00004'
p767
aS'V$CMYB_Q5_M01821'
p768
aS'Myb.1'
p769
aS'Myb.2'
p770
aS'Myb_MA0100.1'
p771
aS'V$MYB_03_M02883'
p772
aS'V$MYB_05_M02779'
p773
aS'V$MYB_Q3_M00773'
p774
aS'V$MYB_Q5_01_M00913'
p775
aS'V$MYB_Q6_M00183'
p776
aS'V$VMYB_01_M00003'
p777
aS'V$VMYB_02_M00227'
p778
asS'ENSG00000260027'
p779
(lp780
S'Hoxb7.1'
p781
aS'V$HOXB7_01_M01396'
p782
asS'ENSG00000198807'
p783
(lp784
S'PAX9_PAX_DBD_monomeric_17_1'
p785
aS'V$PAX9_B_M00329'
p786
asS'ENSG00000204531'
p787
(lp788
g332
ag333
ag334
ag335
ag336
asS'ENSG00000126603'
p789
(lp790
g449
ag450
ag451
ag452
ag453
asS'ENSG00000117707'
p791
(lp792
S'PROX1_PROX_DBD_dimeric_12_1'
p793
asS'ENSG00000205250'
p794
(lp795
S'E2F4_E2F_DBD_dimeric_12_2'
p796
aS'V$E2F4_04_M02847'
p797
aS'V$E2F4_Q6_M02090'
p798
asS'ENSG00000126767'
p799
(lp800
S'Elk1.1'
p801
aS'ELK1_ETS_full_dimeric_17_1'
p802
aS'ELK1_ETS_full_monomeric_10_1'
p803
aS'ELK1_MA0028.1'
p804
aS'V$ELK1_01_M00007'
p805
aS'V$ELK1_02_M00025'
p806
aS'V$ELK1_03_M01163'
p807
aS'V$ELK1_04_M01165'
p808
aS'V$ELK1_05_M01981'
p809
aS'V$ELK1_06_M02059'
p810
asS'ENSG00000131668'
p811
(lp812
S'Barx1.1'
p813
aS'BARX1_homeodomain_DBD_dimeric_17_1'
p814
aS'BARX1_homeodomain_DBD_monomeric_8_1'
p815
aS'V$BARX1_01_M01340'
p816
asS'ENSG00000101057'
p817
(lp818
S'MYBL2_MYB_DBD_dimeric_14_1'
p819
aS'MYBL2_MYB_DBD_dimeric_15_1'
p820
aS'MYBL2_MYB_DBD_dimeric_16_1'
p821
aS'MYBL2_MYB_DBD_monomeric_11_1'
p822
asS'ENSG00000069011'
p823
(lp824
S'Pitx1.1'
p825
aS'PITX1_homeodomain_full_monomeric_8_1'
p826
aS'PITX1_homeodomain_full_monomeric_9_1'
p827
aS'V$PITX1_01_M01484'
p828
aS'V$PITX1_Q6_M01826'
p829
asS'ENSG00000269404'
p830
(lp831
S'SPIB_ETS_DBD_monomeric_14_1'
p832
aS'SPIB_MA0081.1'
p833
aS'V$SPIB_01_M01204'
p834
aS'V$SPIB_02_M02041'
p835
aS'V$SPIB_03_M02076'
p836
asS'ENSG00000179456'
p837
(lp838
S'V$RP58_01_M00532'
p839
aS'ZNF238_C2H2_full_monomeric_13_1'
p840
asS'ENSG00000114315'
p841
(lp842
S'V$HES1_Q2_M01009'
p843
aS'V$HES1_Q6_M02011'
p844
asS'ENSG00000072736'
p845
(lp846
S'V$NFAT4_Q3_M01886'
p847
asS'ENSG00000175325'
p848
(lp849
S'Prop1.1'
p850
aS'PROP1_homeodomain_full_dimeric_11_1'
p851
aS'V$PROP1_01_M01294'
p852
aS'V$PROP1_02_M01320'
p853
asS'ENSG00000037965'
p854
(lp855
S'Hoxc8.1'
p856
aS'V$HOXC8_01_M01321'
p857
asS'ENSG00000085276'
p858
(lp859
S'Evi1_MA0029.1'
p860
aS'V$EVI1_01_M00078'
p861
aS'V$EVI1_02_M00079'
p862
aS'V$EVI1_03_M00080'
p863
aS'V$EVI1_04_M00081'
p864
aS'V$EVI1_05_M00082'
p865
aS'V$EVI1_06_M00011'
p866
aS'V$EVI1_Q3_M02002'
p867
asS'ENSG00000139083'
p868
(lp869
S'Etv6.1'
p870
aS'ETV6_ETS_full_dimeric_15_1'
p871
aS'ETV6_ETS_full_monomeric_10_1'
p872
aS'V$TEL1_01_M01993'
p873
aS'V$TEL1_02_M02070'
p874
asS'ENSG00000164093'
p875
(lp876
S'V$ARP1_01_M00155'
p877
aS'Pitx2.1'
p878
aS'V$PITX2_01_M01447'
p879
aS'V$PITX2_Q2_M00482'
p880
aS'V$PITX2_Q6_M02114'
p881
asS'ENSG00000125398'
p882
(lp883
S'SOX9_HMG_DBD_monomeric_9_1'
p884
aS'SOX9_HMG_full_dimeric_16_1'
p885
aS'SOX9_HMG_full_dimeric_16_3'
p886
aS'SOX9_HMG_full_dimeric_17_1'
p887
aS'SOX9_HMG_full_dimeric_17_3'
p888
aS'SOX9_MA0077.1'
p889
aS'V$SOX9_B1_M00410'
p890
aS'V$SOX9_Q4_M01284'
p891
asS'ENSG00000140044'
p892
(lp893
S'JDP2_bZIP_full_dimeric_12_1'
p894
aS'JDP2_bZIP_full_dimeric_9_1'
p895
aS'Jundm2.1'
p896
asS'ENSG00000184895'
p897
(lp898
S'Sry.1'
p899
aS'Sry.2'
p900
aS'SRY_HMG_DBD_dimeric_13_1'
p901
aS'SRY_HMG_DBD_dimeric_13_2'
p902
aS'SRY_HMG_DBD_dimeric_15_1'
p903
aS'SRY_HMG_DBD_dimeric_16_1'
p904
aS'SRY_MA0084.1'
p905
aS'V$SRY_01_M00148'
p906
aS'V$SRY_02_M00160'
p907
aS'V$SRY_05_M02917'
p908
aS'V$SRY_07_M02813'
p909
asS'ENSG00000111046'
p910
(lp911
S'Myf6.1'
p912
aS'Myf6.2'
p913
aS'MYF6_bHLH_full_dimeric_10_1'
p914
aS'V$MYF6_03_M02781'
p915
aS'V$MYF6_04_M02885'
p916
asS'ENSG00000178573'
p917
(lp918
S'V$CMAF_01_M01070'
p919
aS'V$CMAF_02_M01228'
p920
aS'V$MAF_Q6_01_M00983'
p921
aS'V$MAF_Q6_M00648'
p922
aS'V$VMAF_01_M00035'
p923
asS'ENSG00000140009'
p924
(lp925
S'V$ERBETA_Q5_M01875'
p926
aS'ESR2_MA0258.1'
p927
aS'V$ESR2_01_M02377'
p928
asS'ENSG00000118217'
p929
(lp930
S'V$ATF6_01_M00483'
p931
asS'ENSG00000115112'
p932
(lp933
S'V$LBP9_01_M01592'
p934
aS'Tcfcp2l1_MA0145.1'
p935
asS'ENSG00000179922'
p936
(lp937
S'ZNF784_C2H2_full_monomeric_10_1'
p938
asS'ENSG00000115816'
p939
(lp940
S'V$CBF_01_M01079'
p941
aS'V$CBF_02_M01080'
p942
aS'V$COREBINDINGFACTOR_Q6_M00722'
p943
asS'ENSG00000184828'
p944
(lp945
S'ZBTB7C_C2H2_full_monomeric_12_1'
p946
asS'ENSG00000016082'
p947
(lp948
S'V$ISL1_Q6_M01127'
p949
asS'ENSG00000169840'
p950
(lp951
S'GSX1_homeodomain_DBD_monomeric_10_1'
p952
asS'ENSG00000170689'
p953
(lp954
S'Hoxb9.1'
p955
aS'V$HOXB9_01_M01426'
p956
asS'ENSG00000214575'
p957
(lp958
S'CPEB1_RRM_full_monomeric_8_1'
p959
asS'ENSG00000125482'
p960
(lp961
S'V$TTF1_Q5_M02034'
p962
aS'V$TTF1_Q6_M00794'
p963
asS'ENSG00000158711'
p964
(lp965
S'Elk4.1'
p966
aS'ELK4_ETS_DBD_monomeric_10_1'
p967
aS'ELK4_MA0076.1'
p968
asS'ENSG00000113430'
p969
(lp970
S'Irx4.1'
p971
aS'V$IRX4_01_M01410'
p972
asS'ENSG00000152977'
p973
(lp974
S'V$ZIC1_01_M00448'
p975
aS'V$ZIC1_04_M02835'
p976
aS'V$ZIC1_05_M02939'
p977
aS'Zic1.1'
p978
aS'Zic1.2'
p979
aS'ZIC1_C2H2_full_monomeric_14_1'
p980
asS'ENSG00000007866'
p981
(lp982
S'TEAD3_TEA_DBD_dimeric_17_1'
p983
aS'TEAD3_TEA_DBD_monomeric_8_1'
p984
asS'ENSG00000151702'
p985
(lp986
S'Fli1.1'
p987
aS'FLI1_ETS_full_monomeric_10_1'
p988
aS'FLI1_ETS_full_monomeric_14_1'
p989
aS'V$FLI1_01_M02038'
p990
aS'V$FLI1_02_M02073'
p991
aS'V$FLI1_Q6_M01208'
p992
asS'ENSG00000101883'
p993
(lp994
S'RHOXF1_homeodomain_full_dimeric_9_1'
p995
aS'RHOXF1_homeodomain_full_monomeric_8_1'
p996
asS'ENSG00000100644'
p997
(lp998
S'V$HIF1_Q3_M00797'
p999
aS'V$HIF1_Q5_M00466'
p1000
aS'V$HIF1A_Q6_M02012'
p1001
asS'ENSG00000182968'
p1002
(lp1003
S'V$SOX_01_M01286'
p1004
aS'V$SOX_Q6_M01014'
p1005
aS'Sox1.1'
p1006
aS'Sox1.2'
p1007
aS'Sox1_HMG_DBD_dimeric_13_1'
p1008
aS'Sox1_HMG_DBD_dimeric_14_1'
p1009
aS'Sox1_HMG_DBD_dimeric_15_1'
p1010
aS'Sox1_HMG_DBD_dimeric_15_2'
p1011
aS'V$SOX1_03_M02802'
p1012
aS'V$SOX1_04_M02906'
p1013
asS'ENSG00000106546'
p1014
(lp1015
S'V$AHR_01_M00139'
p1016
aS'V$AHR_Q5_M00778'
p1017
aS'V$AHR_Q6_M01855'
p1018
aS'V$AHRARNT_01_M00235'
p1019
aS'V$AHRARNT_02_M00237'
p1020
asS'ENSG00000164920'
p1021
(lp1022
S'Osr2.1'
p1023
aS'Osr2.2'
p1024
aS'V$OSR2_03_M02785'
p1025
aS'V$OSR2_04_M02889'
p1026
asS'ENSG00000281306'
p1027
(lp1028
S'V$ZFP105_03_M02827'
p1029
aS'V$ZFP105_04_M02931'
p1030
aS'Zfp105.1'
p1031
aS'Zfp105.2'
p1032
asS'ENSG00000253293'
p1033
(lp1034
S'Hoxa10.1'
p1035
aS'HOXA10_homeodomain_DBD_monomeric_11_1'
p1036
aS'HOXA10_homeodomain_DBD_monomeric_12_1'
p1037
aS'V$HOXA10_01_M01464'
p1038
asS'ENSG00000137309'
p1039
(lp1040
S'V$HMGIY_01_M01653'
p1041
aS'V$HMGIY_Q3_M01010'
p1042
aS'V$HMGIY_Q4_M01879'
p1043
aS'V$HMGIY_Q6_M00750'
p1044
asS'ENSG00000121075'
p1045
(lp1046
S'TBX4_TBX_DBD_dimeric_20_1'
p1047
aS'TBX4_TBX_DBD_monomeric_8_1'
p1048
asS'ENSG00000198081'
p1049
(lp1050
S'V$ZF5_01_M00716'
p1051
aS'V$ZF5_B_M00333'
p1052
aS'V$ZFP161_04_M02933'
p1053
aS'Zfp161.1'
p1054
aS'Zfp161.2'
p1055
asS'ENSG00000008196'
p1056
(lp1057
S'V$AP2BETA_Q3_M01858'
p1058
aS'Tcfap2b.1'
p1059
aS'Tcfap2b.2'
p1060
aS'V$TCFAP2B_03_M02820'
p1061
aS'V$TCFAP2B_04_M02924'
p1062
aS'TFAP2B_TFAP_DBD_dimeric_11_1'
p1063
aS'TFAP2B_TFAP_DBD_dimeric_12_1'
p1064
aS'TFAP2B_TFAP_DBD_dimeric_13_1'
p1065
asS'ENSG00000137090'
p1066
(lp1067
S'V$DMRT1_01_M01146'
p1068
asS'ENSG00000125820'
p1069
(lp1070
S'V$NKX22_01_M00485'
p1071
aS'V$NKX22_02_M01372'
p1072
aS'Nkx2-2.1'
p1073
aS'V$NKX2B_Q3_M02109'
p1074
asS'ENSG00000176678'
p1075
(lp1076
S'Foxl1.1'
p1077
aS'Foxl1.2'
p1078
aS'FOXL1_forkhead_full_dimeric_13_1'
p1079
aS'FOXL1_forkhead_full_monomeric_7_1'
p1080
aS'FOXL1_MA0033.1'
p1081
aS'V$FOXL1_02_M02857'
p1082
aS'V$FOXL1_04_M02753'
p1083
aS'V$FREAC7_01_M00293'
p1084
asS'ENSG00000274803'
p1085
(lp1086
S'V$BDP1_01_M01796'
p1087
asS'ENSG00000186350'
p1088
(lp1089
S'V$PXRRXR_01_M01152'
p1090
aS'V$PXRRXR_02_M01153'
p1091
aS'Rxra.1'
p1092
aS'Rxra.2'
p1093
aS'Rxra_nuclearreceptor_DBD_dimeric_12_1'
p1094
aS'RXRA_nuclearreceptor_DBD_dimeric_14_2'
p1095
aS'RXRA_nuclearreceptor_full_dimeric_14_1'
p1096
aS'RXRA_nuclearreceptor_full_dimeric_14_2'
p1097
aS'V$RXRA_03_M02791'
p1098
aS'V$RXRA_04_M02895'
p1099
aS'V$RXRLXRB_01_M01198'
p1100
aS'V$VDRRXR_01_M01202'
p1101
asS'ENSG00000113722'
p1102
(lp1103
S'V$CDX_Q5_M00991'
p1104
aS'Cdx1.1'
p1105
aS'CDX1_homeodomain_DBD_monomeric_9_1'
p1106
aS'V$CDX1_01_M01373'
p1107
aS'V$CDX1_Q5_M02086'
p1108
asS'ENSG00000039600'
p1109
(lp1110
S'Sox30.1'
p1111
aS'Sox30.2'
p1112
aS'V$SOX30_03_M02804'
p1113
asS'ENSG00000171956'
p1114
(lp1115
S'FOXB1_forkhead_DBD_dimeric_18_1'
p1116
aS'FOXB1_forkhead_DBD_monomeric_11_1'
p1117
aS'FOXB1_forkhead_DBD_putative-multimer_14_1'
p1118
aS'FOXB1_forkhead_full_monomeric_9_1'
p1119
asS'ENSG00000111704'
p1120
(lp1121
S'V$NANOG_01_M01123'
p1122
aS'V$NANOG_02_M01247'
p1123
asS'ENSG00000140262'
p1124
(lp1125
S'V$HEB_Q6_M00698'
p1126
aS'V$HTF4_Q2_M02018'
p1127
asS'ENSG00000116604'
p1128
(lp1129
S'MEF2D_MADS_DBD_dimeric_12_1'
p1130
aS'V$MEF2D_Q4_M02026'
p1131
asS'ENSG00000112242'
p1132
(lp1133
S'E2F3.1'
p1134
aS'E2F3.2'
p1135
aS'E2F3_E2F_DBD_dimeric_18_2'
p1136
aS'E2F3_E2F_DBD_dimeric_18_3'
p1137
aS'V$E2F3_03_M02743'
p1138
aS'V$E2F3_Q6_M02089'
p1139
asS'ENSG00000106410'
p1140
(lp1141
S'Nobox_MA0125.1'
p1142
aS'V$OG2_01_M01162'
p1143
aS'V$OG2_02_M01441'
p1144
aS'Og2x.1'
p1145
asS'ENSG00000175329'
p1146
(lp1147
S'Isx.1'
p1148
aS'ISX_homeodomain_DBD_dimeric_13_1'
p1149
aS'ISX_homeodomain_full_monomeric_8_1'
p1150
aS'V$ISX_01_M01331'
p1151
asS'ENSG00000106331'
p1152
(lp1153
S'Pax4.1'
p1154
aS'Pax4_MA0068.1'
p1155
aS'PAX4_PAX_full_monomeric_8_1'
p1156
aS'V$PAX4_01_M00373'
p1157
aS'V$PAX4_02_M00377'
p1158
aS'V$PAX4_03_M00378'
p1159
aS'V$PAX4_04_M00380'
p1160
aS'V$PAX4_05_M01385'
p1161
asS'ENSG00000020633'
p1162
(lp1163
S'V$AML2_01_M01759'
p1164
aS'V$AML2_Q3_01_M01854'
p1165
aS'V$AML2_Q3_M01814'
p1166
aS'RUNX3_RUNX_DBD_dimeric_16_1'
p1167
aS'RUNX3_RUNX_DBD_dimeric_18_1'
p1168
aS'RUNX3_RUNX_full_monomeric_10_1'
p1169
asS'ENSG00000089116'
p1170
(lp1171
S'Lhx5.1'
p1172
aS'V$LHX5_01_M01353'
p1173
asS'ENSG00000278129'
p1174
(lp1175
S'V$ZFP128_03_M02828'
p1176
aS'V$ZFP128_04_M02932'
p1177
aS'Zfp128.1'
p1178
aS'Zfp128.2'
p1179
asS'ENSG00000130182'
p1180
(lp1181
S'V$ZFP206_01_M01742'
p1182
asS'ENSG00000182742'
p1183
(lp1184
S'Hoxb4.1'
p1185
aS'V$HOXB4_01_M01424'
p1186
asS'ENSG00000138083'
p1187
(lp1188
S'Six3.1'
p1189
aS'V$SIX3_01_M01358'
p1190
asS'ENSG00000125850'
p1191
(lp1192
S'V$MOVOB_01_M01104'
p1193
asS'ENSG00000135363'
p1194
(lp1195
S'V$LMO2COM_01_M00277'
p1196
aS'V$LMO2COM_02_M00278'
p1197
asS'ENSG00000128604'
p1198
(lp1199
S'Irf5.1'
p1200
aS'Irf5.2'
p1201
aS'IRF5_IRF_full_dimeric_14_1'
p1202
aS'IRF5_IRF_full_monomeric_11_1'
p1203
aS'V$IRF5_03_M02769'
p1204
aS'V$IRF5_04_M02873'
p1205
asS'ENSG00000105866'
p1206
(lp1207
S'Sp4.1'
p1208
aS'Sp4.2'
p1209
aS'SP4_C2H2_full_monomeric_17_1'
p1210
aS'V$SP4_03_M02810'
p1211
aS'V$SP4_04_M02914'
p1212
aS'V$SP4_Q5_M01273'
p1213
asS'ENSG00000116833'
p1214
(lp1215
S'V$LRH1_Q5_01_M02098'
p1216
aS'V$LRH1_Q5_M01142'
p1217
asS'ENSG00000234852'
p1218
(lp1219
S'V$ZBTB12_03_M02824'
p1220
aS'V$ZBTB12_04_M02928'
p1221
aS'Zbtb12.1'
p1222
aS'Zbtb12.2'
p1223
asS'ENSG00000134107'
p1224
(lp1225
S'Bhlhb2.1'
p1226
aS'Bhlhb2.2'
p1227
aS'Bhlhb2_bHLH_DBD_dimeric_10_1'
p1228
aS'Bhlhb2_bHLH_DBD_monomeric_10_1'
p1229
aS'V$BHLHB2_04_M02845'
p1230
asS'ENSG00000169057'
p1231
(lp1232
S'V$MECP2_01_M01298'
p1233
aS'V$MECP2_02_M01299'
p1234
asS'ENSG00000143842'
p1235
(lp1236
S'Sox13.1'
p1237
aS'Sox13.2'
p1238
aS'V$SOX13_03_M02797'
p1239
asS'ENSG00000177606'
p1240
(lp1241
S'AP1_MA0099.2'
p1242
aS'V$AP1_01_M00517'
p1243
aS'V$AP1_02_M02280'
p1244
aS'V$AP1_C_M00199'
p1245
aS'V$AP1_Q2_01_M00924'
p1246
aS'V$AP1_Q2_M00173'
p1247
aS'V$AP1_Q4_01_M00926'
p1248
aS'V$AP1_Q4_M00188'
p1249
aS'V$AP1_Q6_01_M00925'
p1250
aS'V$AP1_Q6_M00174'
p1251
aS'V$AP1FJ_Q2_M00172'
p1252
aS'Jundm2.2'
p1253
aS'V$JUNDM2_03_M02772'
p1254
aS'V$JUNDM2_04_M02876'
p1255
aS'V$VJUN_01_M00036'
p1256
asS'ENSG00000064489'
p1257
(lp1258
S'MEF2B_MADS_full_dimeric_12_1'
p1259
asS'ENSG00000109381'
p1260
(lp1261
S'Elf2.1'
p1262
aS'V$ELF2_02_M02054'
p1263
aS'V$NERF_01_M01976'
p1264
aS'V$NERF_Q2_M00531'
p1265
asS'ENSG00000197587'
p1266
(lp1267
S'Dmbx1.1'
p1268
aS'DMBX1_homeodomain_DBD_monomeric_10_1'
p1269
asS'ENSG00000185811'
p1270
(lp1271
S'V$IK1_01_M00086'
p1272
aS'V$LYF1_01_M00141'
p1273
asS'ENSG00000054598'
p1274
(lp1275
S'Foxc1_forkhead_DBD_dimeric_11_1'
p1276
aS'FOXC1_forkhead_DBD_dimeric_13_1'
p1277
aS'FOXC1_forkhead_DBD_dimeric_14_1'
p1278
aS'FOXC1_forkhead_DBD_monomeric_11_1'
p1279
aS'Foxc1_forkhead_DBD_monomeric_7_1'
p1280
aS'FOXC1_MA0032.1'
p1281
aS'V$FREAC3_01_M00291'
p1282
asS'ENSG00000177732'
p1283
(lp1284
S'Sox12.1'
p1285
aS'Sox12.2'
p1286
aS'V$SOX12_03_M02796'
p1287
aS'V$SOX12_04_M02900'
p1288
asS'ENSG00000111087'
p1289
(lp1290
S'V$GLI_Q2_M01037'
p1291
aS'V$GLI1_01_M01702'
p1292
aS'V$GLI1_Q2_M01042'
p1293
asS'ENSG00000012048'
p1294
(lp1295
S'V$BRCA_01_M01082'
p1296
aS'BRCA1_MA0133.1'
p1297
asS'ENSG00000229094'
p1298
(lp1299
g332
ag333
ag334
ag335
ag336
asS'ENSG00000122877'
p1300
(lp1301
S'EGR2_C2H2_DBD_monomeric_11_1'
p1302
aS'EGR2_C2H2_full_monomeric_15_1'
p1303
aS'V$EGR2_01_M00246'
p1304
aS'V$EGR2_Q6_M02092'
p1305
asS'ENSG00000116819'
p1306
(lp1307
S'Tcfap2e.1'
p1308
aS'Tcfap2e.2'
p1309
aS'V$TCFAP2E_03_M02822'
p1310
aS'V$TCFAP2E_04_M02926'
p1311
asS'ENSG00000183734'
p1312
(lp1313
S'Ascl2.1'
p1314
aS'Ascl2.2'
p1315
aS'Ascl2_bHLH_DBD_dimeric_10_1'
p1316
aS'V$ASCL2_03_M02737'
p1317
aS'V$ASCL2_04_M02841'
p1318
asS'ENSG00000168826'
p1319
(lp1320
S'ZBTB49_C2H2_DBD_monomeric_17_1'
p1321
asS'ENSG00000176399'
p1322
(lp1323
S'V$DMRT4_01_M01149'
p1324
asS'ENSG00000111249'
p1325
(lp1326
S'CUX2_CUT_DBD_dimeric_18_1'
p1327
aS'CUX2_CUT_DBD_monomeric_10_1'
p1328
asS'ENSG00000182568'
p1329
(lp1330
S'V$SATB1_01_M01232'
p1331
aS'V$SATB1_Q3_M01723'
p1332
aS'V$SATB1_Q5_M02030'
p1333
asS'ENSG00000105698'
p1334
(lp1335
S'V$USF2_Q6_M00726'
p1336
asS'ENSG00000185507'
p1337
(lp1338
S'IRF7_IRF_DBD_dimeric_14_1'
p1339
aS'IRF7_IRF_DBD_trimeric_17_1'
p1340
aS'V$IRF7_01_M00453'
p1341
aS'V$IRF7_Q3_M01884'
p1342
asS'ENSG00000153779'
p1343
(lp1344
S'TGIF2LX_MEIS_full_dimeric_12_1'
p1345
asS'ENSG00000135625'
p1346
(lp1347
S'EGR4_C2H2_DBD_monomeric_16_2'
p1348
aS'V$NGFIC_01_M00244'
p1349
asS'ENSG00000169689'
p1350
(lp1351
S'V$STRA13_01_M00985'
p1352
asS'ENSG00000111445'
p1353
(lp1354
S'V$EFC_Q6_M00626'
p1355
asS'ENSG00000188620'
p1356
(lp1357
S'Hmx3.1'
p1358
aS'HMX3_homeodomain_DBD_monomeric_11_1'
p1359
aS'V$HMX3_02_M01413'
p1360
asS'ENSG00000150347'
p1361
(lp1362
S'V$MRF2_01_M00454'
p1363
asS'ENSG00000178860'
p1364
(lp1365
S'MSC_bHLH_full_dimeric_10_1'
p1366
asS'ENSG00000102878'
p1367
(lp1368
S'HSF4_HSF_DBD_trimeric_13_1'
p1369
asS'ENSG00000081059'
p1370
(lp1371
S'Tcf7.1'
p1372
aS'Tcf7.2'
p1373
aS'Tcf7_HMG_DBD_monomeric_12_1'
p1374
aS'V$TCF7_03_M02817'
p1375
aS'V$TCF7_04_M02921'
p1376
asS'ENSG00000256683'
p1377
(lp1378
S'V$ZBRK1_01_M01105'
p1379
asS'ENSG00000170370'
p1380
(lp1381
S'Emx2.1'
p1382
aS'EMX2_homeodomain_DBD_dimeric_14_1'
p1383
aS'EMX2_homeodomain_DBD_monomeric_10_1'
p1384
aS'V$EMX2_01_M01461'
p1385
asS'ENSG00000072310'
p1386
(lp1387
S'Srebf1_bHLH_DBD_dimeric_10_1'
p1388
aS'V$SREBP_Q3_M00776'
p1389
aS'V$SREBP_Q6_M01168'
p1390
aS'V$SREBP1_01_M00220'
p1391
aS'V$SREBP1_02_M00221'
p1392
aS'V$SREBP1_Q5_M01173'
p1393
aS'V$SREBP1_Q6_M00749'
p1394
asS'ENSG00000257315'
p1395
(lp1396
S'V$ZBED6_01_M01598'
p1397
asS'ENSG00000084093'
p1398
(lp1399
S'V$NRSE_B_M00325'
p1400
aS'V$NRSF_01_M00256'
p1401
aS'V$NRSF_Q4_M01028'
p1402
aS'REST_MA0138.1'
p1403
aS'REST_MA0138.2'
p1404
aS'V$REST_01_M01256'
p1405
aS'V$REST_02_M02256'
p1406
asS'ENSG00000213928'
p1407
(lp1408
S'IRF9_IRF_full_trimeric_15_1'
p1409
aS'Isgf3g.1'
p1410
aS'Isgf3g.2'
p1411
aS'V$ISGF3G_03_M02771'
p1412
aS'V$ISGF4G_04_M02875'
p1413
aS'V$ISRE_01_M00258'
p1414
asS'ENSG00000186951'
p1415
(lp1416
S'V$PPAR_DR1_Q2_M00763'
p1417
aS'V$PPARA_01_M00242'
p1418
aS'V$PPARA_02_M00518'
p1419
aS'V$PPARA_Q6_M01282'
p1420
asS'ENSG00000145321'
p1421
(lp1422
S'V$GC_01_M00255'
p1423
asS'ENSG00000109705'
p1424
(lp1425
S'Bapx1.1'
p1426
aS'V$NKX32_01_M01181'
p1427
aS'V$NKX32_02_M01482'
p1428
aS'NKX3-2_homeodomain_DBD_monomeric_9_1'
p1429
aS'Nkx3-2_MA0122.1'
p1430
asS'ENSG00000174197'
p1431
(lp1432
S'MGA_TBX_DBD_dimeric_18_1'
p1433
aS'MGA_TBX_DBD_dimeric_18_2'
p1434
aS'MGA_TBX_DBD_monomeric_8_1'
p1435
asS'ENSG00000162761'
p1436
(lp1437
S'V$LMX1_01_M01409'
p1438
aS'Lmx1a.1'
p1439
aS'LMX1A_homeodomain_DBD_monomeric_8_1'
p1440
asS'ENSG00000141448'
p1441
(lp1442
S'Gata6.1'
p1443
aS'Gata6.2'
p1444
aS'V$GATA6_01_M00462'
p1445
aS'V$GATA6_04_M02757'
p1446
aS'V$GATA6_05_M02861'
p1447
aS'V$GATA6_Q5_M03216'
p1448
asS'ENSG00000198517'
p1449
(lp1450
S'Mafk.1'
p1451
aS'Mafk.2'
p1452
aS'MAFK_bZIP_DBD_dimeric_21_1'
p1453
aS'MAFK_bZIP_full_dimeric_15_1'
p1454
aS'MAFK_bZIP_full_monomeric_12_1'
p1455
aS'V$MAFK_03_M02776'
p1456
aS'V$MAFK_04_M02880'
p1457
aS'V$MAFK_Q3_M02022'
p1458
asS'ENSG00000164916'
p1459
(lp1460
S'Foxk1.1'
p1461
aS'Foxk1.2'
p1462
aS'Foxk1_forkhead_DBD_monomeric_7_1'
p1463
aS'FOXK1_forkhead_DBD_putatively-multimeric_10_1'
p1464
aS'Foxk1_forkhead_DBD_putatively-multimeric_11_1'
p1465
aS'V$FOXK1_03_M02752'
p1466
aS'V$FOXK1_04_M02856'
p1467
asS'ENSG00000187079'
p1468
(lp1469
S'TEAD1_MA0090.1'
p1470
aS'TEAD1_TEA_full_dimeric_17_1'
p1471
aS'TEAD1_TEA_full_monomeric_10_1'
p1472
aS'V$TEF1_Q6_03_M01817'
p1473
aS'V$TEF1_Q6_M00704'
p1474
asS'ENSG00000184221'
p1475
(lp1476
S'OLIG1_bHLH_DBD_dimeric_10_1'
p1477
asS'ENSG00000136327'
p1478
(lp1479
S'NKX2-8_homeodomain_full_monomeric_9_1'
p1480
aS'V$NKX29_01_M01352'
p1481
aS'Nkx2-9.1'
p1482
asS'ENSG00000170653'
p1483
(lp1484
S'ATF7_bZIP_DBD_dimeric_14_1'
p1485
asS'ENSG00000107249'
p1486
(lp1487
S'GLIS3_C2H2_DBD_monomeric_14_1'
p1488
aS'V$ZNF515_01_M01231'
p1489
asS'ENSG00000277800'
p1490
(lp1491
S'V$TBX22_01_M01195'
p1492
asS'ENSG00000071794'
p1493
(lp1494
S'Hltf_MA0109.1'
p1495
aS'V$RUSH1A_02_M01107'
p1496
asS'ENSG00000143867'
p1497
(lp1498
S'Osr1.1'
p1499
aS'Osr1.2'
p1500
aS'V$OSR1_03_M02784'
p1501
aS'V$OSR1_04_M02888'
p1502
asS'ENSG00000122180'
p1503
(lp1504
S'V$MYOGENIN_Q6_01_M02101'
p1505
aS'V$MYOGENIN_Q6_M00712'
p1506
aS'V$MYOGNF1_01_M00056'
p1507
asS'ENSG00000111424'
p1508
(lp1509
S'V$VDR_Q3_M00444'
p1510
aS'V$VDR_Q6_M00961'
p1511
aS'VDR_nuclearreceptor_full_dimeric_16_1'
p1512
asS'ENSG00000187098'
p1513
(lp1514
S'V$MITF_Q6_M02099'
p1515
asS'ENSG00000160685'
p1516
(lp1517
S'V$CKROX_Q2_M01175'
p1518
aS'V$ZBTB7B_03_M02826'
p1519
aS'V$ZBTB7B_04_M02930'
p1520
aS'Zbtb7b.1'
p1521
aS'Zbtb7b.2'
p1522
aS'ZBTB7B_C2H2_full_monomeric_12_1'
p1523
asS'ENSG00000170577'
p1524
(lp1525
S'Six2.1'
p1526
aS'V$SIX2_01_M01433'
p1527
asS'ENSG00000161940'
p1528
(lp1529
S'Bcl6b.1'
p1530
aS'Bcl6b.2'
p1531
aS'BCL6B_C2H2_DBD_monomeric_17_1'
p1532
aS'V$BCL6B_03_M02740'
p1533
aS'V$BCL6B_04_M02844'
p1534
asS'ENSG00000197905'
p1535
(lp1536
S'TEAD4_TEA_DBD_monomeric_10_1'
p1537
asS'ENSG00000135547'
p1538
(lp1539
S'HEY2_bHLH_full_dimeric_10_1'
p1540
asS'ENSG00000257923'
p1541
(lp1542
S'V$CDP_01_M00095'
p1543
aS'V$CDP_02_M00102'
p1544
aS'V$CDP_03_M01342'
p1545
aS'V$CDP_04_M01344'
p1546
aS'V$CDPCR1_01_M00104'
p1547
aS'V$CDPCR3_01_M00105'
p1548
aS'V$CDPCR3HD_01_M00106'
p1549
aS'V$CLOX_01_M00103'
p1550
aS'Cutl1.1'
p1551
aS'Cutl1.2'
p1552
aS'CUX1_CUT_DBD_dimeric_17_1'
p1553
aS'CUX1_CUT_DBD_dimeric_18_1'
p1554
aS'CUX1_CUT_DBD_monomeric_10_1'
p1555
aS'V$CUX1_03_M02958'
p1556
aS'V$CUX1_04_M02959'
p1557
asS'ENSG00000188816'
p1558
(lp1559
S'Hmx2.1'
p1560
aS'HMX2_homeodomain_DBD_monomeric_11_1'
p1561
aS'V$NKX52_01_M01315'
p1562
asS'ENSG00000173253'
p1563
(lp1564
S'V$DMRT2_01_M01147'
p1565
asS'ENSG00000186827'
p1566
(lp1567
S'V$SOX40_04_M02908'
p1568
asS'ENSG00000185670'
p1569
(lp1570
S'V$ZBTB3_03_M02825'
p1571
aS'Zbtb3.1'
p1572
aS'Zbtb3.2'
p1573
asS'ENSG00000162924'
p1574
(lp1575
S'V$CREL_01_M00053'
p1576
aS'REL_MA0101.1'
p1577
asS'ENSG00000124813'
p1578
(lp1579
S'V$AML3_Q6_M01856'
p1580
aS'V$OSF2_Q6_M00731'
p1581
aS'RUNX2_RUNX_DBD_dimeric_16_1'
p1582
aS'RUNX2_RUNX_DBD_dimeric_18_1'
p1583
aS'RUNX2_RUNX_DBD_monomeric_9_1'
p1584
asS'ENSG00000164900'
p1585
(lp1586
S'Gbx1.1'
p1587
aS'GBX1_homeodomain_DBD_monomeric_10_1'
p1588
aS'V$GBX1_01_M01371'
p1589
asS'ENSG00000115507'
p1590
(lp1591
S'V$OTX_Q1_M01117'
p1592
aS'Otx1.1'
p1593
aS'Otx1_homeodomain_DBD_dimeric_15_1'
p1594
aS'OTX1_homeodomain_DBD_monomeric_8_1'
p1595
aS'V$OTX1_01_M01366'
p1596
asS'ENSG00000183918'
p1597
(lp1598
S'V$SAP1A_01_M01167'
p1599
aS'V$SAP1A_02_M01983'
p1600
aS'V$SAP1A_03_M02058'
p1601
asS'ENSG00000160961'
p1602
(lp1603
S'V$ZNF333_01_M01230'
p1604
asS'ENSG00000005889'
p1605
(lp1606
S'V$ZFX_01_M01593'
p1607
aS'Zfx_MA0146.1'
p1608
asS'ENSG00000176842'
p1609
(lp1610
S'Irx5.1'
p1611
aS'IRX5_homeodomain_DBD_dimeric_12_1'
p1612
aS'V$IRX5_01_M01472'
p1613
asS'ENSG00000137273'
p1614
(lp1615
S'FOXF2_MA0030.1'
p1616
aS'V$FREAC2_01_M00290'
p1617
asS'ENSG00000106571'
p1618
(lp1619
S'V$GLI3_01_M01596'
p1620
aS'V$GLI3_02_M01704'
p1621
aS'V$GLI3_Q5_01_M01657'
p1622
asS'ENSG00000125952'
p1623
(lp1624
S'Max.1'
p1625
aS'Max.2'
p1626
aS'MAX_bHLH_DBD_dimeric_10_1'
p1627
aS'MAX_bHLH_DBD_dimer-of-dimers_17_1'
p1628
aS'MAX_MA0058.1'
p1629
aS'V$MAX_01_M00119'
p1630
aS'V$MAX_04_M02881'
p1631
aS'V$MAX_Q6_M01830'
p1632
aS'V$MYCMAX_01_M00118'
p1633
aS'V$MYCMAX_02_M00123'
p1634
aS'V$MYCMAX_03_M00615'
p1635
aS'V$MYCMAX_B_M00322'
p1636
asS'ENSG00000205927'
p1637
(lp1638
S'OLIG2_bHLH_full_dimeric_10_1'
p1639
asS'ENSG00000165462'
p1640
(lp1641
S'Phox2a.1'
p1642
aS'PHOX2A_homeodomain_DBD_dimeric_11_1'
p1643
aS'V$PMX2A_01_M01444'
p1644
asS'ENSG00000205922'
p1645
(lp1646
S'ONECUT3_CUT_DBD_monomeric_14_1'
p1647
asS'ENSG00000125813'
p1648
(lp1649
S'V$PAX_Q6_M00808'
p1650
aS'PAX1_PAX_DBD_monomeric_17_1'
p1651
aS'V$PAX1_B_M00326'
p1652
asS'ENSG00000092607'
p1653
(lp1654
S'TBX15_TBX_DBD_dimeric_19_1'
p1655
aS'TBX15_TBX_DBD_monomeric_8_1'
p1656
aS'V$TBX15_01_M01263'
p1657
aS'V$TBX15_02_M01264'
p1658
asS'ENSG00000172819'
p1659
(lp1660
S'RARG_nuclearreceptor_DBD_dimeric_17_1'
p1661
aS'Rarg_nuclearreceptor_DBD_dimeric_17_1'
p1662
aS'RARG_nuclearreceptor_DBD_dimeric_17_2'
p1663
aS'RARG_nuclearreceptor_full_dimeric_16_1'
p1664
aS'RARG_nuclearreceptor_full_dimeric_17_1'
p1665
aS'RARG_nuclearreceptor_full_dimeric_18_1'
p1666
asS'ENSG00000125817'
p1667
(lp1668
S'CENPB_CENPB_full_monomeric_15_1'
p1669
asS'ENSG00000125816'
p1670
(lp1671
S'V$NKX24_01_M01350'
p1672
aS'Nkx2-4.1'
p1673
asS'ENSG00000169635'
p1674
(lp1675
S'HIC2_C2H2_DBD_monomeric_9_1'
p1676
asS'ENSG00000221869'
p1677
(lp1678
S'CEBPD_bZIP_DBD_dimeric_10_1'
p1679
aS'V$CEBPD_Q6_M00621'
p1680
asS'ENSG00000169981'
p1681
(lp1682
g1029
ag1030
ag1031
ag1032
asS'ENSG00000112592'
p1683
(lp1684
S'V$TATA_01_M00252'
p1685
aS'V$TATA_C_M00216'
p1686
aS'Tbp.1'
p1687
aS'Tbp.2'
p1688
aS'TBP_MA0108.1'
p1689
aS'TBP_MA0108.2'
p1690
aS'V$TBP_01_M00471'
p1691
aS'V$TBP_04_M02918'
p1692
aS'V$TBP_06_M02814'
p1693
aS'V$TBP_Q6_M00980'
p1694
asS'ENSG00000134532'
p1695
(lp1696
S'Sox5.1'
p1697
aS'Sox5.2'
p1698
aS'Sox5_MA0087.1'
p1699
aS'V$SOX5_01_M00042'
p1700
aS'V$SOX5_04_M02910'
p1701
aS'V$SOX5_07_M02909'
p1702
asS'ENSG00000123685'
p1703
(lp1704
S'BATF3_bZIP_DBD_dimeric_14_1'
p1705
asS'ENSG00000154493'
p1706
(lp1707
S'V$GM497_04_M02864'
p1708
asS'ENSG00000116017'
p1709
(lp1710
S'Arid3a.1'
p1711
aS'Arid3a.2'
p1712
aS'ARID3A_MA0151.1'
p1713
aS'V$ARID3A_02_M02839'
p1714
aS'V$ARID3A_04_M02735'
p1715
aS'V$DRI1_01_M01654'
p1716
asS'ENSG00000116016'
p1717
(lp1718
S'V$HIF2A_01_M01249'
p1719
asS'ENSG00000169016'
p1720
(lp1721
S'V$E2F6_01_M01252'
p1722
asS'ENSG00000179528'
p1723
(lp1724
S'Lbx2.1'
p1725
aS'LBX2_homeodomain_DBD_dimeric_13_1'
p1726
aS'LBX2_homeodomain_DBD_monomeric_10_1'
p1727
aS'V$LBX2_01_M01401'
p1728
asS'ENSG00000102145'
p1729
(lp1730
S'Gata1_MA0035.1'
p1731
aS'Gata1_MA0035.2'
p1732
aS'V$GATA1_01_M00075'
p1733
aS'V$GATA1_02_M00126'
p1734
aS'V$GATA1_03_M00127'
p1735
aS'V$GATA1_04_M00128'
p1736
aS'V$GATA1_05_M00346'
p1737
aS'V$GATA1_06_M00347'
p1738
aS'V$GATA1_09_M02254'
p1739
aS'V$GATA1_Q6_M02004'
p1740
asS'ENSG00000160113'
p1741
(lp1742
S'V$EAR2_Q2_M01728'
p1743
aS'Nr2f6_nuclearreceptor_DBD_dimeric_15_1'
p1744
aS'NR2F6_nuclearreceptor_full_dimeric_14_1'
p1745
asS'ENSG00000134438'
p1746
(lp1747
S'Rax.1'
p1748
aS'RAX_homeodomain_DBD_monomeric_10_1'
p1749
aS'V$RAX_01_M01389'
p1750
asS'ENSG00000214717'
p1751
(lp1752
S'ZBED1_znf_BED_DBD_dimeric_13_1'
p1753
asS'ENSG00000180806'
p1754
(lp1755
S'Hoxc9.1'
p1756
aS'V$HOXC9_01_M01416'
p1757
asS'ENSG00000165891'
p1758
(lp1759
S'E2F7_E2F_DBD_dimeric_14_1'
p1760
asS'ENSG00000105880'
p1761
(lp1762
S'Dlx5.1'
p1763
aS'DLX5_homeodomain_FL_monomeric_8_1'
p1764
aS'V$DLX5_01_M01388'
p1765
asS'ENSG00000109851'
p1766
(lp1767
S'Dbx1.1'
p1768
aS'V$DBX1_01_M01483'
p1769
asS'ENSG00000161405'
p1770
(lp1771
S'V$IK3_01_M00088'
p1772
asS'ENSG00000215788'
p1773
(lp1774
S'V$DR3_Q4_M00966'
p1775
asS'ENSG00000177463'
p1776
(lp1777
S'NR2C2_nuclearreceptor_DBD_dimeric_14_1'
p1778
aS'V$TR4_01_M01776'
p1779
aS'V$TR4_03_M01782'
p1780
aS'V$TR4_Q2_M01725'
p1781
asS'ENSG00000150907'
p1782
(lp1783
S'FOXO1_forkhead_DBD_dimeric_14_1'
p1784
aS'FOXO1_forkhead_DBD_monomeric_8_1'
p1785
aS'FOXO1_forkhead_DBD_putatively-multimeric_12_1'
p1786
aS'V$FOXO1_01_M00473'
p1787
aS'V$FOXO1_02_M00474'
p1788
aS'V$FOXO1_03_M01968'
p1789
aS'V$FOXO1_04_M01969'
p1790
aS'V$FOXO1_Q5_M01216'
p1791
asS'ENSG00000065970'
p1792
(lp1793
S'FOXJ2_forkhead_DBD_dimeric_13_1'
p1794
aS'FOXJ2_forkhead_DBD_dimeric_14_1'
p1795
aS'FOXJ2_forkhead_DBD_monomeric_8_1'
p1796
aS'V$FOXJ2_01_M00422'
p1797
aS'V$FOXJ2_02_M00423'
p1798
asS'ENSG00000277600'
p1799
(lp1800
g105
asS'ENSG00000118689'
p1801
(lp1802
S'FOXO3_forkhead_full_dimeric_14_1'
p1803
aS'FOXO3_forkhead_full_monomeric_8_1'
p1804
aS'FOXO3_forkhead_full_putatively-multimeric_11_1'
p1805
aS'FOXO3_MA0157.1'
p1806
aS'V$FOXO3_01_M00477'
p1807
aS'V$FOXO3_02_M02270'
p1808
aS'V$FOXO3A_Q1_M01137'
p1809
asS'ENSG00000139515'
p1810
(lp1811
S'Ipf1.1'
p1812
aS'V$IPF1_01_M01233'
p1813
aS'V$IPF1_02_M01234'
p1814
aS'V$IPF1_03_M01235'
p1815
aS'V$IPF1_04_M01236'
p1816
aS'V$IPF1_05_M01255'
p1817
aS'V$IPF1_06_M01438'
p1818
aS'V$IPF1_Q4_01_M01013'
p1819
aS'V$IPF1_Q4_M00436'
p1820
aS'V$IPF1_Q5_M02096'
p1821
aS'V$IPF1_Q6_M01275'
p1822
aS'V$K2B_01_M01348'
p1823
aS'PDX1_homeodomain_DBD_dimeric_18_1'
p1824
aS'PDX1_homeodomain_DBD_monomeric_8_1'
p1825
aS'Pdx1_MA0132.1'
p1826
asS'ENSG00000159216'
p1827
(lp1828
S'V$AML_Q6_M00769'
p1829
aS'V$AML1_01_M00271'
p1830
aS'V$AML1_Q4_M01658'
p1831
aS'V$AML1_Q5_M02084'
p1832
aS'V$AML1_Q6_M00751'
p1833
aS'RUNX1_MA0002.1'
p1834
aS'RUNX1_MA0002.2'
p1835
aS'V$RUNX1_01_M02257'
p1836
asS'ENSG00000154727'
p1837
(lp1838
S'Gabpa.2'
p1839
aS'Gabpa.3'
p1840
aS'GABPA_ETS_full_monomeric_10_1'
p1841
aS'GABPA_MA0062.1'
p1842
aS'GABPA_MA0062.2'
p1843
aS'V$GABPA_01_M02039'
p1844
aS'V$GABPA_02_M02074'
p1845
aS'V$GABPA_04_M02858'
p1846
aS'V$GABPA_Q4_M01660'
p1847
aS'V$GADP_01_M01258'
p1848
asS'ENSG00000179111'
p1849
(lp1850
S'HES7_bHLH_DBD_dimeric_12_1'
p1851
asS'ENSG00000275410'
p1852
(lp1853
g127
ag128
ag129
ag130
ag131
ag132
asS'ENSG00000163132'
p1854
(lp1855
S'Msx1.1'
p1856
aS'MSX1_homeodomain_DBD_dimeric_18_1'
p1857
aS'MSX1_homeodomain_full_monomeric_8_1'
p1858
aS'V$MSX1_01_M00394'
p1859
aS'V$MSX1_02_M01412'
p1860
asS'ENSG00000173039'
p1861
(lp1862
S'RELA_MA0107.1'
p1863
asS'ENSG00000001167'
p1864
(lp1865
S'V$ALPHACP1_01_M00687'
p1866
aS'V$NFY_01_M00287'
p1867
aS'V$NFY_C_M00209'
p1868
aS'V$NFY_Q6_01_M00775'
p1869
aS'V$NFY_Q6_M00185'
p1870
aS'NFYA_MA0060.1'
p1871
aS'V$NFYA_Q5_M02106'
p1872
asS'ENSG00000174332'
p1873
(lp1874
S'GLIS1_C2H2_DBD_monomeric_16_1'
p1875
asS'ENSG00000107175'
p1876
(lp1877
S'CREB3_bZIP_full_dimeric_14_1'
p1878
asS'ENSG00000235608'
p1879
(lp1880
S'V$NKX11_01_M01334'
p1881
aS'Nkx1-1.1'
p1882
asS'ENSG00000197063'
p1883
(lp1884
S'MAFG_bZIP_full_dimeric_21_1'
p1885
aS'V$TCF11MAFG_01_M00284'
p1886
asS'ENSG00000117505'
p1887
(lp1888
S'V$DR1_Q3_M00762'
p1889
asS'ENSG00000006194'
p1890
(lp1891
S'V$FPM315_01_M01587'
p1892
asS'ENSG00000130726'
p1893
(lp1894
S'V$RNF96_01_M01199'
p1895
asS'ENSG00000105672'
p1896
(lp1897
S'V$ER71_01_M01988'
p1898
aS'V$ER71_02_M02067'
p1899
aS'ETV2_ETS_DBD_monomeric_11_1'
p1900
asS'ENSG00000170608'
p1901
(lp1902
S'V$HNF3G_Q4_M02015'
p1903
asS'ENSG00000203883'
p1904
(lp1905
S'Sox18.1'
p1906
aS'Sox18.2'
p1907
aS'SOX18_HMG_full_dimeric_15_1'
p1908
aS'SOX18_HMG_full_dimeric_15_3'
p1909
aS'V$SOX18_03_M02801'
p1910
aS'V$SOX18_04_M02905'
p1911
asS'ENSG00000163848'
p1912
(lp1913
S'V$CACCCBINDINGFACTOR_Q6_M00721'
p1914
aS'V$ZBP89_Q4_M01816'
p1915
asS'ENSG00000129911'
p1916
(lp1917
S'KLF16_C2H2_DBD_monomeric_11_1'
p1918
asS'ENSG00000167182'
p1919
(lp1920
S'V$SP2_01_M01783'
p1921
asS'ENSG00000168875'
p1922
(lp1923
S'Sox14.1'
p1924
aS'Sox14.2'
p1925
aS'SOX14_HMG_DBD_dimeric_12_1'
p1926
aS'SOX14_HMG_DBD_dimeric_13_1'
p1927
aS'SOX14_HMG_DBD_dimeric_15_1'
p1928
aS'V$SOX14_03_M02798'
p1929
aS'V$SOX14_04_M02901'
p1930
aS'V$SOX14_05_M02902'
p1931
asS'ENSG00000119547'
p1932
(lp1933
S'V$OC2_Q3_M02112'
p1934
aS'ONECUT2_CUT_DBD_monomeric_14_1'
p1935
asS'ENSG00000122145'
p1936
(lp1937
g1492
asS'ENSG00000176165'
p1938
(lp1939
S'FOXG1_forkhead_DBD_dimeric_17_1'
p1940
aS'Foxg1_forkhead_DBD_monomeric_7_1'
p1941
aS'FOXG1_forkhead_DBD_putatively-multimeric_12_1'
p1942
asS'ENSG00000185551'
p1943
(lp1944
S'Nr2f2.1'
p1945
aS'Nr2f2.2'
p1946
aS'V$NR2F2_03_M02783'
p1947
aS'V$NR2F2_04_M02887'
p1948
asS'ENSG00000117595'
p1949
(lp1950
S'Irf6.1'
p1951
aS'Irf6.2'
p1952
aS'V$IRF6_03_M02770'
p1953
aS'V$IRF6_04_M02874'
p1954
asS'ENSG00000112182'
p1955
(lp1956
S'V$BACH2_01_M00490'
p1957
asS'ENSG00000178951'
p1958
(lp1959
S'V$LRF_Q2_M01100'
p1960
aS'ZBTB7A_C2H2_DBD_monomeric_12_1'
p1961
asS'ENSG00000215397'
p1962
(lp1963
S'SCRT2_C2H2_DBD_monomeric_13_1'
p1964
asS'ENSG00000280635'
p1965
(lp1966
g850
ag851
ag852
ag853
asS'ENSG00000181690'
p1967
(lp1968
S'PLAG1_MA0163.1'
p1969
aS'V$PLAG1_01_M01778'
p1970
aS'V$PLAG1_02_M01973'
p1971
asS'ENSG00000114439'
p1972
(lp1973
S'Bbx.1'
p1974
aS'Bbx.2'
p1975
aS'V$BBX_03_M02739'
p1976
aS'V$BBX_04_M02843'
p1977
asS'ENSG00000108924'
p1978
(lp1979
S'HLF_bZIP_full_dimeric_12_1'
p1980
aS'HLF_MA0043.1'
p1981
aS'V$HLF_01_M00260'
p1982
asS'ENSG00000007372'
p1983
(lp1984
S'Pax6.1'
p1985
aS'Pax6_MA0069.1'
p1986
aS'PAX6_PAX_DBD_monomeric_19_1'
p1987
aS'V$PAX6_01_M00097'
p1988
aS'V$PAX6_02_M01391'
p1989
aS'V$PAX6_Q2_M00979'
p1990
asS'ENSG00000229544'
p1991
(lp1992
S'V$NKX12_01_M01427'
p1993
aS'Nkx1-2.1'
p1994
asS'ENSG00000125533'
p1995
(lp1996
S'BHLHE23_bHLH_DBD_dimeric_10_1'
p1997
asS'ENSG00000168610'
p1998
(lp1999
S'Stat3_MA0144.1'
p2000
aS'V$STAT3_01_M00225'
p2001
aS'V$STAT3_02_M00497'
p2002
aS'V$STAT3_03_M01595'
p2003
aS'V$STAT3STAT3_Q3_M01220'
p2004
asS'ENSG00000109320'
p2005
(lp2006
S'V$NFKAPPAB_01_M00054'
p2007
aS'NF-kappaB_MA0061.1'
p2008
aS'V$NFKAPPAB50_01_M00051'
p2009
aS'V$NFKAPPAB65_01_M00052'
p2010
aS'V$NFKB_C_M00208'
p2011
aS'V$NFKB_Q6_01_M00774'
p2012
aS'V$NFKB_Q6_M00194'
p2013
aS'NFKB1_MA0105.1'
p2014
aS'NFKB1_NFAT_DBD_dimeric_13_1'
p2015
aS'V$P50P50_Q3_M01223'
p2016
aS'V$P50RELAP65_Q5_01_M01224'
p2017
asS'ENSG00000141905'
p2018
(lp2019
S'NFIC_MA0161.1'
p2020
aS'V$CTF_01_M02050'
p2021
asS'ENSG00000112837'
p2022
(lp2023
S'V$TBX18_01_M01262'
p2024
asS'ENSG00000143178'
p2025
(lp2026
S'TBX19_TBX_DBD_dimeric_20_1'
p2027
asS'ENSG00000118707'
p2028
(lp2029
S'Tgif2.1'
p2030
aS'TGIF2_MEIS_DBD_dimeric_12_1'
p2031
aS'V$TGIF2_01_M01407'
p2032
asS'ENSG00000171634'
p2033
(lp2034
S'V$FAC1_01_M00456'
p2035
asS'ENSG00000165259'
p2036
(lp2037
S'Hdx.1'
p2038
aS'V$HDX_01_M01333'
p2039
asS'ENSG00000120068'
p2040
(lp2041
S'Hoxb8.1'
p2042
aS'V$HOXB8_01_M01451'
p2043
asS'ENSG00000129173'
p2044
(lp2045
S'E2F8_E2F_DBD_dimeric_12_1'
p2046
asS'ENSG00000109132'
p2047
(lp2048
S'Phox2b.1'
p2049
aS'PHOX2B_homeodomain_full_dimeric_11_1'
p2050
aS'V$PMX2B_01_M01356'
p2051
asS'ENSG00000173917'
p2052
(lp2053
S'HOXB2_homeodomain_DBD_monomeric_10_1'
p2054
asS'ENSG00000096401'
p2055
(lp2056
S'V$CDC5_01_M00478'
p2057
asS'ENSG00000106536'
p2058
(lp2059
S'POU6F2_POU_DBD_dimeric_16_1'
p2060
aS'POU6F2_POU_full_monomeric_10_1'
p2061
asS'ENSG00000245848'
p2062
(lp2063
S'V$CEBP_01_M00159'
p2064
aS'V$CEBP_C_M00201'
p2065
aS'V$CEBP_Q2_01_M00912'
p2066
aS'V$CEBP_Q2_M00190'
p2067
aS'V$CEBP_Q3_M00770'
p2068
aS'Cebpa_MA0102.1'
p2069
aS'CEBPA_MA0102.2'
p2070
aS'V$CEBPA_01_M00116'
p2071
aS'V$CEBPA_Q6_M01866'
p2072
asS'ENSG00000165588'
p2073
(lp2074
S'Otx2.1'
p2075
aS'OTX2_homeodomain_DBD_dimeric_15_1'
p2076
aS'OTX2_homeodomain_DBD_monomeric_8_1'
p2077
aS'V$OTX2_01_M01387'
p2078
aS'V$OTX2_Q3_M01719'
p2079
asS'ENSG00000080298'
p2080
(lp2081
S'Rfx3.1'
p2082
aS'Rfx3.2'
p2083
aS'RFX3_RFX_DBD_dimeric_15_1'
p2084
aS'Rfx3_RFX_DBD_dimeric_16_1'
p2085
aS'V$RFX3_04_M02788'
p2086
aS'V$RFX3_05_M02892'
p2087
asS'ENSG00000171540'
p2088
(lp2089
S'Otp.1'
p2090
aS'V$OTP_01_M01323'
p2091
asS'ENSG00000137709'
p2092
(lp2093
S'Pou2f3.1'
p2094
aS'POU2F3_POU_DBD_dimeric_12_1'
p2095
aS'POU2F3_POU_DBD_monomeric_9_1'
p2096
aS'V$POU2F3_01_M01476'
p2097
asS'ENSG00000165030'
p2098
(lp2099
S'V$E4BP4_01_M00045'
p2100
aS'NFIL3_bZIP_DBD_dimeric_12_1'
p2101
aS'NFIL3_MA0025.1'
p2102
asS'ENSG00000101096'
p2103
(lp2104
S'V$NFAT_Q4_01_M00935'
p2105
aS'V$NFAT_Q6_M00302'
p2106
aS'V$NFAT1_Q6_M01281'
p2107
aS'NFATC2_MA0152.1'
p2108
aS'V$NFATC2_01_M02265'
p2109
asS'ENSG00000180532'
p2110
(lp2111
S'Gm397.1'
p2112
aS'Gm397.2'
p2113
aS'V$GM397_03_M02760'
p2114
aS'V$ZSCAN4_03_M02838'
p2115
aS'V$ZSCAN4_04_M02942'
p2116
aS'Zscan4.1'
p2117
aS'Zscan4.2'
p2118
aS'ZSCAN4_C2H2_full_monomeric_15_1'
p2119
asS'ENSG00000135457'
p2120
(lp2121
S'V$CP2_01_M00072'
p2122
aS'V$CP2_02_M00947'
p2123
aS'V$LBP1_Q6_M00644'
p2124
aS'TFCP2_CP2_full_dimeric_10_1'
p2125
aS'TFCP2_CP2_full_dimer-of-dimers_16_1'
p2126
asS'ENSG00000162367'
p2127
(lp2128
S'V$TAL1_01_M01591'
p2129
aS'V$TAL1_Q6_M00993'
p2130
aS'V$TAL1ALPHAE47_01_M00066'
p2131
aS'V$TAL1BETAE47_01_M00065'
p2132
aS'V$TAL1BETAITF2_01_M00070'
p2133
asS'ENSG00000153234'
p2134
(lp2135
S'NR4A2_MA0160.1'
p2136
aS'NR4A2_nuclearreceptor_full_dimeric_16_1'
p2137
aS'NR4A2_nuclearreceptor_full_dimeric_17_1'
p2138
aS'NR4A2_nuclearreceptor_full_monomeric_11_1'
p2139
aS'V$NR4A2_01_M02273'
p2140
aS'V$NURR1_Q3_M01269'
p2141
asS'ENSG00000006377'
p2142
(lp2143
S'DLX6_homeodomain_DBD_monomeric_8_1'
p2144
asS'ENSG00000174963'
p2145
(lp2146
S'ZIC4_C2H2_DBD_monomeric_15_1'
p2147
asS'ENSG00000185024'
p2148
(lp2149
S'V$BRF1_01_M01747'
p2150
asS'ENSG00000185022'
p2151
(lp2152
S'MAFF_bZIP_DBD_dimeric_15_1'
p2153
asS'ENSG00000129535'
p2154
(lp2155
S'NRL_bZIP_DBD_monomeric_11_1'
p2156
asS'ENSG00000030419'
p2157
(lp2158
S'V$HELIOSA_01_M01003'
p2159
aS'V$HELIOSA_02_M01004'
p2160
aS'V$IK2_01_M00087'
p2161
asS'ENSG00000077463'
p2162
(lp2163
S'V$SIRT6_01_M01797'
p2164
asS'ENSG00000204103'
p2165
(lp2166
S'Mafb.1'
p2167
aS'Mafb.2'
p2168
aS'Mafb_bZIP_DBD_dimeric_17_1'
p2169
aS'Mafb_bZIP_DBD_dimeric_18_1'
p2170
aS'Mafb_bZIP_DBD_monomeric_12_1'
p2171
aS'Mafb_MA0117.1'
p2172
aS'V$MAFB_01_M01227'
p2173
aS'V$MAFB_03_M02879'
p2174
aS'V$MAFB_05_M02775'
p2175
asS'ENSG00000171940'
p2176
(lp2177
S'V$ZABC1_01_M01306'
p2178
asS'ENSG00000073282'
p2179
(lp2180
S'V$P63_01_M01656'
p2181
aS'TP63_p53l_DBD_dimeric_18_1'
p2182
asS'ENSG00000143171'
p2183
(lp2184
S'RXRG_nuclearreceptor_DBD_dimeric_14_2'
p2185
aS'RXRG_nuclearreceptor_full_dimeric_14_1'
p2186
aS'RXRG_nuclearreceptor_full_dimeric_14_2'
p2187
asS'ENSG00000111653'
p2188
(lp2189
S'V$ING4_01_M01743'
p2190
asS'ENSG00000089220'
p2191
(lp2192
S'V$PEBP_Q6_M00984'
p2193
asS'ENSG00000172216'
p2194
(lp2195
S'CEBPB_bZIP_full_dimeric_10_1'
p2196
aS'V$CEBPB_01_M00109'
p2197
aS'V$CEBPB_02_M00117'
p2198
aS'V$CEBPB_Q6_M01896'
p2199
asS'ENSG00000089225'
p2200
(lp2201
S'TBX5_TBX_DBD_dimeric_20_1'
p2202
aS'TBX5_TBX_DBD_monomeric_8_1'
p2203
aS'V$TBX5_01_M01019'
p2204
aS'V$TBX5_02_M01020'
p2205
aS'V$TBX5_Q5_M01044'
p2206
asS'ENSG00000112658'
p2207
(lp2208
S'Srf.1'
p2209
aS'Srf.2'
p2210
aS'SRF_MA0083.1'
p2211
aS'SRF_MADS_DBD_dimeric_12_1'
p2212
aS'SRF_MADS_full_dimeric_16_1'
p2213
aS'V$SRF_01_M00152'
p2214
aS'V$SRF_02_M01257'
p2215
aS'V$SRF_03_M01304'
p2216
aS'V$SRF_06_M02916'
p2217
aS'V$SRF_C_M00215'
p2218
aS'V$SRF_Q4_M00810'
p2219
aS'V$SRF_Q5_01_M00922'
p2220
aS'V$SRF_Q5_02_M01007'
p2221
aS'V$SRF_Q6_M00186'
p2222
asS'ENSG00000163064'
p2223
(lp2224
S'En1.1'
p2225
aS'EN1_homeodomain_DBD_monomeric_10_1'
p2226
aS'EN1_homeodomain_full_dimeric_14_1'
p2227
aS'EN1_homeodomain_full_monomeric_8_1'
p2228
aS'En1_MA0027.1'
p2229
aS'V$EN1_01_M00396'
p2230
aS'V$EN1_02_M01365'
p2231
asS'ENSG00000167034'
p2232
(lp2233
S'V$NKX31_02_M02782'
p2234
aS'Nkx3-1.1'
p2235
aS'Nkx3-1.2'
p2236
aS'Nkx3-1.3'
p2237
aS'NKX3-1_homeodomain_full_monomeric_9_1'
p2238
aS'NKX3-1_MA0124.1'
p2239
aS'V$NKX3A_01_M00451'
p2240
aS'V$NKX3A_02_M01383'
p2241
asS'ENSG00000177932'
p2242
(lp2243
S'V$KID3_01_M01160'
p2244
aS'ZNF354C_MA0130.1'
p2245
asS'ENSG00000159387'
p2246
(lp2247
S'Irx6.1'
p2248
aS'V$IRXB3_01_M01377'
p2249
asS'ENSG00000064835'
p2250
(lp2251
S'V$PIT1_01_M01465'
p2252
aS'V$PIT1_Q6_M00802'
p2253
aS'Pou1f1.1'
p2254
aS'POU1F1_POU_DBD_monomeric_14_1'
p2255
aS'POU1F1_POU_DBD_monomeric_17_1'
p2256
aS'V$POU1F1_Q6_M00744'
p2257
asS'ENSG00000134595'
p2258
(lp2259
S'Sox3_HMG_DBD_dimeric_17_1'
p2260
aS'Sox3_HMG_DBD_dimeric_17_3'
p2261
asS'ENSG00000137203'
p2262
(lp2263
S'V$AP2_Q3_M00800'
p2264
aS'V$AP2_Q6_01_M00915'
p2265
aS'V$AP2_Q6_M00189'
p2266
aS'V$AP2ALPHA_01_M00469'
p2267
aS'V$AP2ALPHA_02_M01045'
p2268
aS'V$AP2ALPHA_03_M01047'
p2269
aS'V$AP2ALPHA_Q6_M01857'
p2270
aS'V$AP4_01_M00005'
p2271
aS'V$AP4_Q5_M00175'
p2272
aS'V$AP4_Q6_01_M00927'
p2273
aS'V$AP4_Q6_02_M01860'
p2274
aS'V$AP4_Q6_M00176'
p2275
aS'Tcfap2a.1'
p2276
aS'Tcfap2a.2'
p2277
aS'Tcfap2a_TFAP_DBD_dimeric_11_1'
p2278
aS'Tcfap2a_TFAP_DBD_dimeric_12_1'
p2279
aS'Tcfap2a_TFAP_DBD_dimeric_13_1'
p2280
aS'V$TCFAP2A_03_M02819'
p2281
aS'TFAP2A_MA0003.1'
p2282
aS'TFAP2A_TFAP_DBD_dimeric_11_1'
p2283
aS'TFAP2A_TFAP_DBD_dimeric_12_1'
p2284
aS'TFAP2A_TFAP_DBD_dimeric_13_1'
p2285
asS'ENSG00000164299'
p2286
(lp2287
S'Spz1_MA0111.1'
p2288
aS'V$SPZ1_01_M00446'
p2289
asS'ENSG00000143390'
p2290
(lp2291
S'RFX5_RFX_DBD_dimeric_16_3'
p2292
asS'ENSG00000230257'
p2293
(lp2294
S'V$NFE4_Q5_M02105'
p2295
asS'ENSG00000206366'
p2296
(lp2297
g1220
ag1221
ag1222
ag1223
asS'ENSG00000172845'
p2298
(lp2299
S'SP3_C2H2_DBD_monomeric_11_1'
p2300
aS'V$SP3_Q3_M00665'
p2301
asS'ENSG00000082641'
p2302
(lp2303
S'V$TCF11_01_M00285'
p2304
asS'ENSG00000164458'
p2305
(lp2306
S'V$BRACH_01_M00150'
p2307
aS'T_MA0009.1'
p2308
aS'T_TBX_full_dimeric_16_1'
p2309
asS'ENSG00000105856'
p2310
(lp2311
S'Hbp1.1'
p2312
aS'Hbp1.2'
p2313
aS'V$HBP1_03_M02762'
p2314
aS'V$HBP1_04_M02866'
p2315
aS'V$HBP1_Q2_M01661'
p2316
asS'ENSG00000129654'
p2317
(lp2318
S'Foxj1.1'
p2319
aS'Foxj1.2'
p2320
aS'V$FOXJ1_03_M02750'
p2321
aS'V$FOXJ1_04_M02854'
p2322
aS'V$HFH4_01_M00742'
p2323
asS'ENSG00000149948'
p2324
(lp2325
S'V$HMGA2_01_M01300'
p2326
asS'ENSG00000158773'
p2327
(lp2328
S'USF1_bHLH_DBD_dimeric_10_1'
p2329
aS'USF1_MA0093.1'
p2330
aS'V$USF_01_M00121'
p2331
aS'V$USF_02_M00122'
p2332
aS'V$USF_C_M00217'
p2333
aS'V$USF_Q6_01_M00796'
p2334
aS'V$USF_Q6_M00187'
p2335
asS'ENSG00000068305'
p2336
(lp2337
S'V$AMEF2_Q6_M00403'
p2338
aS'V$HMEF2_Q6_M00406'
p2339
aS'V$MEF2_01_M00006'
p2340
aS'V$MEF2_02_M00231'
p2341
aS'V$MEF2_03_M00232'
p2342
aS'V$MEF2_04_M00233'
p2343
aS'V$MEF2_Q6_01_M00941'
p2344
aS'MEF2A_MA0052.1'
p2345
aS'MEF2A_MADS_DBD_dimeric_12_1'
p2346
aS'V$MEF2A_05_M01301'
p2347
aS'V$MEF2A_Q6_M02024'
p2348
aS'V$MMEF2_Q6_M00405'
p2349
aS'V$RSRFC4_01_M00026'
p2350
aS'V$RSRFC4_Q2_M00407'
p2351
asS'ENSG00000101412'
p2352
(lp2353
S'V$E2F_01_M00024'
p2354
aS'V$E2F_02_M00050'
p2355
aS'V$E2F_03_M00516'
p2356
aS'V$E2F_Q2_M00803'
p2357
aS'V$E2F_Q3_01_M00918'
p2358
aS'V$E2F_Q3_M00425'
p2359
aS'V$E2F_Q4_01_M00919'
p2360
aS'V$E2F_Q4_02_M00939'
p2361
aS'V$E2F_Q4_M00426'
p2362
aS'V$E2F_Q6_01_M00920'
p2363
aS'V$E2F_Q6_M00427'
p2364
aS'E2F1_E2F_DBD_dimeric_12_1'
p2365
aS'E2F1_E2F_DBD_monomeric_14_1'
p2366
aS'E2F1_E2F_DBD_monomeric_14_2'
p2367
aS'E2F1_MA0024.1'
p2368
aS'V$E2F1_01_M01250'
p2369
aS'V$E2F1_02_M01251'
p2370
aS'V$E2F1_Q3_01_M00938'
p2371
aS'V$E2F1_Q3_M00428'
p2372
aS'V$E2F1_Q4_M00430'
p2373
aS'V$E2F1_Q6_01_M00940'
p2374
aS'V$E2F1_Q6_M00431'
p2375
asS'ENSG00000157557'
p2376
(lp2377
S'V$CETS2_01_M01989'
p2378
aS'V$CETS2_02_M02064'
p2379
aS'V$ETS2_Q6_M01207'
p2380
asS'ENSG00000157554'
p2381
(lp2382
S'Erg.1'
p2383
aS'ERG_ETS_full_dimeric_14_1'
p2384
aS'ERG_ETS_full_monomeric_10_1'
p2385
aS'V$ERG_01_M01752'
p2386
aS'V$ERG_02_M01985'
p2387
aS'V$ERG_03_M02062'
p2388
asS'ENSG00000116044'
p2389
(lp2390
S'NFE2L2_MA0150.1'
p2391
aS'V$NFE2L2_01_M02263'
p2392
aS'V$NRF2_01_M00108'
p2393
aS'V$NRF2_Q4_M00821'
p2394
asS'ENSG00000164853'
p2395
(lp2396
S'Uncx_homeodomain_DBD_dimeric_13_1'
p2397
aS'Uncx_homeodomain_DBD_monomeric_8_1'
p2398
aS'Uncx4.1'
p2399
aS'V$UNCX4.1_01_M01458'
p2400
asS'ENSG00000010818'
p2401
(lp2402
S'V$MIF1_01_M00279'
p2403
asS'ENSG00000151090'
p2404
(lp2405
S'V$T3RBETA_Q6_01_M02119'
p2406
aS'THRB_nuclearreceptor_DBD_dimeric_18_1'
p2407
aS'THRB_nuclearreceptor_DBD_dimeric_19_1'
p2408
aS'THRB_nuclearreceptor_DBD_dimeric_20_1'
p2409
asS'ENSG00000135903'
p2410
(lp2411
S'PAX3_PAX_DBD_dimeric_10_1'
p2412
aS'V$PAX3_01_M00360'
p2413
aS'V$PAX3_B_M00327'
p2414
asS'ENSG00000125285'
p2415
(lp2416
S'Sox21.1'
p2417
aS'Sox21.2'
p2418
aS'SOX21_HMG_DBD_dimeric_13_2'
p2419
aS'SOX21_HMG_DBD_dimeric_15_1'
p2420
aS'SOX21_HMG_DBD_dimeric_16_1'
p2421
aS'V$SOX21_03_M02803'
p2422
aS'V$SOX21_04_M02907'
p2423
asS'ENSG00000164778'
p2424
(lp2425
S'En2.1'
p2426
aS'EN2_homeodomain_full_monomeric_10_1'
p2427
aS'V$EN2_01_M01455'
p2428
asS'ENSG00000183072'
p2429
(lp2430
S'V$NKX25_01_M00240'
p2431
aS'V$NKX25_02_M00241'
p2432
aS'V$NKX25_03_M01414'
p2433
aS'V$NKX25_Q5_M01043'
p2434
aS'V$NKX25_Q6_M02108'
p2435
aS'Nkx2-5.1'
p2436
aS'Nkx2-5_MA0063.1'
p2437
asS'ENSG00000215612'
p2438
(lp2439
S'Hmx1.1'
p2440
aS'HMX1_homeodomain_DBD_monomeric_11_1'
p2441
aS'V$HMX1_01_M00433'
p2442
aS'V$HMX1_02_M01481'
p2443
asS'ENSG00000198914'
p2444
(lp2445
S'V$OCTAMER_01_M01324'
p2446
aS'V$OCTAMER_02_M01477'
p2447
aS'Pou3f3.1'
p2448
aS'POU3F3_POU_DBD_dimeric_12_1'
p2449
aS'POU3F3_POU_DBD_monomeric_12_1'
p2450
aS'POU3F3_POU_DBD_monomeric_13_1'
p2451
aS'V$POU3F3_01_M03090'
p2452
asS'ENSG00000119725'
p2453
(lp2454
S'V$ZFP410_03_M02832'
p2455
aS'V$ZFP410_04_M02936'
p2456
aS'Zfp410.1'
p2457
aS'Zfp410.2'
p2458
aS'ZNF410_C2H2_DBD_monomeric_17_1'
p2459
asS'ENSG00000147421'
p2460
(lp2461
S'Hmbox1.1'
p2462
aS'HMBOX1_homeodomain_DBD_monomeric_10_1'
p2463
aS'V$HMBOX1_01_M01456'
p2464
asS'ENSG00000278570'
p2465
(lp2466
S'Nr2e3_MA0164.1'
p2467
aS'V$PNR_01_M01650'
p2468
asS'ENSG00000135638'
p2469
(lp2470
S'EMX1_homeodomain_DBD_dimeric_14_1'
p2471
aS'EMX1_homeodomain_DBD_monomeric_10_1'
p2472
asS'ENSG00000124664'
p2473
(lp2474
S'V$PDEF_01_M02040'
p2475
aS'V$PDEF_02_M02075'
p2476
aS'Spdef.1'
p2477
aS'Spdef.2'
p2478
aS'SPDEF_ETS_full_monomeric_11_1'
p2479
aS'SPDEF_ETS_full_putative-multimer_15_1'
p2480
aS'SPDEF_ETS_full_putative-multimer_16_1'
p2481
aS'V$SPDEF_03_M02811'
p2482
aS'V$SPDEF_04_M02915'
p2483
asS'ENSG00000136352'
p2484
(lp2485
S'V$NKX21_01_M01312'
p2486
aS'Titf1.1'
p2487
aS'V$TITF1_Q3_M00432'
p2488
asS'ENSG00000230797'
p2489
(lp2490
S'V$YY2_M01694'
p2491
aS'YY2_C2H2_full_dimeric_12_1'
p2492
aS'YY2_C2H2_full_monomeric_11_1'
p2493
asS'ENSG00000274176'
p2494
(lp2495
g105
asS'ENSG00000108813'
p2496
(lp2497
S'Dlx4.1'
p2498
aS'DLX4_homeodomain_DBD_monomeric_8_1'
p2499
aS'V$DLX7_01_M01486'
p2500
asS'ENSG00000146592'
p2501
(lp2502
S'Creb5_bZIP_DBD_dimeric_12_1'
p2503
asS'ENSG00000163666'
p2504
(lp2505
S'HESX1_homeodomain_DBD_dimeric_15_1'
p2506
aS'HESX1_homeodomain_DBD_monomeric_10_1'
p2507
asS'ENSG00000101076'
p2508
(lp2509
S'V$HNF4_01_B_M00411'
p2510
aS'V$HNF4_01_M00134'
p2511
aS'V$HNF4_DR1_Q3_M00764'
p2512
aS'V$HNF4_Q6_01_M01031'
p2513
aS'V$HNF4_Q6_02_M01032'
p2514
aS'V$HNF4_Q6_03_M01033'
p2515
aS'V$HNF4_Q6_M00967'
p2516
aS'Hnf4a.1'
p2517
aS'Hnf4a.2'
p2518
aS'HNF4A_MA0114.1'
p2519
aS'HNF4A_nuclearreceptor_full_dimeric_14_1'
p2520
aS'HNF4A_nuclearreceptor_full_dimeric_15_1'
p2521
aS'HNF4A_nuclearreceptor_full_dimeric_16_1'
p2522
aS'V$HNF4A_02_M02868'
p2523
aS'V$HNF4A_03_M02220'
p2524
aS'V$HNF4A_04_M02764'
p2525
aS'V$HNF4A_Q6_01_M02016'
p2526
aS'V$HNF4ALPHA_Q6_M00638'
p2527
asS'ENSG00000105516'
p2528
(lp2529
S'DBP_bZIP_full_dimeric_12_1'
p2530
aS'V$DBP_Q6_01_M01872'
p2531
aS'V$DBP_Q6_M00624'
p2532
asS'ENSG00000171056'
p2533
(lp2534
S'Sox7.1'
p2535
aS'Sox7.2'
p2536
aS'SOX7_HMG_full_dimeric_16_1'
p2537
aS'SOX7_HMG_full_dimeric_17_1'
p2538
aS'SOX7_HMG_full_dimeric_17_2'
p2539
aS'V$SOX7_03_M02807'
p2540
aS'V$SOX7_04_M02911'
p2541
asS'ENSG00000170265'
p2542
(lp2543
S'ZNF282_C2H2_DBD_monomeric_17_1'
p2544
asS'ENSG00000165606'
p2545
(lp2546
S'DRGX_homeodomain_DBD_dimeric_13_1'
p2547
asS'ENSG00000133794'
p2548
(lp2549
S'ARNTL_bHLH_DBD_dimeric_10_1'
p2550
asS'ENSG00000107187'
p2551
(lp2552
S'Lhx3.1'
p2553
aS'Lhx3_MA0135.1'
p2554
aS'V$LHX3_01_M01471'
p2555
aS'V$LHX3_Q3_M02097'
p2556
aS'V$LHX3A_01_M00510'
p2557
aS'V$LHX3b_01_M01971'
p2558
asS'ENSG00000074047'
p2559
(lp2560
S'GLI2_C2H2_DBD_monomeric_12_1'
p2561
aS'GLI2_C2H2_DBD_monomeric_14_1'
p2562
aS'V$GLI2_01_M01703'
p2563
asS'ENSG00000144355'
p2564
(lp2565
S'Dlx1.1'
p2566
aS'DLX1_homeodomain_DBD_monomeric_10_1'
p2567
aS'Dlx1_homeodomain_DBD_monomeric_8_1'
p2568
aS'V$DLX1_01_M01439'
p2569
asS'ENSG00000070444'
p2570
(lp2571
S'MNT_bHLH_DBD_dimeric_10_1'
p2572
asS'ENSG00000143437'
p2573
(lp2574
S'Arnt_MA0004.1'
p2575
aS'V$ARNT_01_M00236'
p2576
aS'V$ARNT_02_M00539'
p2577
asS'ENSG00000008441'
p2578
(lp2579
S'NFIX_NFI_full_dimeric_15_2'
p2580
aS'NFIX_NFI_full_monomeric_9_2'
p2581
asS'ENSG00000274616'
p2582
(lp2583
g105
asS'ENSG00000012223'
p2584
(lp2585
S'V$LTF_Q6_M01692'
p2586
asS'ENSG00000275746'
p2587
(lp2588
S'V$BTEB3_Q5_M01865'
p2589
aS'KLF13_C2H2_full_monomeric_18_1'
p2590
asS'ENSG00000071564'
p2591
(lp2592
S'V$E12_Q6_M00693'
p2593
aS'V$E2A_Q2_M00804'
p2594
aS'V$E2A_Q6_01_M02088'
p2595
aS'V$E2A_Q6_M00973'
p2596
aS'V$E47_01_M00002'
p2597
aS'V$E47_02_M00071'
p2598
aS'Tcf3.1'
p2599
aS'Tcf3.2'
p2600
aS'TCF3_bHLH_DBD_dimeric_10_1'
p2601
aS'V$TCF3_01_M01594'
p2602
aS'V$TCF3_04_M02816'
p2603
aS'V$TCF3_05_M02920'
p2604
aS'Tcfe2a.1'
p2605
aS'Tcfe2a.2'
p2606
aS'V$TCFE2A_03_M02823'
p2607
aS'V$TCFE2A_04_M02927'
p2608
asS'ENSG00000198963'
p2609
(lp2610
S'V$RORBETA_Q2_M01722'
p2611
asS'ENSG00000136997'
p2612
(lp2613
S'V$CMYC_01_M01145'
p2614
aS'V$CMYC_02_M01154'
p2615
aS'Myc_MA0147.1'
p2616
aS'V$MYC_01_M02250'
p2617
aS'V$MYC_Q2_M00799'
p2618
asS'ENSG00000057657'
p2619
(lp2620
S'V$BLIMP1_Q6_M01066'
p2621
aS'PRDM1_C2H2_full_monomeric-or-dimeric_15_1'
p2622
asS'ENSG00000175832'
p2623
(lp2624
S'Etv4.1'
p2625
aS'ETV4_ETS_DBD_monomeric_10_1'
p2626
aS'V$PEA3_01_M01991'
p2627
aS'V$PEA3_02_M02066'
p2628
aS'V$PEA3_Q6_M00655'
p2629
asS'ENSG00000010030'
p2630
(lp2631
S'V$ETV7_01_M02071'
p2632
aS'V$TEL2_Q6_M00678'
p2633
asS'ENSG00000120149'
p2634
(lp2635
S'Msx2.1'
p2636
aS'MSX2_homeodomain_DBD_dimeric_18_1'
p2637
aS'MSX2_homeodomain_DBD_monomeric_8_1'
p2638
aS'V$MSX2_01_M01393'
p2639
asS'ENSG00000185960'
p2640
(lp2641
S'SHOX_homeodomain_DBD_monomeric_8_1'
p2642
asS'ENSG00000155959'
p2643
(lp2644
S'V$VBP_01_M00228'
p2645
asS'ENSG00000185630'
p2646
(lp2647
S'V$PBX_Q3_M00998'
p2648
aS'Pbx1.1'
p2649
aS'PBX1_MA0070.1'
p2650
aS'V$PBX1_01_M00096'
p2651
aS'V$PBX1_02_M00124'
p2652
aS'V$PBX1_03_M01017'
p2653
aS'V$PBX1_04_M01357'
p2654
aS'V$PBX1_05_M01967'
p2655
aS'V$PBX1_Q3_M02028'
p2656
asS'ENSG00000151650'
p2657
(lp2658
S'VENTX_homeodomain_DBD_dimeric_21_1'
p2659
aS'VENTX_homeodomain_DBD_monomeric_9_1'
p2660
asS'ENSG00000152192'
p2661
(lp2662
S'POU4F1_POU_DBD_monomeric_14_1'
p2663
asS'ENSG00000148200'
p2664
(lp2665
S'V$GCNF_01_M00526'
p2666
aS'V$GCNF_Q3_M02009'
p2667
asS'ENSG00000283847'
p2668
(lp2669
g2312
ag2313
ag2314
ag2315
ag2316
asS'ENSG00000162419'
p2670
(lp2671
S'Gmeb1.1'
p2672
aS'Gmeb1.2'
p2673
aS'V$GMEB1_03_M02761'
p2674
aS'V$GMEB1_04_M02865'
p2675
asS'ENSG00000128645'
p2676
(lp2677
S'Hoxd1.1'
p2678
aS'V$HOXD1_01_M01448'
p2679
asS'ENSG00000091010'
p2680
(lp2681
S'V$BRN3C_01_M01408'
p2682
aS'Pou4f3.1'
p2683
aS'POU4F3_POU_DBD_monomeric_16_1'
p2684
asS'ENSG00000125812'
p2685
(lp2686
S'V$GZF1_01_M01069'
p2687
asS'ENSG00000180535'
p2688
(lp2689
S'BHLHA15_bHLH_DBD_dimeric_10_1'
p2690
asS'ENSG00000163435'
p2691
(lp2692
S'Elf3.1'
p2693
aS'Elf3.2'
p2694
aS'Elf3.3'
p2695
aS'ELF3_ETS_DBD_monomeric_12_1'
p2696
aS'ELF3_ETS_full_monomeric_13_1'
p2697
aS'V$ESE1_01_M01977'
p2698
aS'V$ESE1_02_M02055'
p2699
aS'V$ESE1_Q3_M01214'
p2700
asS'ENSG00000101216'
p2701
(lp2702
S'GMEB2_SAND_DBD_dimeric_8_2'
p2703
aS'GMEB2_SAND_DBD_dimer-of-dimers_14_1'
p2704
aS'GMEB2_SAND_DBD_dimer-of-dimers_15_1'
p2705
asS'ENSG00000126561'
p2706
(lp2707
S'V$STAT5A_01_M00457'
p2708
aS'V$STAT5A_02_M00460'
p2709
aS'V$STAT5A_03_M00493'
p2710
aS'V$STAT5A_04_M00499'
p2711
aS'V$STAT5A_Q6_M01890'
p2712
asS'ENSG00000156925'
p2713
(lp2714
S'V$ZIC3_01_M00450'
p2715
aS'V$ZIC3_04_M02837'
p2716
aS'V$ZIC3_05_M02941'
p2717
aS'Zic3.1'
p2718
aS'Zic3.2'
p2719
aS'ZIC3_C2H2_full_monomeric_15_1'
p2720
asS'ENSG00000134852'
p2721
(lp2722
S'CLOCK_bHLH_DBD_dimeric_10_1'
p2723
asS'ENSG00000124827'
p2724
(lp2725
S'GCM2_GCM_DBD_monomeric_10_1'
p2726
asS'ENSG00000160199'
p2727
(lp2728
S'Pknox1.1'
p2729
aS'PKNOX1_MEIS_DBD_dimeric_12_1'
p2730
aS'V$PREP1_01_M01459'
p2731
asS'ENSG00000116035'
p2732
(lp2733
S'V$VAX2_01_M01327'
p2734
aS'Vax2.1'
p2735
aS'VAX2_homeodomain_DBD_monomeric_8_1'
p2736
asS'ENSG00000176887'
p2737
(lp2738
S'Sox11.1'
p2739
aS'Sox11.2'
p2740
aS'Sox11_HMG_DBD_dimeric_15_1'
p2741
aS'V$SOX11_03_M02795'
p2742
aS'V$SOX11_04_M02899'
p2743
asS'ENSG00000124766'
p2744
(lp2745
S'SOX4.1'
p2746
aS'Sox4.1'
p2747
aS'Sox4.2'
p2748
aS'SOX4_HMG_DBD_dimeric_16_1'
p2749
aS'V$SOX4_01_M01308'
p2750
asS'ENSG00000164532'
p2751
(lp2752
S'TBX20_TBX_DBD_dimeric_19_1'
p2753
aS'TBX20_TBX_DBD_monomeric_15_1'
p2754
aS'TBX20_TBX_full_dimeric_16_1'
p2755
aS'TBX20_TBX_full_monomeric_11_1'
p2756
asS'ENSG00000170345'
p2757
(lp2758
S'Fos_MA0099.1'
p2759
aS'JUNFOS.1'
p2760
asS'ENSG00000100105'
p2761
(lp2762
S'V$MAZR_01_M00491'
p2763
asS'ENSG00000131196'
p2764
(lp2765
S'V$NFAT2_01_M01748'
p2766
aS'V$NFAT2_02_M01749'
p2767
aS'V$NFAT2_Q5_M01718'
p2768
aS'NFATC1_NFAT_full_dimeric_14_1'
p2769
aS'NFATC1_NFAT_full_dimeric_15_1'
p2770
aS'NFATC1_NFAT_full_dimeric_20_1'
p2771
asS'ENSG00000242265'
p2772
(lp2773
S'V$MEF3_B_M00319'
p2774
asS'ENSG00000165804'
p2775
(lp2776
S'V$ZNF219_01_M01122'
p2777
asS'ENSG00000233911'
p2778
(lp2779
g332
ag333
ag334
ag335
ag336
asS'ENSG00000177508'
p2780
(lp2781
S'Irx3.2'
p2782
aS'Irx3_homeodomain_DBD_dimeric_12_1'
p2783
aS'V$IRX3_01_M01318'
p2784
aS'V$IRX3_02_M01485'
p2785
asS'ENSG00000168066'
p2786
(lp2787
S'V$SF1_Q6_01_M01132'
p2788
aS'V$SF1_Q6_M00727'
p2789
asS'ENSG00000165556'
p2790
(lp2791
S'Cdx2.1'
p2792
aS'CDX2_homeodomain_DBD_monomeric_9_1'
p2793
aS'V$CDX2_01_M01449'
p2794
aS'V$CDX2_Q5_01_M01659'
p2795
aS'V$CDX2_Q5_02_M02087'
p2796
aS'V$CDX2_Q5_M00729'
p2797
asS'ENSG00000106852'
p2798
(lp2799
S'Lhx6.1'
p2800
aS'LHX6_homeodomain_full_dimeric_12_1'
p2801
aS'LHX6_homeodomain_full_dimeric_16_1'
p2802
aS'LHX6_homeodomain_full_monomeric_10_1'
p2803
aS'V$LHX61_01_M01314'
p2804
aS'V$LHX61_02_M01422'
p2805
asS'ENSG00000148516'
p2806
(lp2807
S'V$AREB6_01_M00412'
p2808
aS'V$AREB6_02_M00413'
p2809
aS'V$AREB6_03_M00414'
p2810
aS'V$AREB6_04_M00415'
p2811
aS'V$DELTAEF1_01_M00073'
p2812
aS'ZEB1_MA0103.1'
p2813
asS'ENSG00000063515'
p2814
(lp2815
S'GSC2_homeodomain_DBD_monomeric_10_1'
p2816
asS'ENSG00000165417'
p2817
(lp2818
S'V$TFIIA_Q6_M00707'
p2819
asS'ENSG00000082175'
p2820
(lp2821
S'V$PR_01_M00954'
p2822
aS'V$PR_02_M00957'
p2823
aS'V$PR_Q2_M00960'
p2824
asS'ENSG00000128652'
p2825
(lp2826
S'Hoxd3.1'
p2827
aS'Hoxd3_homeodomain_DBD_monomeric_10_1'
p2828
aS'V$HOXD3_01_M01338'
p2829
asS'ENSG00000069667'
p2830
(lp2831
S'RORA_1_MA0071.1'
p2832
aS'RORA_2_MA0072.1'
p2833
aS'RORA_nuclearreceptor_DBD_dimeric_19_1'
p2834
aS'RORA_nuclearreceptor_DBD_dimeric_20_1'
p2835
aS'V$RORA_Q4_M01138'
p2836
aS'V$RORA1_01_M00156'
p2837
aS'V$RORA2_01_M00157'
p2838
asS'ENSG00000124782'
p2839
(lp2840
S'RREB1_MA0073.1'
p2841
aS'V$RREB1_01_M00257'
p2842
asS'ENSG00000176692'
p2843
(lp2844
S'FOXC2_forkhead_DBD_dimeric_11_1'
p2845
aS'FOXC2_forkhead_DBD_dimeric_14_1'
p2846
aS'FOXC2_forkhead_DBD_monomeric_12_1'
p2847
asS'ENSG00000128713'
p2848
(lp2849
S'Hoxd11.1'
p2850
aS'HOXD11_homeodomain_DBD_monomeric_10_1'
p2851
aS'HOXD11_homeodomain_DBD_monomeric_10_2'
p2852
aS'V$HOXD11_01_M01434'
p2853
asS'ENSG00000274382'
p2854
(lp2855
g850
ag851
ag852
ag853
asS'ENSG00000128710'
p2856
(lp2857
S'Hoxd10.1'
p2858
aS'V$HOXD10_01_M01375'
p2859
asS'ENSG00000166478'
p2860
(lp2861
S'V$STAF_01_M00262'
p2862
aS'V$STAF_02_M00264'
p2863
aS'ZNF143_C2H2_DBD_monomeric_16_1'
p2864
aS'znf143_MA0088.1'
p2865
asS'ENSG00000273873'
p2866
(lp2867
g1087
asS'ENSG00000128714'
p2868
(lp2869
S'Hoxd13.1'
p2870
aS'HOXD13_homeodomain_DBD_monomeric_10_1'
p2871
aS'HOXD13_homeodomain_DBD_monomeric_11_1'
p2872
aS'V$HOXD13_01_M01404'
p2873
asS'ENSG00000234196'
p2874
(lp2875
g1220
ag1221
ag1222
ag1223
asS'ENSG00000102034'
p2876
(lp2877
S'Elf4.1'
p2878
aS'ELF4_ETS_full_monomeric_12_1'
p2879
aS'V$ELF4_01_M01979'
p2880
aS'V$ELF4_02_M02056'
p2881
aS'V$ELF4_04_M02850'
p2882
asS'ENSG00000049768'
p2883
(lp2884
S'FOXP3_forkhead_DBD_monomeric_7_1'
p2885
aS'V$FOXP3_01_M01599'
p2886
aS'V$FOXP3_Q4_M00992'
p2887
asS'ENSG00000141646'
p2888
(lp2889
S'V$SMAD4_04_M02898'
p2890
aS'V$SMAD4_Q6_01_M01889'
p2891
aS'V$SMAD4_Q6_M00733'
p2892
asS'ENSG00000177374'
p2893
(lp2894
S'Hic1.1'
p2895
aS'Hic1.2'
p2896
aS'Hic1_C2H2_DBD_dimeric_18_1'
p2897
aS'Hic1_C2H2_DBD_monomer_9_1'
p2898
aS'V$HIC1_02_M01072'
p2899
aS'V$HIC1_03_M01073'
p2900
aS'V$HIC1_05_M02763'
p2901
aS'V$HIC1_06_M02867'
p2902
asS'ENSG00000173757'
p2903
(lp2904
S'V$STAT5B_01_M00459'
p2905
asS'ENSG00000180818'
p2906
(lp2907
S'Hoxc10.1'
p2908
aS'Hoxc10_homeodomain_DBD_monomeric_10_1'
p2909
aS'Hoxc10_homeodomain_DBD_monomeric_10_2'
p2910
aS'HOXC10_homeodomain_DBD_monomeric_10_3'
p2911
aS'V$HOXC10_01_M01361'
p2912
asS'ENSG00000164736'
p2913
(lp2914
S'Sox17.1'
p2915
aS'Sox17.2'
p2916
aS'Sox17_HMG_DBD_dimeric_15_1'
p2917
aS'Sox17_HMG_DBD_dimeric_15_2'
p2918
aS'Sox17_MA0078.1'
p2919
aS'V$SOX17_01_M01016'
p2920
aS'V$SOX17_04_M02904'
p2921
asS'ENSG00000078900'
p2922
(lp2923
S'Tp73_p53l_DBD_dimeric_18_1'
p2924
asS'ENSG00000136944'
p2925
(lp2926
S'Lmx1b.1'
p2927
aS'LMX1B_homeodomain_full_monomeric_8_1'
p2928
aS'V$LMX1B_01_M01363'
p2929
asS'ENSG00000077092'
p2930
(lp2931
S'V$NR1B2_Q6_M02111'
p2932
aS'Rarb_nuclearreceptor_DBD_dimeric_17_1'
p2933
aS'Rarb_nuclearreceptor_DBD_dimeric_18_1'
p2934
aS'RARB_nuclearreceptor_full_dimeric_16_1'
p2935
asS'ENSG00000227322'
p2936
(lp2937
g245
asS'ENSG00000273706'
p2938
(lp2939
S'Lhx1.1'
p2940
aS'V$LIM1_01_M01418'
p2941
asS'ENSG00000145734'
p2942
(lp2943
g1087
asS'ENSG00000178403'
p2944
(lp2945
S'NEUROG2_bHLH_full_dimeric_10_1'
p2946
asS'ENSG00000105967'
p2947
(lp2948
S'TFEC_bHLH_DBD_dimeric_10_1'
p2949
asS'ENSG00000091831'
p2950
(lp2951
S'V$ER_Q6_02_M00959'
p2952
aS'V$ER_Q6_M00191'
p2953
aS'V$ERALPHA_01_M01801'
p2954
aS'ESR1_MA0112.1'
p2955
aS'ESR1_MA0112.2'
p2956
aS'ESR1_nuclearreceptor_DBD_dimeric_17_1'
p2957
aS'V$ESR1_01_M02261'
p2958
asS'ENSG00000159184'
p2959
(lp2960
S'Hoxb13.1'
p2961
aS'HOXB13_homeodomain_DBD_monomeric_10_1'
p2962
aS'HOXB13_homeodomain_DBD_monomeric_11_1'
p2963
aS'V$HOXB13_01_M01467'
p2964
asS'ENSG00000196092'
p2965
(lp2966
S'Pax5_MA0014.1'
p2967
aS'PAX5_PAX_DBD_monomeric_18_1'
p2968
aS'V$PAX5_01_M00143'
p2969
aS'V$PAX5_02_M00144'
p2970
asS'ENSG00000009950'
p2971
(lp2972
S'MLXIPL_bHLH_full_dimeric_10_1'
p2973
asS'ENSG00000104064'
p2974
(lp2975
S'V$GABPBETA_Q3_M01876'
p2976
asS'ENSG00000126746'
p2977
(lp2978
S'V$CIZ_01_M00734'
p2979
asS'ENSG00000121454'
p2980
(lp2981
S'Lhx4.1'
p2982
aS'Lhx4_homeodomain_DBD_monomeric_8_1'
p2983
aS'V$LHX4_01_M01421'
p2984
asS'ENSG00000087903'
p2985
(lp2986
S'RFX2_RFX_DBD_dimeric_15_1'
p2987
aS'RFX2_RFX_DBD_dimeric_16_1'
p2988
asS'ENSG00000169136'
p2989
(lp2990
S'V$ATF5_01_M01295'
p2991
asS'ENSG00000105419'
p2992
(lp2993
S'Meis3_MEIS_DBD_dimeric_12_1'
p2994
aS'Meis3_MEIS_DBD_monomeric_7_1'
p2995
aS'MEIS3_MEIS_DBD_monomeric_8_1'
p2996
aS'Mrg2.1'
p2997
aS'V$MRG2_01_M01395'
p2998
asS'ENSG00000167074'
p2999
(lp3000
S'TEF_bZIP_DBD_dimeric_12_1'
p3001
aS'V$TEF_01_M01305'
p3002
aS'V$TEF_Q6_M00672'
p3003
asS'ENSG00000004848'
p3004
(lp3005
S'Arx.1'
p3006
aS'Arx_homeodomain_DBD_dimeric_13_1'
p3007
aS'V$ARX_01_M01423'
p3008
aS'V$ARX_02_M02945'
p3009
asS'ENSG00000162772'
p3010
(lp3011
S'V$ATF3_Q6_01_M01863'
p3012
aS'V$ATF3_Q6_M00513'
p3013
asS'ENSG00000147601'
p3014
(lp3015
S'V$TRF1_01_M01237'
p3016
asS'ENSG00000166211'
p3017
(lp3018
S'Spic.1'
p3019
aS'SPIC_ETS_full_monomeric_14_1'
p3020
aS'V$SPIC_01_M02042'
p3021
aS'V$SPIC_02_M02077'
p3022
asS'ENSG00000100393'
p3023
(lp3024
S'V$P300_01_M00033'
p3025
asS'ENSG00000196482'
p3026
(lp3027
S'V$ERR3_Q2_01_M02094'
p3028
aS'V$ERR3_Q2_M02000'
p3029
aS'ESRRG_nuclearreceptor_full_dimeric_17_1'
p3030
aS'ESRRG_nuclearreceptor_full_dimeric_18_1'
p3031
aS'ESRRG_nuclearreceptor_full_monomeric_10_1'
p3032
asS'ENSG00000215271'
p3033
(lp3034
S'Homez.1'
p3035
aS'HOMEZ_HOMEZ_DBD_monomer-or-dimer_12_1'
p3036
aS'V$HOMEZ_01_M01429'
p3037
asS'ENSG00000119715'
p3038
(lp3039
S'V$ERR2_01_M01589'
p3040
aS'Esrrb_MA0141.1'
p3041
aS'ESRRB_nuclearreceptor_DBD_monomeric_11_1'
p3042
asS'ENSG00000141867'
p3043
(lp3044
S'V$CAP_01_M00253'
p3045
asS'ENSG00000175879'
p3046
(lp3047
S'Hoxd8.1'
p3048
aS'HOXD8_homeodomain_DBD_monomeric_10_1'
p3049
aS'V$HOXD8_01_M01432'
p3050
asS'ENSG00000277615'
p3051
(lp3052
g105
asS'ENSG00000181449'
p3053
(lp3054
S'SOX2_HMG_full_dimeric_15_1'
p3055
aS'SOX2_HMG_full_dimeric_17_1'
p3056
aS'Sox2_MA0143.1'
p3057
aS'V$SOX2_01_M02246'
p3058
aS'V$SOX2_Q6_M01272'
p3059
asS'ENSG00000090447'
p3060
(lp3061
S'V$AP3_Q6_M00690'
p3062
aS'TFAP4_bHLH_full_dimeric_10_1'
p3063
asS'ENSG00000105610'
p3064
(lp3065
S'V$EKLF_Q5_M01874'
p3066
asS'ENSG00000177485'
p3067
(lp3068
S'V$KAISO_01_M01119'
p3069
asS'ENSG00000169926'
p3070
(lp3071
g2589
ag2590
asS'ENSG00000148737'
p3072
(lp3073
S'Tcf7l2.1'
p3074
aS'Tcf7l2.2'
p3075
aS'V$TCF7L2_04_M02922'
p3076
asS'ENSG00000162702'
p3077
(lp3078
S'V$ZFP281_01_M01597'
p3079
aS'V$ZFP281_04_M02831'
p3080
aS'V$ZFP281_05_M02935'
p3081
aS'Zfp281.1'
p3082
aS'Zfp281.2'
p3083
asS'ENSG00000133937'
p3084
(lp3085
S'Gsc.1'
p3086
aS'GSC_homeodomain_full_monomeric_10_1'
p3087
aS'V$GSC_01_M01428'
p3088
asS'ENSG00000168214'
p3089
(lp3090
S'V$CBF1_QX_M01727'
p3091
aS'V$RBPJK_01_M01112'
p3092
aS'V$RBPJK_Q4_M01111'
p3093
asS'ENSG00000198911'
p3094
(lp3095
S'SREBF2_bHLH_DBD_dimeric_10_1'
p3096
aS'V$SREBP2_Q6_M01177'
p3097
asS'ENSG00000166823'
p3098
(lp3099
S'MESP1_bHLH_DBD_dimeric_10_1'
p3100
asS'ENSG00000197576'
p3101
(lp3102
S'Hoxa4.1'
p3103
aS'V$HOXA4_01_M01370'
p3104
aS'V$HOXA4_Q2_M00640'
p3105
asS'ENSG00000115297'
p3106
(lp3107
S'V$NCX_01_M00484'
p3108
aS'V$NCX_02_M01420'
p3109
aS'Tlx2.1'
p3110
asS'ENSG00000235068'
p3111
(lp3112
g332
ag333
ag334
ag335
ag336
asS'ENSG00000177426'
p3113
(lp3114
S'V$TGIF_01_M00418'
p3115
aS'V$TGIF_02_M01346'
p3116
aS'Tgif1.1'
p3117
aS'TGIF1_MEIS_DBD_dimeric_12_1'
p3118
aS'V$TGIF1_01_M03111'
p3119
asS'ENSG00000028277'
p3120
(lp3121
S'V$OCT2_01_M01368'
p3122
aS'V$OCT2_02_M01761'
p3123
aS'Pou2f2.1'
p3124
aS'Pou2f2_POU_DBD_dimeric_14_1'
p3125
aS'POU2F2_POU_DBD_monomeric_11_1'
p3126
aS'Pou2f2_POU_DBD_monomeric_9_1'
p3127
asS'ENSG00000100811'
p3128
(lp3129
S'V$YY1_01_M00059'
p3130
aS'V$YY1_02_M00069'
p3131
aS'V$YY1_03_M02044'
p3132
aS'V$YY1_Q6_02_M01035'
p3133
aS'V$YY1_Q6_03_M01894'
p3134
aS'V$YY1_Q6_M00793'
p3135
aS'YY1_C2H2_full_monomeric_11_1'
p3136
aS'YY1_MA0095.1'
p3137
asS'ENSG00000110851'
p3138
(lp3139
S'PRDM4_C2H2_full_monomeric_13_1'
p3140
asS'ENSG00000197757'
p3141
(lp3142
S'Hoxc6.1'
p3143
aS'V$HOXC6_01_M01406'
p3144
asS'ENSG00000214513'
p3145
(lp3146
S'NOTO_homeodomain_DBD_monomeric_10_1'
p3147
asS'ENSG00000117036'
p3148
(lp3149
S'Etv3.1'
p3150
aS'ETV3_ETS_DBD_monomeric_10_1'
p3151
aS'V$ETV3_01_M01990'
p3152
aS'V$ETV3_02_M02068'
p3153
asS'ENSG00000188909'
p3154
(lp3155
S'Bsx.1'
p3156
aS'BSX_homeodomain_DBD_monomeric_8_1'
p3157
aS'V$BSX_01_M01442'
p3158
asS'ENSG00000006468'
p3159
(lp3160
S'V$ER81_01_M01987'
p3161
aS'V$ER81_02_M02065'
p3162
aS'Etv1.1'
p3163
aS'ETV1_ETS_DBD_monomeric_10_1'
p3164
asS'ENSG00000162992'
p3165
(lp3166
S'V$NEUROD_01_M01287'
p3167
aS'V$NEUROD_02_M01288'
p3168
asS'ENSG00000160255'
p3169
(lp3170
S'V$LFA1_Q6_M00646'
p3171
asS'ENSG00000182944'
p3172
(lp3173
S'V$EWSR1FLI1_01_M02252'
p3174
aS'EWSR1-FLI1_MA0149.1'
p3175
asS'ENSG00000164048'
p3176
(lp3177
S'V$SZF11_01_M01109'
p3178
asS'ENSG00000277445'
p3179
(lp3180
g959
asS'ENSG00000007968'
p3181
(lp3182
S'E2F2.1'
p3183
aS'E2F2.2'
p3184
aS'E2F2_E2F_DBD_dimeric_16_1'
p3185
aS'E2F2_E2F_DBD_dimeric_18_1'
p3186
aS'V$E2F2_03_M02742'
p3187
aS'V$E2F2_04_M02846'
p3188
asS'ENSG00000180613'
p3189
(lp3190
S'Gsh2.1'
p3191
aS'V$GSH2_01_M01326'
p3192
aS'GSX2_homeodomain_DBD_monomeric_10_1'
p3193
asS'ENSG00000174279'
p3194
(lp3195
S'Evx2.1'
p3196
aS'EVX2_homeodomain_DBD_monomeric_10_1'
p3197
aS'V$EVX2_01_M01386'
p3198
asS'ENSG00000100146'
p3199
(lp3200
S'SOX10_HMG_full_dimeric_14_1'
p3201
aS'SOX10_HMG_full_dimeric_15_3'
p3202
aS'SOX10_HMG_full_dimeric_16_1'
p3203
aS'SOX10_MA0442.1'
p3204
aS'V$SOX10_01_M03138'
p3205
aS'V$SOX10_Q6_01_M02116'
p3206
aS'V$SOX10_Q6_M01131'
p3207
asS'ENSG00000120075'
p3208
(lp3209
S'Hoxb5.1'
p3210
aS'HOXB5_homeodomain_DBD_monomeric_10_1'
p3211
aS'V$HOXB5_01_M01319'
p3212
asS'ENSG00000162676'
p3213
(lp3214
S'Gfi_MA0038.1'
p3215
aS'V$GFI1_01_M00250'
p3216
aS'V$GFI1_Q6_01_M02010'
p3217
aS'V$GFI1_Q6_M01067'
p3218
asS'ENSG00000073861'
p3219
(lp3220
S'TBX21_TBX_full_dimeric_16_1'
p3221
aS'TBX21_TBX_full_dimeric_19_1'
p3222
aS'TBX21_TBX_full_monomeric_10_1'
p3223
asS'ENSG00000172059'
p3224
(lp3225
S'V$FKLF_Q5_M01837'
p3226
asS'ENSG00000106689'
p3227
(lp3228
S'Lhx2.1'
p3229
aS'LHX2_homeodomain_DBD_dimeric_15_1'
p3230
aS'LHX2_homeodomain_DBD_monomeric_10_1'
p3231
aS'V$LHX2_01_M01325'
p3232
asS'ENSG00000185668'
p3233
(lp3234
S'Pou3f1.1'
p3235
aS'POU3F1_POU_DBD_monomeric_12_1'
p3236
aS'POU3F1_POU_DBD_monomeric_12_2'
p3237
aS'V$TST1_01_M00133'
p3238
aS'V$TST1_02_M01316'
p3239
asS'ENSG00000074219'
p3240
(lp3241
S'V$ETF_Q6_M00695'
p3242
asS'ENSG00000066336'
p3243
(lp3244
S'V$PU1_Q4_M01172'
p3245
aS'V$PU1_Q6_M00658'
p3246
aS'Sfpi1.2'
p3247
aS'Sfpi1.3'
p3248
aS'V$SFPI1_04_M02896'
p3249
aS'SPI1_ETS_full_monomeric_14_1'
p3250
aS'SPI1_MA0080.1'
p3251
aS'SPI1_MA0080.2'
p3252
aS'V$SPI1_01_M01203'
p3253
aS'V$SPI1_02_M02043'
p3254
aS'V$SPI1_03_M02078'
p3255
aS'V$SPI1_04_M02278'
p3256
aS'V$SPI1_Q5_M02031'
p3257
asS'ENSG00000172273'
p3258
(lp3259
S'HINFP1_C2H2_full_dimeric_19_1'
p3260
aS'HINFP1_C2H2_full_dimeric_20_1'
p3261
aS'HINFP1_C2H2_full_monomeric_12_1'
p3262
aS'MIZF_MA0131.1'
p3263
aS'V$MIZF_01_M01182'
p3264
asS'ENSG00000087510'
p3265
(lp3266
S'V$AP2GAMMA_01_M00470'
p3267
aS'V$AP2GAMMA_Q5_M01859'
p3268
aS'Tcfap2c.1'
p3269
aS'Tcfap2c.2'
p3270
aS'V$TCFAP2C_03_M02821'
p3271
aS'V$TCFAP2C_04_M02925'
p3272
aS'TFAP2C_TFAP_full_dimeric_11_1'
p3273
aS'TFAP2C_TFAP_full_dimeric_12_1'
p3274
aS'TFAP2C_TFAP_full_dimeric_13_1'
p3275
asS'ENSG00000140968'
p3276
(lp3277
S'V$ICSBP_Q6_M00699'
p3278
aS'IRF8_IRF_full_dimeric_14_1'
p3279
aS'V$IRF8_Q6_M01665'
p3280
asS'ENSG00000143799'
p3281
(lp3282
S'V$PARP_Q3_M01211'
p3283
aS'V$PARP_Q4_M02027'
p3284
asS'ENSG00000115844'
p3285
(lp3286
S'Dlx2.1'
p3287
aS'Dlx2_homeodomain_DBD_monomeric_8_1'
p3288
aS'V$DLX2_01_M01468'
p3289
asS'ENSG00000163508'
p3290
(lp3291
S'Eomes.1'
p3292
aS'Eomes.2'
p3293
aS'EOMES_TBX_DBD_dimeric_20_1'
p3294
aS'EOMES_TBX_DBD_monomeric_13_1'
p3295
aS'V$EOMES_03_M02747'
p3296
aS'V$EOMES_04_M02851'
p3297
aS'V$TBR2_01_M01774'
p3298
asS'ENSG00000142700'
p3299
(lp3300
S'V$DMRT5_01_M01150'
p3301
asS'ENSG00000138378'
p3302
(lp3303
S'V$STAT4_01_M00498'
p3304
aS'V$STAT4_Q4_M01666'
p3305
aS'V$STAT4_Q5_M02117'
p3306
asS'ENSG00000185155'
p3307
(lp3308
S'MIXL1_homeodomain_full_monomeric_10_1'
p3309
asS'ENSG00000120093'
p3310
(lp3311
S'Hoxb3.1'
p3312
aS'HOXB3_homeodomain_DBD_monomeric_10_1'
p3313
aS'V$HOXB3_01_M01330'
p3314
asS'ENSG00000251493'
p3315
(lp3316
S'FOXD1_MA0031.1'
p3317
aS'V$FREAC4_01_M00292'
p3318
asS'ENSG00000112333'
p3319
(lp3320
S'NR2E1_nuclearreceptor_full_dimeric_14_1'
p3321
aS'NR2E1_nuclearreceptor_full_monomeric_9_1'
p3322
asS'ENSG00000177030'
p3323
(lp3324
g542
ag543
asS'ENSG00000115966'
p3325
(lp3326
S'V$ATF2_Q5_M01862'
p3327
aS'V$CREBP1_01_M00040'
p3328
aS'V$CREBP1_Q2_M00179'
p3329
aS'V$CREBP1CJUN_01_M00041'
p3330
asS'ENSG00000274941'
p3331
(lp3332
g105
asS'ENSG00000180318'
p3333
(lp3334
S'Alx1_homeodomain_DBD_dimeric_13_1'
p3335
aS'Alx1_homeodomain_DBD_monomeric_10_1'
p3336
asS'ENSG00000160224'
p3337
(lp3338
S'V$AIRE_01_M00999'
p3339
aS'V$AIRE_02_M01000'
p3340
asS'ENSG00000123407'
p3341
(lp3342
S'Hoxc12.1'
p3343
aS'HOXC12_homeodomain_DBD_monomeric_11_1'
p3344
aS'HOXC12_homeodomain_DBD_monomeric_9_1'
p3345
aS'V$HOXC12_01_M01437'
p3346
asS'ENSG00000123405'
p3347
(lp3348
S'NFE2_bZIP_DBD_dimeric_11_1'
p3349
aS'V$NFE2_01_M00037'
p3350
aS'V$NFE2_Q6_M02104'
p3351
asS'ENSG00000169297'
p3352
(lp3353
S'V$DAX1_01_M01248'
p3354
asS'ENSG00000172201'
p3355
(lp3356
S'ID4_bHLH_DBD_dimeric_10_1'
p3357
asS'ENSG00000151615'
p3358
(lp3359
S'POU4F2_POU_full_monomeric_16_1'
p3360
asS'ENSG00000092067'
p3361
(lp3362
S'CEBPE_bZIP_DBD_dimeric_10_1'
p3363
aS'V$CEBPE_01_M01772'
p3364
aS'V$CEBPE_Q6_M01868'
p3365
asS'ENSG00000173404'
p3366
(lp3367
S'INSM1_MA0155.1'
p3368
aS'V$INSM1_01_M02268'
p3369
asS'ENSG00000012504'
p3370
(lp3371
S'V$FXR_IR1_Q6_M00767'
p3372
aS'V$FXR_Q2_M01268'
p3373
aS'V$FXR_Q3_M00631'
p3374
asS'ENSG00000106459'
p3375
(lp3376
S'NRF1_NRF_full_dimeric_12_1'
p3377
aS'V$NRF1_Q6_M00652'
p3378
asS'ENSG00000185591'
p3379
(lp3380
S'SP1_C2H2_DBD_monomeric_11_1'
p3381
aS'SP1_MA0079.1'
p3382
aS'SP1_MA0079.2'
p3383
aS'V$SP1_01_M00008'
p3384
aS'V$SP1_02_M01303'
p3385
aS'V$SP1_03_M02281'
p3386
aS'V$SP1_Q2_01_M00933'
p3387
aS'V$SP1_Q4_01_M00932'
p3388
aS'V$SP1_Q6_01_M00931'
p3389
aS'V$SP1_Q6_M00196'
p3390
aS'V$SP1SP3_Q4_M01219'
p3391
asS'ENSG00000173153'
p3392
(lp3393
S'V$ERR1_Q2_01_M02093'
p3394
aS'V$ERR1_Q2_M00511'
p3395
aS'V$ERR1_Q3_M01841'
p3396
aS'Esrra.1'
p3397
aS'Esrra.2'
p3398
aS'Esrra_nuclearreceptor_DBD_dimeric_17_1'
p3399
aS'ESRRA_nuclearreceptor_DBD_dimeric_19_1'
p3400
aS'Esrra_nuclearreceptor_DBD_monomeric_11_1'
p3401
aS'V$ESRRA_03_M02748'
p3402
aS'V$ESRRA_04_M02852'
p3403
asS'ENSG00000181827'
p3404
(lp3405
S'Rfxdc2.2'
p3406
aS'V$RFXDC2_03_M02790'
p3407
aS'V$RFXDC2_04_M02894'
p3408
asS'ENSG00000173976'
p3409
(lp3410
S'RAXL1_homeodomain_DBD_monomeric_8_1'
p3411
asS'ENSG00000136826'
p3412
(lp3413
S'V$GKLF_02_M01588'
p3414
aS'V$GKLF_Q4_M01835'
p3415
aS'Klf4_MA0039.1'
p3416
aS'Klf4_MA0039.2'
p3417
asS'ENSG00000177468'
p3418
(lp3419
S'OLIG3_bHLH_DBD_dimeric_10_1'
p3420
asS'ENSG00000136630'
p3421
(lp3422
S'V$HB24_01_M01399'
p3423
aS'Hlx1.1'
p3424
asS'ENSG00000184302'
p3425
(lp3426
S'Six6.2'
p3427
aS'Six6.3'
p3428
aS'V$SIX6_01_M01345'
p3429
aS'V$SIX6_02_M01398'
p3430
aS'V$SIX6_08_M02897'
p3431
asS'ENSG00000111206'
p3432
(lp3433
S'V$FOXM1_01_M00630'
p3434
asS'ENSG00000185697'
p3435
(lp3436
S'Mybl1.1'
p3437
aS'Mybl1.2'
p3438
aS'MYBL1_MYB_DBD_dimeric_12_1'
p3439
aS'MYBL1_MYB_DBD_dimeric_12_2'
p3440
aS'MYBL1_MYB_DBD_dimeric_17_1'
p3441
aS'MYBL1_MYB_DBD_monomeric_11_1'
p3442
aS'V$MYBL1_03_M02780'
p3443
aS'V$MYBL1_04_M02884'
p3444
asS'ENSG00000276561'
p3445
(lp3446
g1339
ag1340
ag1341
ag1342
asS'ENSG00000212993'
p3447
(lp3448
S'POU5F1P1_POU_DBD_monomeric_12_1'
p3449
aS'POU5F1P1_POU_DBD_monomeric_9_1'
p3450
asS'ENSG00000204366'
p3451
(lp3452
g1220
ag1221
ag1222
ag1223
asS'ENSG00000168779'
p3453
(lp3454
S'Shox2.1'
p3455
aS'Shox2_homeodomain_DBD_monomeric_8_1'
p3456
aS'V$SHOX2_01_M01415'
p3457
asS'ENSG00000175592'
p3458
(lp3459
S'V$FRA1_Q5_M01267'
p3460
aS'V$FRA1_Q6_M02095'
p3461
asS'ENSG00000116132'
p3462
(lp3463
S'Prrx1.1'
p3464
aS'PRRX1_homeodomain_full_dimeric_11_1'
p3465
aS'PRRX1_homeodomain_full_monomeric_8_1'
p3466
asS'ENSG00000112561'
p3467
(lp3468
S'V$TFE_Q6_M01029'
p3469
aS'TFEB_bHLH_full_dimeric_10_1'
p3470
aS'V$TFEB_01_M01768'
p3471
asS'ENSG00000159556'
p3472
(lp3473
S'Isl2.1'
p3474
aS'ISL2_homeodomain_DBD_monomeric_8_1'
p3475
aS'V$ISL2_01_M01328'
p3476
aS'V$ISL2_02_M02079'
p3477
aS'V$ISL2_03_M02080'
p3478
aS'V$ISL2_04_M02081'
p3479
aS'V$ISL2_05_M02082'
p3480
asS'ENSG00000167157'
p3481
(lp3482
S'Prrx2.1'
p3483
aS'PRRX2_homeodomain_full_monomeric_8_1'
p3484
aS'Prrx2_MA0075.1'
p3485
aS'V$PRX2_Q2_M02115'
p3486
aS'V$S8_01_M00099'
p3487
aS'V$S8_02_M01376'
p3488
asS'ENSG00000106038'
p3489
(lp3490
S'Evx1.1'
p3491
aS'EVX1_homeodomain_DBD_monomeric_10_1'
p3492
aS'V$EVX1_01_M01475'
p3493
asS'ENSG00000129194'
p3494
(lp3495
S'Sox15.1'
p3496
aS'Sox15.2'
p3497
aS'SOX15_HMG_full_dimeric_15_1'
p3498
aS'SOX15_HMG_full_dimeric_15_3'
p3499
aS'V$SOX15_03_M02799'
p3500
aS'V$SOX15_04_M02903'
p3501
asS'ENSG00000142025'
p3502
(lp3503
S'V$DMRT7_01_M01151'
p3504
asS'ENSG00000131408'
p3505
(lp3506
S'V$LXRB_RXRA_Q5_M02021'
p3507
asS'ENSG00000077150'
p3508
(lp3509
S'NFKB2_NFAT_DBD_dimeric_13_1'
p3510
asS'ENSG00000106031'
p3511
(lp3512
S'V$HOX13_01_M00023'
p3513
aS'V$HOX13_02_M01452'
p3514
aS'Hoxa13.1'
p3515
aS'HOXA13_homeodomain_full_monomeric_10_1'
p3516
aS'HOXA13_homeodomain_full_monomeric_11_1'
p3517
aS'V$HOXA13_01_M01292'
p3518
aS'V$HOXA13_02_M01297'
p3519
aS'V$HOXA13_03_M01430'
p3520
asS'ENSG00000180828'
p3521
(lp3522
S'BHLHE22_bHLH_DBD_dimeric_12_1'
p3523
asS'ENSG00000132170'
p3524
(lp3525
S'PPARG_MA0066.1'
p3526
aS'V$PPARG_01_M00512'
p3527
aS'V$PPARG_02_M00515'
p3528
aS'V$PPARG_03_M00528'
p3529
aS'V$PPARG_Q6_M01270'
p3530
aS'V$PPARGRXRA_01_M02262'
p3531
asS'ENSG00000130675'
p3532
(lp3533
S'V$HB9_01_M01349'
p3534
aS'Hlxb9.1'
p3535
aS'MNX1_homeodomain_DBD_monomeric_10_1'
p3536
asS'ENSG00000123576'
p3537
(lp3538
S'Esx1.1'
p3539
aS'ESX1_homeodomain_full_monomeric_10_1'
p3540
aS'V$ESX1_01_M01474'
p3541
asS'ENSG00000005102'
p3542
(lp3543
S'Meox1.1'
p3544
aS'MEOX1_homeodomain_full_monomeric_10_1'
p3545
aS'V$MOX1_01_M01443'
p3546
asS'ENSG00000009709'
p3547
(lp3548
S'Pax7.1'
p3549
aS'PAX7_PAX_full_dimeric_10_1'
p3550
aS'V$PAX7_01_M01339'
p3551
asS'ENSG00000005513'
p3552
(lp3553
S'Sox8.1'
p3554
aS'Sox8.2'
p3555
aS'SOX8_HMG_DBD_dimeric_14_1'
p3556
aS'SOX8_HMG_DBD_dimeric_16_1'
p3557
aS'SOX8_HMG_full_dimeric_13_1'
p3558
aS'SOX8_HMG_full_dimeric_15_1'
p3559
aS'SOX8_HMG_full_dimeric_17_1'
p3560
aS'V$SOX8_03_M02808'
p3561
aS'V$SOX8_04_M02912'
p3562
asS'ENSG00000078399'
p3563
(lp3564
S'Hoxa9.1'
p3565
aS'V$HOXA9_01_M01351'
p3566
aS'V$MEIS1AHOXA9_01_M00420'
p3567
aS'V$MEIS1BHOXA9_02_M00421'
p3568
asS'ENSG00000237900'
p3569
(lp3570
g1220
ag1221
ag1222
ag1223
asS'ENSG00000206454'
p3571
(lp3572
g332
ag333
ag334
ag335
ag336
asS'ENSG00000123358'
p3573
(lp3574
S'V$NUR77_Q5_M01217'
p3575
asS'ENSG00000111145'
p3576
(lp3577
S'Elk3.1'
p3578
aS'Elk3_ETS_DBD_monomeric_10_1'
p3579
aS'V$NET_01_M01982'
p3580
aS'V$NET_02_M02060'
p3581
asS'ENSG00000188786'
p3582
(lp3583
S'Mtf1.1'
p3584
aS'Mtf1.2'
p3585
aS'MTF1_C2H2_DBD_monomeric_14_1'
p3586
aS'V$MTF1_01_M01242'
p3587
aS'V$MTF1_02_M01243'
p3588
aS'V$MTF1_05_M02778'
p3589
aS'V$MTF1_06_M02882'
p3590
aS'V$MTF1_Q4_M00650'
p3591
asS'ENSG00000198815'
p3592
(lp3593
S'Foxj3.1'
p3594
aS'Foxj3.2'
p3595
aS'Foxj3_forkhead_DBD_dimeric_13_1'
p3596
aS'FOXJ3_forkhead_DBD_dimeric_14_1'
p3597
aS'Foxj3_forkhead_DBD_monomeric_8_1'
p3598
aS'Foxj3_forkhead_DBD_putatively-multimeric_11_1'
p3599
aS'V$FOXJ3_06_M02855'
p3600
asS'ENSG00000148704'
p3601
(lp3602
S'V$VAX1_01_M01397'
p3603
aS'Vax1.1'
p3604
aS'VAX1_homeodomain_DBD_monomeric_8_1'
p3605
asS'ENSG00000120738'
p3606
(lp3607
S'V$EGR_Q6_M00807'
p3608
aS'Egr1.1'
p3609
aS'Egr1.2'
p3610
aS'EGR1_C2H2_full_monomeric_14_1'
p3611
aS'Egr1_C2H2_mouse-DBD_mutant_DBD_monomeric_16_1'
p3612
aS'Egr1_MA0162.1'
p3613
aS'V$EGR1_01_M00243'
p3614
aS'V$EGR1_02_M01972'
p3615
aS'V$EGR1_04_M02848'
p3616
aS'V$EGR1_06_M02744'
p3617
aS'V$EGR1_Q6_M01873'
p3618
aS'Zif268.1'
p3619
asS'ENSG00000184271'
p3620
(lp3621
S'Pou6f1.2'
p3622
aS'V$POU6F1_01_M00465'
p3623
aS'V$POU6F1_02_M01462'
p3624
aS'V$POU6F1_03_M01479'
p3625
asS'ENSG00000168310'
p3626
(lp3627
S'IRF2_MA0051.1'
p3628
aS'V$IRF2_01_M00063'
p3629
aS'V$IRF2_Q6_M01882'
p3630
asS'ENSG00000282899'
p3631
(lp3632
g3183
ag3184
ag3185
ag3186
ag3187
ag3188
asS'ENSG00000122592'
p3633
(lp3634
S'Hoxa7.1'
p3635
aS'V$HOXA7_01_M01108'
p3636
aS'V$HOXA7_02_M01336'
p3637
aS'V$HOXA7_03_M01394'
p3638
asS'ENSG00000126778'
p3639
(lp3640
S'Six1.1'
p3641
aS'V$SIX1_01_M01313'
p3642
asS'ENSG00000150281'
p3643
(lp3644
S'V$CTF1_01_M01196'
p3645
asS'ENSG00000166949'
p3646
(lp3647
S'Smad3.1'
p3648
aS'Smad3.2'
p3649
aS'SMAD3_MAD_DBD_dimeric_10_1'
p3650
aS'V$SMAD3_03_M02794'
p3651
aS'V$SMAD3_Q6_01_M01888'
p3652
aS'V$SMAD3_Q6_M00701'
p3653
asS'ENSG00000019549'
p3654
(lp3655
S'SNAI2_C2H2_DBD_monomeric_9_1'
p3656
asS'ENSG00000231321'
p3657
(lp3658
g245
asS'ENSG00000104689'
p3659
(lp3660
S'V$DR4_Q2_M00965'
p3661
asS'ENSG00000120690'
p3662
(lp3663
S'V$ELF_02_M02053'
p3664
aS'ELF1_ETS_full_monomeric_12_1'
p3665
aS'V$ELF1_01_M01975'
p3666
aS'V$ELF1_Q5_M01266'
p3667
aS'V$ELF1_Q6_M00746'
p3668
asS'ENSG00000196628'
p3669
(lp3670
S'TCF4_bHLH_full_dimeric_10_1'
p3671
aS'V$TCF4_01_M01705'
p3672
aS'V$TCF4_Q5_01_M02033'
p3673
aS'V$TCF4_Q5_M00671'
p3674
asS'ENSG00000164011'
p3675
(lp3676
S'V$ZFP691_03_M02833'
p3677
aS'V$ZFP691_04_M02937'
p3678
aS'Zfp691.1'
p3679
aS'Zfp691.2'
p3680
asS'ENSG00000273529'
p3681
(lp3682
S'HES5_bHLH_DBD_dimeric_12_1'
p3683
asS'ENSG00000198353'
p3684
(lp3685
S'Hoxc4.1'
p3686
aS'V$HOXC4_01_M01369'
p3687
asS'ENSG00000099326'
p3688
(lp3689
S'MZF1_1-4_MA0056.1'
p3690
aS'MZF1_5-13_MA0057.1'
p3691
aS'V$MZF1_01_M00083'
p3692
aS'V$MZF1_02_M00084'
p3693
aS'V$MZF1_Q5_M01733'
p3694
asS'ENSG00000184058'
p3695
(lp3696
S'TBX1_TBX_DBD_dimeric_19_1'
p3697
aS'TBX1_TBX_DBD_dimeric_20_1'
p3698
aS'TBX1_TBX_DBD_dimeric_20_2'
p3699
aS'TBX1_TBX_DBD_dimeric_23_1'
p3700
aS'TBX1_TBX_DBD_monomeric_8_1'
p3701
asS'ENSG00000100625'
p3702
(lp3703
S'Six4.1'
p3704
aS'V$SIX4_01_M01374'
p3705
asS'ENSG00000148606'
p3706
(lp3707
S'V$RPC155_01_M01798'
p3708
asS'ENSG00000109101'
p3709
(lp3710
S'V$WHN_B_M00332'
p3711
asS'ENSG00000258873'
p3712
(lp3713
S'DUXA_homeodomain_DBD_dimeric_13_1'
p3714
asS'ENSG00000170178'
p3715
(lp3716
S'Hoxd12.1'
p3717
aS'HOXD12_homeodomain_DBD_monomeric_11_1'
p3718
aS'HOXD12_homeodomain_DBD_monomeric_9_1'
p3719
aS'V$HOXD12_01_M01380'
p3720
asS'ENSG00000076604'
p3721
(lp3722
S'Cart1.2'
p3723
aS'CART1_homeodomain_DBD_dimeric_13_1'
p3724
aS'V$CART1_01_M00416'
p3725
aS'V$CART1_02_M01362'
p3726
aS'V$CART1_03_M01453'
p3727
asS'ENSG00000100968'
p3728
(lp3729
S'V$NFAT3_Q3_M01734'
p3730
asS'ENSG00000162639'
p3731
(lp3732
S'V$HEN1_01_M00068'
p3733
aS'V$HEN1_02_M00058'
p3734
asS'ENSG00000095794'
p3735
(lp3736
S'V$CREM_Q6_M01820'
p3737
asS'ENSG00000100219'
p3738
(lp3739
S'V$HTF_01_M00538'
p3740
aS'V$XBP1_01_M00251'
p3741
aS'V$XBP1_02_M01770'
p3742
aS'XBP1_bZIP_DBD_dimeric_12_1'
p3743
aS'XBP1_bZIP_DBD_dimeric_14_1'
p3744
asS'ENSG00000151623'
p3745
(lp3746
S'NR3C2_nuclearreceptor_DBD_dimeric_17_1'
p3747
asS'ENSG00000115415'
p3748
(lp3749
S'V$STAT_01_M00223'
p3750
aS'V$STAT_Q6_M00777'
p3751
aS'STAT1_MA0137.1'
p3752
aS'STAT1_MA0137.2'
p3753
aS'V$STAT1_01_M00224'
p3754
aS'V$STAT1_02_M00492'
p3755
aS'V$STAT1_03_M00496'
p3756
aS'V$STAT1_05_M01260'
p3757
aS'V$STAT1_Q6_M01823'
p3758
aS'V$STAT1STAT1_Q3_M01212'
p3759
asS'ENSG00000107859'
p3760
(lp3761
S'Pitx3.1'
p3762
aS'PITX3_homeodomain_DBD_monomeric_9_1'
p3763
aS'V$PITX3_01_M01343'
p3764
aS'V$PITX3_Q2_M01735'
p3765
asS'ENSG00000165066'
p3766
(lp3767
S'V$NKX63_01_M01470'
p3768
aS'Nkx6-3.1'
p3769
asS'ENSG00000075891'
p3770
(lp3771
S'Pax2_MA0067.1'
p3772
aS'PAX2_PAX_DBD_monomeric_18_1'
p3773
aS'V$PAX2_01_M00098'
p3774
aS'V$PAX2_02_M00486'
p3775
asS'ENSG00000132005'
p3776
(lp3777
S'V$RFX_Q6_M00975'
p3778
aS'V$RFX1_01_M00280'
p3779
aS'V$RFX1_02_M00281'
p3780
asS'ENSG00000172238'
p3781
(lp3782
S'Atoh1_bHLH_DBD_dimeric_10_1'
p3783
aS'V$MATH1_Q2_M01716'
p3784
asS'ENSG00000125798'
p3785
(lp3786
S'Foxa2.1'
p3787
aS'Foxa2.2'
p3788
aS'Foxa2_MA0047.1'
p3789
aS'Foxa2_MA0047.2'
p3790
aS'V$FOXA2_02_M02853'
p3791
aS'V$FOXA2_03_M02260'
p3792
aS'V$FOXA2_04_M02749'
p3793
aS'V$HNF3B_01_M00131'
p3794
aS'V$HNF3B_Q6_M02014'
p3795
asS'ENSG00000263001'
p3796
(lp3797
S'V$TFIII_Q6_M00706'
p3798
asS'ENSG00000197921'
p3799
(lp3800
g3683
asS'ENSG00000169856'
p3801
(lp3802
S'V$HNF6_Q6_M00639'
p3803
aS'ONECUT1_CUT_full_monomeric_14_1'
p3804
asS'ENSG00000108511'
p3805
(lp3806
S'Hoxb6.1'
p3807
aS'V$HOXB6_01_M01460'
p3808
asS'ENSG00000126456'
p3809
(lp3810
S'Irf3.1'
p3811
aS'Irf3.2'
p3812
aS'IRF3_IRF_full_trimeric_21_1'
p3813
aS'V$IRF3_05_M02767'
p3814
aS'V$IRF3_06_M02871'
p3815
aS'V$IRF3_Q3_M01279'
p3816
asS'ENSG00000114861'
p3817
(lp3818
S'V$FOXP1_01_M00987'
p3819
asS'ENSG00000134317'
p3820
(lp3821
S'GRHL1_CP2_DBD_dimeric_10_1'
p3822
aS'GRHL1_CP2_DBD_dimer-of-dimers_17_1'
p3823
aS'GRHL1_CP2_full_dimeric_12_1'
p3824
asS'ENSG00000167967'
p3825
(lp3826
S'V$E4F1_Q6_01_M02091'
p3827
aS'V$E4F1_Q6_M00694'
p3828
asS'ENSG00000169083'
p3829
(lp3830
S'Ar_MA0007.1'
p3831
aS'AR_nuclearreceptor_full_dimeric_17_1'
p3832
aS'V$AR_01_M00481'
p3833
aS'V$AR_02_M00953'
p3834
aS'V$AR_03_M00956'
p3835
aS'V$AR_04_M01201'
p3836
aS'V$AR_Q2_M00447'
p3837
aS'V$AR_Q6_01_M01996'
p3838
aS'V$AR_Q6_M00962'
p3839
asS'ENSG00000274577'
p3840
(lp3841
g2940
ag2941
asS'ENSG00000125492'
p3842
(lp3843
S'Barhl1.1'
p3844
aS'Barhl1_homeodomain_DBD_dimeric_16_1'
p3845
aS'Barhl1_homeodomain_DBD_monomeric_10_1'
p3846
aS'V$BARHL1_01_M01332'
p3847
asS'ENSG00000178665'
p3848
(lp3849
S'ZNF713_C2H2_full_monomeric_17_1'
p3850
asS'ENSG00000025156'
p3851
(lp3852
S'HSF2_HSF_DBD_trimeric_13_1'
p3853
aS'V$HSF2_01_M00147'
p3854
aS'V$HSF2_02_M01244'
p3855
asS'ENSG00000152284'
p3856
(lp3857
S'TCF7L1_HMG_full_monomeric_12_1'
p3858
asS'ENSG00000113580'
p3859
(lp3860
S'V$GR_01_M00955'
p3861
aS'V$GR_Q6_01_M00921'
p3862
aS'V$GR_Q6_02_M01836'
p3863
aS'V$GR_Q6_M00192'
p3864
aS'V$GRE_C_M00205'
p3865
aS'NR3C1_MA0113.1'
p3866
aS'NR3C1_nuclearreceptor_DBD_dimeric_17_1'
p3867
aS'V$NR3C1_01_M02219'
p3868
asS'ENSG00000108788'
p3869
(lp3870
S'MLX_bHLH_full_dimeric_10_1'
p3871
asS'ENSG00000228333'
p3872
(lp3873
g245
asS'ENSG00000148826'
p3874
(lp3875
S'V$NKX62_Q2_M00489'
p3876
aS'NKX6-2_homeodomain_full_monomeric_8_1'
p3877
asS'ENSG00000162086'
p3878
(lp3879
S'ZNF75A_C2H2_DBD_monomeric_12_1'
p3880
asS'ENSG00000180053'
p3881
(lp3882
S'V$NKX26_01_M01322'
p3883
aS'Nkx2-6.1'
p3884
asS'ENSG00000179388'
p3885
(lp3886
S'Egr3_C2H2_DBD_monomeric_15_1'
p3887
aS'V$EGR3_01_M00245'
p3888
asS'ENSG00000103241'
p3889
(lp3890
S'V$HFH8_01_M00294'
p3891
as.