(dp1
S'ENSG00000134954'
p2
(lp3
S'ERR194315'
p4
aS'V_ETS_Q4_M00771'
p5
aS'V_CETS1P54_01_M00032'
p6
aS'MA0098.3'
p7
aS'ERR194000'
p8
aS'V_CETS1_01_M01986'
p9
aS'ERR194317'
p10
aS'V_CETS1_02_M02063'
p11
aS'V_ETS1_B_M00339'
p12
aS'V_CETS1P54_02_M00074'
p13
aS'ERR194313'
p14
aS'V_ETS_B_M00340'
p15
aS'V_CETS1P54_03_M01078'
p16
aS'ERR194316'
p17
aS'Ets1.1'
p18
aS'ERR194001'
p19
aS'ERR193999'
p20
aS'ERR194314'
p21
asS'ENSG00000106006'
p22
(lp23
S'Hoxa6.1'
p24
aS'MA1497.1'
p25
aS'V_HOXA6_01_M01392'
p26
aS'ERR1003845'
p27
aS'ERR1003847'
p28
aS'ERR1003843'
p29
asS'ENSG00000019549'
p30
(lp31
S'MA0745.2'
p32
aS'ERR1006077'
p33
aS'ERR1006076'
p34
aS'ERR1006075'
p35
aS'ERR1006069'
p36
asS'ENSG00000106004'
p37
(lp38
S'ERR1003838'
p39
aS'ERR1003829'
p40
aS'V_HOX13_01_M00023'
p41
aS'V_HOX13_02_M01452'
p42
aS'Hoxa5.1'
p43
aS'MA0158.2'
p44
aS'V_HOXA5_03_M02271'
p45
aS'ERR1003841'
p46
asS'ENSG00000112033'
p47
(lp48
S'ERR1005721'
p49
aS'MA1550.1'
p50
aS'ERR1005720'
p51
aS'ERR1005724'
p52
aS'ERR1005725'
p53
aS'ERR1005722'
p54
aS'ERR1005723'
p55
aS'ERR1005719'
p56
aS'ERR1005718'
p57
asS'ENSG00000011590'
p58
(lp59
S'MA1580.1'
p60
asS'ENSG00000204595'
p61
(lp62
S'ERR1002727'
p63
aS'ERR1002728'
p64
aS'ERR194273'
p65
aS'ERR194271'
p66
aS'ERR1002726'
p67
aS'MA1480.1'
p68
aS'ERR1002724'
p69
aS'ERR194275'
p70
aS'ERR194274'
p71
aS'ERR1002725'
p72
aS'ERR1002729'
p73
aS'ERR1002722'
p74
asS'ENSG00000147862'
p75
(lp76
S'ERR1005013'
p77
aS'ERR193717'
p78
aS'ERR193716'
p79
aS'ERR193715'
p80
aS'ERR1005010'
p81
aS'ERR1005011'
p82
aS'ERR1005012'
p83
aS'MA1643.1'
p84
aS'ERR1005014'
p85
aS'ERR1005015'
p86
aS'ERR1005016'
p87
aS'ERR1005017'
p88
asS'ENSG00000138795'
p89
(lp90
S'Lef1.1'
p91
aS'ERR188773'
p92
aS'ERR188772'
p93
aS'ERR1004509'
p94
aS'ERR1004508'
p95
aS'ERR1004505'
p96
aS'ERR1004504'
p97
aS'ERR1004507'
p98
aS'ERR1004506'
p99
aS'ERR1004503'
p100
aS'ERR1004502'
p101
aS'V_LEF1_04_M02774'
p102
aS'V_LEF1_03_M02878'
p103
aS'Lef1.2'
p104
aS'ERR1004517'
p105
aS'ERR1004514'
p106
aS'ERR1004515'
p107
aS'ERR1004512'
p108
aS'ERR1004513'
p109
aS'ERR1004510'
p110
aS'ERR1004511'
p111
aS'ERR1004516'
p112
aS'V_LEF1_Q2_01_M01022'
p113
asS'ENSG00000163884'
p114
(lp115
S'ERR1004440'
p116
aS'ERR1004441'
p117
aS'V_KLF15_Q2_M01714'
p118
aS'ERR1004435'
p119
aS'MA1513.1'
p120
aS'ERR1004431'
p121
aS'ERR1004430'
p122
aS'ERR1004433'
p123
aS'ERR1004432'
p124
aS'ERR1004426'
p125
aS'ERR1004434'
p126
aS'ERR1004437'
p127
aS'ERR1004436'
p128
aS'ERR1004439'
p129
aS'ERR1004438'
p130
aS'ERR1004428'
p131
aS'ERR1004429'
p132
aS'ERR1004427'
p133
asS'ENSG00000150281'
p134
(lp135
S'V_CTF1_01_M01196'
p136
asS'ENSG00000136574'
p137
(lp138
S'MA0482.2'
p139
aS'V_GATA4_Q3_M00632'
p140
aS'ERR195188'
p141
aS'ERR1003447'
p142
asS'ENSG00000127989'
p143
(lp144
S'V_MTERF_01_M01245'
p145
asS'ENSG00000187772'
p146
(lp147
S'ERR1004586'
p148
aS'ERR1004589'
p149
asS'ENSG00000012223'
p150
(lp151
S'V_LTF_Q6_M01692'
p152
asS'ENSG00000018869'
p153
(lp154
S'MA1983.1'
p155
asS'ENSG00000102908'
p156
(lp157
S'ERR1004967'
p158
aS'ERR1004966'
p159
aS'ERR1004965'
p160
aS'ERR1004964'
p161
aS'ERR1004963'
p162
aS'ERR1004962'
p163
aS'ERR1004969'
p164
aS'ERR1004968'
p165
aS'V_NFAT_Q4_01_M00935'
p166
aS'ERR185050'
p167
aS'ERR185048'
p168
aS'ERR185049'
p169
asS'ENSG00000185122'
p170
(lp171
S'ERR1004118'
p172
aS'ERR1004119'
p173
aS'ERR1004116'
p174
aS'ERR1004117'
p175
aS'ERR1004114'
p176
aS'ERR1004115'
p177
aS'V_HSF1_Q6_M01023'
p178
aS'ERR195284'
p179
aS'ERR195283'
p180
aS'ERR195282'
p181
aS'ERR185033'
p182
aS'ERR185035'
p183
aS'ERR185034'
p184
aS'ERR1004123'
p185
aS'ERR1004122'
p186
aS'ERR1004121'
p187
aS'ERR1004120'
p188
aS'ERR1004127'
p189
aS'ERR1004126'
p190
aS'ERR1004125'
p191
aS'ERR1004124'
p192
aS'ERR1004129'
p193
aS'ERR1004128'
p194
aS'V_HSF1_Q6_01_M02017'
p195
aS'V_HSF1_01_M00146'
p196
aS'MA0486.2'
p197
aS'V_HSF_Q6_M00641'
p198
aS'ERR195281'
p199
asS'ENSG00000126351'
p200
(lp201
S'ERR194568'
p202
aS'V_T3RALPHA_Q6_M01724'
p203
aS'V_T3R_Q6_M00963'
p204
aS'ERR194567'
p205
aS'ERR194566'
p206
aS'MA1969.1'
p207
aS'V_T3R_01_M00239'
p208
asS'ENSG00000006194'
p209
(lp210
S'V_FPM315_01_M01587'
p211
aS'ERR1007012'
p212
aS'ERR1007013'
p213
aS'ERR1007010'
p214
aS'ERR1007011'
p215
aS'ERR1007009'
p216
aS'ERR1007008'
p217
aS'MA0528.2'
p218
asS'ENSG00000185129'
p219
(lp220
S'V_PUR1_Q4_M01721'
p221
asS'ENSG00000128709'
p222
(lp223
S'ERR1004109'
p224
aS'ERR195651'
p225
aS'ERR195652'
p226
aS'ERR1004102'
p227
aS'ERR1004108'
p228
aS'ERR1004112'
p229
aS'ERR1004113'
p230
aS'ERR1004103'
p231
aS'ERR1004111'
p232
aS'ERR1004105'
p233
aS'ERR1004104'
p234
aS'ERR1004107'
p235
aS'ERR1004106'
p236
aS'V_HOXD9_Q2_M01834'
p237
aS'MA0913.2'
p238
aS'ERR1004110'
p239
asS'ENSG00000143355'
p240
(lp241
S'ERR1004569'
p242
aS'ERR1004581'
p243
aS'V_LHX9_01_M01367'
p244
aS'MA0701.2'
p245
aS'Lhx9.1'
p246
aS'ERR195304'
p247
aS'ERR1004571'
p248
asS'ENSG00000025434'
p249
(lp250
S'V_LXRA_RXRA_Q3_M00647'
p251
aS'V_LXR_DR4_Q3_M00766'
p252
asS'ENSG00000091831'
p253
(lp254
S'V_ERALPHA_01_M01801'
p255
aS'V_ER_Q6_02_M00959'
p256
aS'V_ER_Q6_M00191'
p257
aS'ERR194972'
p258
aS'ERR1003017'
p259
aS'ERR1003009'
p260
aS'ERR1003008'
p261
aS'V_ESR1_01_M02261'
p262
aS'ERR1003014'
p263
aS'MA0112.3'
p264
aS'ERR1003012'
p265
aS'ERR1003010'
p266
aS'ERR1003015'
p267
aS'ERR1003016'
p268
aS'ERR1003004'
p269
aS'ERR1003007'
p270
aS'ERR1003006'
p271
asS'ENSG00000180228'
p272
(lp273
S'MA0718.1'
p274
aS'ERR195720'
p275
aS'ERR1005824'
p276
aS'ERR1005823'
p277
aS'ERR1005822'
p278
aS'ERR1005818'
p279
aS'V_RAX_01_M01389'
p280
aS'ERR195719'
p281
aS'Rax.1'
p282
asS'ENSG00000157613'
p283
(lp284
S'MA0839.1'
p285
aS'ERR195141'
p286
aS'ERR1002495'
p287
aS'ERR193696'
p288
aS'ERR193697'
p289
aS'ERR194257'
p290
aS'ERR194256'
p291
aS'ERR194254'
p292
aS'ERR1002486'
p293
aS'ERR1002484'
p294
aS'ERR1002496'
p295
aS'ERR1002491'
p296
aS'ERR1002497'
p297
aS'ERR1002493'
p298
aS'ERR1002492'
p299
asS'ENSG00000143190'
p300
(lp301
S'V_OCT1_01_M00135'
p302
aS'ERR188808'
p303
aS'V_OCT1_03_M00137'
p304
aS'V_OCT1_05_M00161'
p305
aS'V_OCT_Q6_M00795'
p306
aS'V_OCT1_02_M00136'
p307
aS'V_OCT1_08_M01354'
p308
aS'ERR188809'
p309
aS'MA0785.1'
p310
aS'ERR188807'
p311
aS'V_OCT_C_M00210'
p312
aS'MA1962.1'
p313
aS'V_OCT1_06_M00162'
p314
aS'V_OCT1_B_M00342'
p315
aS'Pou2f1.1'
p316
aS'V_OCT1_Q6_M00195'
p317
aS'OCT1.1'
p318
aS'V_OCT1_07_M00248'
p319
aS'ERR188806'
p320
aS'V_OCT1_Q5_01_M00930'
p321
aS'V_OCT1_04_M00138'
p322
asS'ENSG00000189299'
p323
(lp324
S'ERR1003409'
p325
aS'ERR1003408'
p326
aS'ERR1003405'
p327
aS'ERR1003404'
p328
aS'ERR1003407'
p329
aS'ERR1003406'
p330
aS'ERR1003403'
p331
aS'ERR1003402'
p332
asS'ENSG00000128272'
p333
(lp334
S'ERR1002183'
p335
aS'ERR1002181'
p336
aS'ERR1002185'
p337
aS'ERR1002176'
p338
aS'ERR1002177'
p339
aS'ERR1002174'
p340
aS'ERR1002175'
p341
aS'ERR1002172'
p342
aS'ERR1002173'
p343
aS'ERR1002170'
p344
aS'V_ATF4_Q6_M01864'
p345
aS'MA0833.2'
p346
aS'ERR194927'
p347
aS'ERR194926'
p348
aS'ERR195544'
p349
aS'ERR194928'
p350
aS'ERR1002171'
p351
aS'V_ATF4_Q2_M00514'
p352
aS'ERR195543'
p353
asS'ENSG00000171532'
p354
(lp355
S'ERR193849'
p356
aS'ERR193848'
p357
aS'ERR193847'
p358
aS'ERR1004926'
p359
asS'ENSG00000196767'
p360
(lp361
S'ERR195433'
p362
aS'ERR195434'
p363
aS'ERR195435'
p364
aS'ERR195436'
p365
aS'MA0789.1'
p366
aS'V_BRN4_01_M01473'
p367
aS'ERR1005676'
p368
aS'ERR1005670'
p369
aS'ERR1005671'
p370
aS'ERR1005672'
p371
aS'ERR1005673'
p372
aS'ERR1005674'
p373
aS'ERR1005675'
p374
aS'Pou3f4.1'
p375
aS'ERR1005677'
p376
asS'ENSG00000173068'
p377
(lp378
S'MA1928.1'
p379
asS'ENSG00000164683'
p380
(lp381
S'ERR1003671'
p382
aS'ERR1003679'
p383
aS'MA0823.1'
p384
aS'ERR1003681'
p385
aS'ERR1003680'
p386
aS'ERR1003672'
p387
aS'ERR195230'
p388
aS'ERR195231'
p389
aS'ERR1003676'
p390
aS'ERR1003677'
p391
asS'ENSG00000177494'
p392
(lp393
S'MA1971.1'
p394
asS'ENSG00000123095'
p395
(lp396
S'MA0636.1'
p397
aS'ERR193689'
p398
aS'ERR193688'
p399
aS'ERR1002369'
p400
aS'ERR1002368'
p401
aS'ERR1002367'
p402
aS'ERR1002366'
p403
aS'ERR1002365'
p404
aS'ERR1002364'
p405
aS'ERR1002363'
p406
aS'ERR1002362'
p407
aS'ERR193684'
p408
aS'V_DEC2_Q2_M01843'
p409
aS'ERR193683'
p410
aS'ERR193685'
p411
asS'ENSG00000164684'
p412
(lp413
S'ERR1007207'
p414
aS'ERR1007206'
p415
aS'ERR1007204'
p416
aS'ERR1007209'
p417
aS'ERR1007208'
p418
asS'ENSG00000196812'
p419
(lp420
S'ERR1007320'
p421
aS'ERR1007321'
p422
aS'ERR195100'
p423
aS'ERR1007318'
p424
aS'ERR1007309'
p425
aS'ERR1007317'
p426
aS'ERR1007316'
p427
aS'ERR1007311'
p428
aS'ERR1007310'
p429
aS'ERR1007313'
p430
aS'ERR1007312'
p431
aS'ERR1007319'
p432
asS'ENSG00000130830'
p433
(lp434
S'Mrg1.1'
p435
asS'ENSG00000121075'
p436
(lp437
S'ERR194545'
p438
aS'ERR194544'
p439
aS'ERR194543'
p440
aS'ERR194542'
p441
aS'ERR194541'
p442
aS'ERR194540'
p443
asS'ENSG00000203883'
p444
(lp445
S'ERR1006138'
p446
aS'ERR1006139'
p447
aS'V_SOX18_03_M02801'
p448
aS'MA1563.2'
p449
aS'ERR1006134'
p450
aS'ERR1006140'
p451
aS'V_SOX18_04_M02905'
p452
aS'ERR1006136'
p453
aS'Sox18.1'
p454
aS'Sox18.2'
p455
aS'ERR193920'
p456
aS'ERR193921'
p457
asS'ENSG00000155592'
p458
(lp459
S'MA1722.1'
p460
asS'ENSG00000135373'
p461
(lp462
S'V_EHF_03_M02052'
p463
aS'MA0598.3'
p464
aS'V_EHF_06_M02745'
p465
aS'V_EHF_02_M01974'
p466
aS'Ehf.1'
p467
aS'Ehf.2'
p468
aS'Ehf.3'
p469
aS'V_EHF_07_M02849'
p470
asS'ENSG00000251247'
p471
(lp472
S'ERR1007085'
p473
aS'ERR1007084'
p474
aS'ERR1007080'
p475
aS'ERR1007083'
p476
aS'ERR1007082'
p477
asS'ENSG00000135374'
p478
(lp479
S'ERR194895'
p480
aS'ERR194894'
p481
aS'ERR1002889'
p482
aS'ERR195589'
p483
aS'ERR193991'
p484
aS'ERR193993'
p485
aS'ERR193992'
p486
aS'ERR194896'
p487
aS'V_ELF5_04_M02241'
p488
aS'ERR1002890'
p489
aS'ERR1002893'
p490
aS'ERR1002892'
p491
aS'ERR1002895'
p492
aS'ERR1002894'
p493
aS'ERR1002897'
p494
aS'ERR1002896'
p495
aS'V_ELF5_02_M01980'
p496
aS'Elf5.1'
p497
aS'ERR195592'
p498
aS'ERR195591'
p499
aS'ERR195590'
p500
aS'ERR1002887'
p501
aS'ERR1002885'
p502
aS'V_ELF5_03_M02057'
p503
aS'V_ELF5_01_M01197'
p504
asS'ENSG00000261678'
p505
(lp506
S'MA0743.2'
p507
aS'ERR1005951'
p508
aS'ERR1005950'
p509
aS'ERR1005953'
p510
aS'ERR1005952'
p511
aS'ERR1005946'
p512
aS'ERR1005947'
p513
aS'ERR1005948'
p514
aS'ERR1005949'
p515
aS'ERR195471'
p516
aS'ERR195472'
p517
asS'ENSG00000135111'
p518
(lp519
S'MA1566.2'
p520
aS'ERR1006369'
p521
aS'ERR1006370'
p522
aS'ERR1006373'
p523
asS'ENSG00000143995'
p524
(lp525
S'V_MEIS1_02_M01419'
p526
aS'V_MEIS1BHOXA9_02_M00421'
p527
aS'V_MEIS1AHOXA9_01_M00420'
p528
aS'V_MEIS1_01_M00419'
p529
aS'Meis1.1'
p530
aS'MA1639.1'
p531
asS'ENSG00000102974'
p532
(lp533
S'MA1929.1'
p534
aS'MA0139.1'
p535
aS'V_CTCF_01_M01200'
p536
aS'ERR173156'
p537
aS'ERR173155'
p538
aS'ERR173157'
p539
aS'V_CTCF_02_M01259'
p540
aS'MA1930.1'
p541
asS'ENSG00000131759'
p542
(lp543
S'MA0729.1'
p544
aS'MA0730.1'
p545
aS'V_NR1B1_Q6_M02110'
p546
aS'MA0159.1'
p547
aS'ERR1005797'
p548
aS'ERR194713'
p549
aS'ERR1005794'
p550
aS'ERR1005792'
p551
aS'MA1149.1'
p552
aS'ERR1005796'
p553
aS'Rara.1'
p554
aS'Rara.2'
p555
aS'V_RARA_03_M02787'
p556
aS'ERR194785'
p557
aS'ERR194787'
p558
aS'ERR194786'
p559
aS'V_RARA_04_M02891'
p560
aS'ERR194788'
p561
aS'ERR193728'
p562
aS'ERR193729'
p563
aS'ERR194712'
p564
asS'ENSG00000123388'
p565
(lp566
S'ERR188757'
p567
aS'ERR188756'
p568
aS'ERR188755'
p569
aS'ERR188754'
p570
aS'ERR1003980'
p571
aS'ERR1003981'
p572
aS'Hoxc11.1'
p573
aS'ERR1003968'
p574
aS'ERR1003969'
p575
aS'V_HOXC11_01_M01329'
p576
aS'ERR1003966'
p577
aS'ERR1003967'
p578
aS'ERR194051'
p579
aS'ERR194053'
p580
aS'ERR194052'
p581
aS'MA0651.2'
p582
aS'ERR1003979'
p583
aS'ERR1003978'
p584
aS'ERR1003971'
p585
aS'ERR1003970'
p586
aS'ERR1003973'
p587
aS'ERR1003972'
p588
aS'ERR1003975'
p589
aS'ERR1003974'
p590
aS'ERR1003977'
p591
asS'ENSG00000204231'
p592
(lp593
S'ERR1005937'
p594
aS'ERR1005936'
p595
aS'ERR1005935'
p596
aS'ERR1005934'
p597
aS'ERR1005933'
p598
aS'ERR1005932'
p599
aS'ERR1005931'
p600
aS'ERR1005930'
p601
aS'ERR194860'
p602
aS'MA0855.1'
p603
aS'ERR195463'
p604
aS'V_DR4_Q2_M00965'
p605
aS'ERR194859'
p606
aS'MA1555.1'
p607
aS'ERR195464'
p608
asS'ENSG00000125347'
p609
(lp610
S'V_IRF1_Q6_01_M01881'
p611
aS'V_IRF_Q6_01_M00972'
p612
aS'V_IRF1_01_M00062'
p613
aS'V_IRF_Q6_M00772'
p614
asS'ENSG00000166888'
p615
(lp616
S'V_STAT6_02_M00500'
p617
aS'V_STAT6_01_M00494'
p618
asS'ENSG00000168505'
p619
(lp620
S'V_GBX2_01_M01382'
p621
aS'ERR193793'
p622
aS'ERR195199'
p623
aS'ERR1003481'
p624
aS'ERR1003480'
p625
aS'MA0890.1'
p626
aS'Gbx2.1'
p627
aS'ERR195612'
p628
asS'ENSG00000107485'
p629
(lp630
S'ERR1003440'
p631
aS'Gata3.1'
p632
aS'Gata3.2'
p633
aS'V_GATA3_01_M00077'
p634
aS'V_GATA3_03_M00351'
p635
aS'V_GATA3_02_M00350'
p636
aS'ERR1003438'
p637
aS'V_GATA3_05_M02859'
p638
asS'ENSG00000043355'
p639
(lp640
S'V_ZIC2_05_M02940'
p641
aS'Zic2.2'
p642
aS'V_ZIC2_04_M02836'
p643
aS'V_ZIC2_01_M00449'
p644
aS'Zic2.1'
p645
asS'ENSG00000130700'
p646
(lp647
S'ERR1003457'
p648
aS'ERR1003455'
p649
aS'Gata5.2'
p650
aS'Gata5.1'
p651
aS'V_GATA5_03_M02756'
p652
aS'MA0766.2'
p653
aS'ERR1003463'
p654
aS'ERR1003462'
p655
aS'ERR1003464'
p656
aS'ERR1003465'
p657
aS'V_GATA5_04_M02860'
p658
asS'ENSG00000179528'
p659
(lp660
S'MA0699.1'
p661
aS'V_LBX2_01_M01401'
p662
aS'Lbx2.1'
p663
aS'ERR1004499'
p664
aS'ERR1004498'
p665
aS'ERR1004501'
p666
aS'ERR1004500'
p667
aS'ERR195297'
p668
asS'ENSG00000105997'
p669
(lp670
S'Hoxa3.1'
p671
aS'Hoxa3.2'
p672
aS'V_HOXA3_01_M00395'
p673
aS'V_HOXA3_07_M02869'
p674
aS'V_HOXA3_02_M01337'
p675
asS'ENSG00000131931'
p676
(lp677
S'MA0597.2'
p678
asS'ENSG00000105991'
p679
(lp680
S'MA1495.1'
p681
aS'V_HOXA1_01_M01487'
p682
aS'MA1931.1'
p683
aS'ERR1003758'
p684
aS'Hoxa1.1'
p685
aS'ERR1003760'
p686
aS'ERR194044'
p687
aS'ERR194045'
p688
asS'ENSG00000130803'
p689
(lp690
S'MA1593.1'
p691
asS'ENSG00000005073'
p692
(lp693
S'ERR1003785'
p694
aS'ERR1003783'
p695
aS'ERR1003778'
p696
aS'V_HOXA11_01_M01378'
p697
aS'ERR195638'
p698
aS'ERR195640'
p699
aS'ERR1003779'
p700
aS'Hoxa11.1'
p701
aS'ERR1003782'
p702
aS'ERR1003784'
p703
aS'ERR1003780'
p704
aS'ERR1003781'
p705
asS'ENSG00000185278'
p706
(lp707
S'ERR1006851'
p708
aS'ERR1006850'
p709
aS'ERR1006848'
p710
aS'ERR1006852'
p711
asS'ENSG00000268041'
p712
(lp713
S'Gm4881.1'
p714
asS'ENSG00000179059'
p715
(lp716
S'MA1651.1'
p717
aS'V_REX1_01_M01695'
p718
aS'V_REX1_03_M01744'
p719
aS'ERR1006909'
p720
aS'ERR1006908'
p721
aS'ERR1006907'
p722
aS'ERR1006905'
p723
aS'ERR1006903'
p724
asS'ENSG00000123364'
p725
(lp726
S'MA0907.1'
p727
aS'ERR195266'
p728
aS'V_HOXC13_01_M01317'
p729
aS'ERR195267'
p730
aS'Hoxc13.1'
p731
aS'ERR1003997'
p732
aS'ERR1003996'
p733
aS'ERR1003995'
p734
aS'ERR1003994'
p735
aS'ERR1003993'
p736
aS'ERR1003992'
p737
aS'ERR1003991'
p738
aS'ERR1003990'
p739
aS'ERR195268'
p740
asS'ENSG00000213676'
p741
(lp742
S'ERR1002200'
p743
aS'ERR1002201'
p744
aS'ERR1002199'
p745
aS'ERR1002194'
p746
aS'ERR1002196'
p747
aS'ERR1002197'
p748
asS'ENSG00000184486'
p749
(lp750
S'ERR1005662'
p751
aS'V_OCTAMER_02_M01477'
p752
aS'ERR1005663'
p753
aS'ERR1005664'
p754
aS'Pou3f2.1'
p755
aS'V_POU3F2_02_M00464'
p756
aS'ERR194451'
p757
aS'ERR194453'
p758
aS'V_BRN2_01_M00145'
p759
aS'ERR1005669'
p760
aS'ERR1005668'
p761
aS'ERR1005667'
p762
aS'ERR1005666'
p763
aS'ERR1005665'
p764
aS'ERR194452'
p765
aS'ERR194454'
p766
aS'MA0787.1'
p767
aS'V_POU3F2_01_M00463'
p768
asS'ENSG00000184481'
p769
(lp770
S'ERR1003377'
p771
aS'ERR188741'
p772
aS'ERR1003374'
p773
aS'ERR188739'
p774
aS'ERR188740'
p775
aS'V_FOXO4_01_M00472'
p776
aS'V_FOXO4_02_M00476'
p777
asS'ENSG00000136997'
p778
(lp779
S'V_MYC_01_M02250'
p780
aS'V_MYCMAX_01_M00118'
p781
aS'V_CMYC_01_M01145'
p782
aS'V_CMYC_02_M01154'
p783
aS'V_MYCMAX_02_M00123'
p784
aS'V_MYCMAX_B_M00322'
p785
aS'MA0059.1'
p786
aS'MA0147.3'
p787
aS'V_MYCMAX_03_M00615'
p788
asS'ENSG00000118260'
p789
(lp790
S'V_CREB_Q4_M00178'
p791
aS'ERR1002471'
p792
aS'V_CREB_Q2_01_M00916'
p793
aS'V_CREB_Q4_01_M00917'
p794
aS'ERR1002464'
p795
aS'MA0018.4'
p796
aS'V_CREB_Q2_M00177'
p797
aS'V_CREB_01_M00039'
p798
aS'V_CREB_02_M00113'
p799
asS'ENSG00000118263'
p800
(lp801
S'Klf7.1'
p802
aS'Klf7.2'
p803
aS'V_KLF7_04_M02877'
p804
aS'V_KLF7_03_M02773'
p805
asS'ENSG00000172468'
p806
(lp807
S'ERR1004169'
p808
aS'ERR1004168'
p809
aS'ERR1004167'
p810
aS'ERR1004166'
p811
aS'ERR1004165'
p812
aS'ERR1004164'
p813
aS'ERR1004163'
p814
aS'ERR1004162'
p815
asS'ENSG00000164631'
p816
(lp817
S'ERR1006961'
p818
aS'ERR1006960'
p819
aS'ERR1006963'
p820
aS'ERR1006962'
p821
aS'ERR1006965'
p822
aS'ERR1006964'
p823
asS'ENSG00000168267'
p824
(lp825
S'ERR1005788'
p826
aS'ERR1005789'
p827
aS'ERR1005782'
p828
aS'ERR1005783'
p829
aS'ERR1005784'
p830
aS'ERR1005785'
p831
aS'ERR1005786'
p832
aS'ERR1005787'
p833
asS'ENSG00000118495'
p834
(lp835
S'Plagl1.2'
p836
aS'Plagl1.1'
p837
aS'V_PLAGL1_03_M02786'
p838
aS'V_PLAGL1_04_M02890'
p839
asS'ENSG00000043039'
p840
(lp841
S'V_BARX2_01_M01431'
p842
aS'ERR1002258'
p843
aS'Barx2.1'
p844
aS'ERR1002259'
p845
aS'MA1471.1'
p846
aS'ERR1002262'
p847
aS'ERR1002263'
p848
aS'ERR1002260'
p849
aS'ERR1002261'
p850
aS'ERR1002264'
p851
aS'ERR1002265'
p852
asS'ENSG00000057657'
p853
(lp854
S'ERR193895'
p855
aS'MA0508.3'
p856
aS'ERR193897'
p857
aS'V_BLIMP1_Q6_M01066'
p858
aS'ERR193896'
p859
aS'ERR1005728'
p860
aS'ERR1005729'
p861
aS'ERR1005726'
p862
aS'ERR1005727'
p863
aS'ERR1005731'
p864
aS'ERR1005730'
p865
aS'ERR1005733'
p866
aS'ERR1005732'
p867
asS'ENSG00000168610'
p868
(lp869
S'MA0144.2'
p870
aS'V_STAT3_02_M00497'
p871
aS'V_STAT3STAT3_Q3_M01220'
p872
aS'V_STAT3_01_M00225'
p873
aS'V_STAT3_03_M01595'
p874
asS'ENSG00000131236'
p875
(lp876
S'V_CAP_01_M00253'
p877
asS'ENSG00000189120'
p878
(lp879
S'ERR1004419'
p880
aS'ERR1004422'
p881
aS'ERR1004423'
p882
aS'ERR1004421'
p883
aS'ERR1004424'
p884
aS'ERR1004425'
p885
aS'ERR194055'
p886
aS'ERR194057'
p887
aS'ERR194056'
p888
asS'ENSG00000171448'
p889
(lp890
S'ERR1006828'
p891
aS'ERR1006829'
p892
aS'MA1579.1'
p893
aS'ERR1006826'
p894
aS'ERR1006827'
p895
asS'ENSG00000169953'
p896
(lp897
S'ERR195292'
p898
aS'ERR195289'
p899
aS'ERR195290'
p900
aS'ERR195291'
p901
aS'ERR1004170'
p902
aS'ERR1004171'
p903
aS'ERR1004172'
p904
aS'ERR1004173'
p905
aS'ERR1004174'
p906
aS'ERR1004175'
p907
aS'ERR1004176'
p908
aS'ERR1004177'
p909
asS'ENSG00000169957'
p910
(lp911
S'MA1731.1'
p912
asS'ENSG00000170365'
p913
(lp914
S'V_SMAD_Q6_01_M00974'
p915
aS'V_SMAD_Q6_M00792'
p916
asS'ENSG00000171786'
p917
(lp918
S'ERR195023'
p919
aS'ERR1005042'
p920
aS'ERR195021'
p921
aS'ERR195027'
p922
aS'ERR1005046'
p923
aS'ERR1005045'
p924
aS'ERR195024'
p925
aS'ERR1005049'
p926
aS'ERR195028'
p927
aS'ERR1005047'
p928
aS'ERR1005044'
p929
aS'MA1938.1'
p930
aS'ERR1005048'
p931
aS'ERR1005054'
p932
aS'ERR1005055'
p933
aS'ERR1005056'
p934
aS'ERR1005057'
p935
aS'ERR1005051'
p936
aS'ERR1005052'
p937
aS'ERR1005053'
p938
aS'MA0048.2'
p939
aS'ERR1005043'
p940
asS'ENSG00000132823'
p941
(lp942
S'Osr1.1'
p943
aS'MA1542.1'
p944
aS'Osr1.2'
p945
aS'V_OSR1_03_M02784'
p946
aS'V_OSR1_04_M02888'
p947
asS'ENSG00000244405'
p948
(lp949
S'ERR1003136'
p950
aS'MA1947.1'
p951
aS'V_ERM_01_M01992'
p952
aS'ERR1003135'
p953
aS'ERR1003134'
p954
aS'ERR1003137'
p955
aS'MA1944.1'
p956
aS'ERR1003131'
p957
aS'ERR1003133'
p958
aS'MA1948.1'
p959
aS'ERR194005'
p960
aS'V_ERM_02_M02069'
p961
aS'MA1945.1'
p962
aS'MA1946.1'
p963
aS'MA0765.3'
p964
aS'Etv5.1'
p965
asS'ENSG00000167840'
p966
(lp967
S'ERR195092'
p968
aS'ERR195091'
p969
asS'ENSG00000250709'
p970
(lp971
S'MA1560.1'
p972
asS'ENSG00000074047'
p973
(lp974
S'ERR1003522'
p975
aS'ERR1003523'
p976
aS'ERR194336'
p977
aS'ERR194337'
p978
aS'ERR1003526'
p979
aS'ERR1003527'
p980
aS'ERR1003524'
p981
aS'ERR1003525'
p982
aS'ERR194338'
p983
aS'ERR1003528'
p984
aS'ERR1003529'
p985
aS'V_GLI2_01_M01703'
p986
aS'ERR194339'
p987
aS'ERR194341'
p988
aS'ERR194340'
p989
asS'ENSG00000230091'
p990
(lp991
S'Cphx.1'
p992
aS'V_CPHX_01_M01478'
p993
asS'ENSG00000012048'
p994
(lp995
S'V_BRCA_01_M01082'
p996
asS'ENSG00000141510'
p997
(lp998
S'V_P53_05_M01655'
p999
aS'MA0106.3'
p1000
aS'ERR194607'
p1001
aS'ERR194608'
p1002
aS'V_P53_04_M01652'
p1003
aS'V_P53_01_M00034'
p1004
aS'ERR194609'
p1005
aS'V_P53_02_M00272'
p1006
aS'V_P53_DECAMER_Q2_M00761'
p1007
aS'V_P53_03_M01651'
p1008
asS'ENSG00000172466'
p1009
(lp1010
S'MA1124.1'
p1011
asS'ENSG00000139651'
p1012
(lp1013
S'V_ZFP740_03_M02834'
p1014
aS'Zfp740.1'
p1015
aS'ERR1007228'
p1016
aS'Zfp740.2'
p1017
aS'ERR1007225'
p1018
aS'ERR1007224'
p1019
aS'ERR1007227'
p1020
aS'ERR1007226'
p1021
aS'ERR1007221'
p1022
aS'ERR195769'
p1023
aS'ERR1007223'
p1024
aS'ERR1007222'
p1025
aS'ERR1007229'
p1026
aS'ERR195523'
p1027
aS'MA0753.2'
p1028
aS'ERR195772'
p1029
aS'ERR195770'
p1030
aS'V_ZFP740_04_M02938'
p1031
aS'ERR1007218'
p1032
aS'ERR1007219'
p1033
aS'ERR1007232'
p1034
aS'ERR1007233'
p1035
aS'ERR1007230'
p1036
aS'ERR1007220'
p1037
aS'ERR1007231'
p1038
aS'ERR193963'
p1039
aS'ERR193964'
p1040
aS'ERR193965'
p1041
asS'ENSG00000121068'
p1042
(lp1043
S'ERR1006334'
p1044
aS'ERR1006335'
p1045
aS'ERR1006337'
p1046
aS'ERR194121'
p1047
aS'MA0688.1'
p1048
aS'ERR194118'
p1049
aS'ERR194119'
p1050
asS'ENSG00000213780'
p1051
(lp1052
S'V_RELBP52_01_M01239'
p1053
asS'ENSG00000129152'
p1054
(lp1055
S'ERR1004880'
p1056
aS'ERR1004881'
p1057
aS'ERR1004882'
p1058
aS'ERR1004883'
p1059
aS'ERR1004884'
p1060
aS'V_MYOD_Q6_M00184'
p1061
aS'ERR1004886'
p1062
aS'ERR1004890'
p1063
aS'ERR1004888'
p1064
aS'ERR1004878'
p1065
aS'ERR1004885'
p1066
aS'ERR1004879'
p1067
aS'MA0499.2'
p1068
aS'V_MYOD_Q6_01_M00929'
p1069
aS'ERR1004889'
p1070
aS'V_MYOD_Q6_02_M02100'
p1071
aS'V_MYF_01_M01302'
p1072
aS'V_MYOD_01_M00001'
p1073
aS'ERR1004891'
p1074
aS'ERR1004893'
p1075
aS'ERR1004892'
p1076
asS'ENSG00000140262'
p1077
(lp1078
S'MA1648.1'
p1079
asS'ENSG00000105750'
p1080
(lp1081
S'MA1720.1'
p1082
asS'ENSG00000135100'
p1083
(lp1084
S'V_DR1_Q3_M00762'
p1085
aS'V_TCF1_06_M02815'
p1086
aS'ERR194997'
p1087
aS'ERR194998'
p1088
aS'V_HNF1A_01_M02162'
p1089
aS'V_HNF4_01_B_M00411'
p1090
aS'ERR194355'
p1091
aS'ERR195000'
p1092
aS'V_HNF1_02_M01379'
p1093
aS'ERR194356'
p1094
aS'ERR194357'
p1095
aS'ERR194354'
p1096
aS'ERR1003750'
p1097
aS'V_HNF4A_02_M02868'
p1098
aS'ERR194358'
p1099
aS'ERR194359'
p1100
aS'V_HNF4A_04_M02764'
p1101
aS'V_HNF4_01_M00134'
p1102
aS'V_HNF1_Q6_M00790'
p1103
aS'V_HNF1_C_M00206'
p1104
aS'Hnf4a.2'
p1105
aS'ERR1003747'
p1106
aS'V_HNF4A_03_M02220'
p1107
aS'V_HNF4ALPHA_Q6_M00638'
p1108
aS'ERR194999'
p1109
aS'ERR1003749'
p1110
aS'Tcf1.2'
p1111
aS'Tcf1.3'
p1112
aS'ERR195636'
p1113
aS'ERR194037'
p1114
aS'V_HNF4_DR1_Q3_M00764'
p1115
aS'V_HNF1_01_M00132'
p1116
aS'ERR194036'
p1117
aS'ERR194035'
p1118
aS'V_HNF4_Q6_M00967'
p1119
aS'V_HNF1_Q6_01_M01011'
p1120
aS'ERR1003751'
p1121
aS'V_HNF1A_Q5_M02013'
p1122
aS'ERR1003753'
p1123
aS'ERR1003752'
p1124
aS'MA0114.4'
p1125
aS'V_HNF4_Q6_01_M01031'
p1126
aS'V_TCF1_07_M02919'
p1127
aS'ERR195634'
p1128
aS'ERR195635'
p1129
aS'MA1494.1'
p1130
aS'V_HNF4A_Q6_01_M02016'
p1131
aS'MA0046.2'
p1132
aS'V_LEF1TCF1_Q4_M00978'
p1133
aS'Hnf4a.1'
p1134
asS'ENSG00000187987'
p1135
(lp1136
S'ERR1007324'
p1137
aS'ERR1007325'
p1138
aS'ERR1007326'
p1139
aS'ERR1007327'
p1140
aS'ERR1007328'
p1141
aS'ERR1007329'
p1142
asS'ENSG00000053254'
p1143
(lp1144
S'MA1489.1'
p1145
asS'ENSG00000134852'
p1146
(lp1147
S'ERR195560'
p1148
aS'MA0819.2'
p1149
aS'ERR195559'
p1150
aS'ERR1002449'
p1151
aS'ERR195557'
p1152
aS'ERR1002447'
p1153
aS'ERR1002445'
p1154
asS'ENSG00000186496'
p1155
(lp1156
S'ERR1007106'
p1157
aS'ERR1007108'
p1158
aS'ERR1007109'
p1159
asS'ENSG00000187140'
p1160
(lp1161
S'ERR1003283'
p1162
aS'ERR1003282'
p1163
aS'ERR1003287'
p1164
aS'ERR1003286'
p1165
aS'ERR1003285'
p1166
aS'ERR1003284'
p1167
aS'ERR1003289'
p1168
aS'ERR195608'
p1169
aS'V_FOXD3_01_M00130'
p1170
aS'ERR195607'
p1171
aS'MA0041.2'
p1172
asS'ENSG00000185610'
p1173
(lp1174
S'V_DBX2_01_M01360'
p1175
aS'Dbx2.1'
p1176
asS'ENSG00000170561'
p1177
(lp1178
S'V_IRX2_01_M01405'
p1179
aS'ERR194376'
p1180
aS'Irx2.1'
p1181
aS'ERR194372'
p1182
asS'ENSG00000197134'
p1183
(lp1184
S'MA1710.1'
p1185
asS'ENSG00000153560'
p1186
(lp1187
S'ERR1006635'
p1188
aS'ERR1006634'
p1189
aS'ERR1006637'
p1190
aS'ERR1006636'
p1191
aS'ERR1006639'
p1192
aS'ERR1006640'
p1193
aS'ERR1006638'
p1194
aS'ERR1006641'
p1195
asS'ENSG00000169926'
p1196
(lp1197
S'ERR1004410'
p1198
aS'ERR1004403'
p1199
aS'ERR1004413'
p1200
aS'ERR1004412'
p1201
aS'ERR1004411'
p1202
aS'MA0657.1'
p1203
aS'ERR1004417'
p1204
aS'ERR1004416'
p1205
aS'ERR1004415'
p1206
aS'ERR1004414'
p1207
aS'ERR1004404'
p1208
aS'ERR1004405'
p1209
aS'ERR1004406'
p1210
aS'ERR1004407'
p1211
aS'ERR1004402'
p1212
aS'V_BTEB3_Q5_M01865'
p1213
aS'ERR1004408'
p1214
aS'ERR1004409'
p1215
asS'ENSG00000102878'
p1216
(lp1217
S'ERR195287'
p1218
aS'ERR195286'
p1219
aS'ERR1004147'
p1220
aS'ERR1004146'
p1221
aS'ERR195285'
p1222
aS'ERR1004153'
p1223
aS'ERR1004150'
p1224
aS'ERR1004151'
p1225
aS'ERR1004149'
p1226
aS'ERR1004148'
p1227
aS'ERR195288'
p1228
aS'MA0771.1'
p1229
aS'ERR1004152'
p1230
asS'ENSG00000107807'
p1231
(lp1232
S'MA0119.1'
p1233
asS'ENSG00000136535'
p1234
(lp1235
S'MA0802.1'
p1236
aS'ERR195740'
p1237
aS'ERR195737'
p1238
aS'ERR193933'
p1239
aS'ERR193932'
p1240
aS'ERR195739'
p1241
aS'ERR195738'
p1242
asS'ENSG00000176160'
p1243
(lp1244
S'ERR1004156'
p1245
aS'ERR1004154'
p1246
aS'ERR1004158'
p1247
aS'ERR1004159'
p1248
aS'ERR1004161'
p1249
aS'ERR1004160'
p1250
asS'ENSG00000179348'
p1251
(lp1252
S'MA0036.3'
p1253
aS'V_GATA2_03_M00349'
p1254
aS'V_GATA2_01_M00076'
p1255
aS'V_GATA2_02_M00348'
p1256
asS'ENSG00000073861'
p1257
(lp1258
S'ERR194536'
p1259
aS'ERR194537'
p1260
aS'ERR194535'
p1261
aS'ERR193752'
p1262
aS'ERR194538'
p1263
aS'ERR194539'
p1264
aS'ERR1006359'
p1265
aS'ERR193753'
p1266
aS'MA0690.2'
p1267
asS'ENSG00000170166'
p1268
(lp1269
S'MA1507.1'
p1270
aS'ERR1004092'
p1271
aS'ERR1004090'
p1272
asS'ENSG00000129514'
p1273
(lp1274
S'V_HNF3_Q6_M00791'
p1275
aS'ERR1003226'
p1276
aS'ERR1003234'
p1277
aS'ERR1003241'
p1278
aS'ERR1003233'
p1279
aS'V_HNF3ALPHA_Q6_M00724'
p1280
aS'V_HNF3_Q6_01_M01012'
p1281
aS'ERR1003240'
p1282
aS'ERR1003232'
p1283
aS'MA0148.4'
p1284
aS'ERR1003230'
p1285
aS'ERR1003231'
p1286
aS'ERR1003236'
p1287
aS'ERR1003237'
p1288
aS'ERR1003227'
p1289
aS'ERR1003235'
p1290
aS'ERR1003228'
p1291
aS'ERR1003238'
p1292
aS'ERR1003239'
p1293
asS'ENSG00000134323'
p1294
(lp1295
S'V_MYCN_01_M02259'
p1296
aS'MA0104.4'
p1297
aS'V_NMYC_01_M00055'
p1298
aS'ERR1004866'
p1299
asS'ENSG00000151650'
p1300
(lp1301
S'ERR1006682'
p1302
aS'ERR194580'
p1303
aS'V_MSX3_01_M01341'
p1304
aS'ERR194581'
p1305
aS'ERR194578'
p1306
aS'ERR194579'
p1307
aS'MA0724.1'
p1308
aS'V_XVENT1_01_M00445'
p1309
asS'ENSG00000177030'
p1310
(lp1311
S'V_DEAF1_02_M01002'
p1312
aS'V_DEAF1_01_M01001'
p1313
asS'ENSG00000183733'
p1314
(lp1315
S'MA1934.1'
p1316
aS'MA0820.1'
p1317
aS'MA1941.1'
p1318
ag962
asS'ENSG00000186564'
p1319
(lp1320
S'ERR1003281'
p1321
aS'ERR1003280'
p1322
aS'ERR1003278'
p1323
aS'ERR1003279'
p1324
aS'ERR1003276'
p1325
aS'ERR1003277'
p1326
aS'ERR1003274'
p1327
aS'ERR1003275'
p1328
aS'MA0847.3'
p1329
aS'ERR195603'
p1330
aS'ERR195602'
p1331
aS'ERR195601'
p1332
aS'ERR195604'
p1333
asS'ENSG00000198740'
p1334
(lp1335
S'MA1657.1'
p1336
asS'ENSG00000175197'
p1337
(lp1338
S'V_CHOP_01_M00249'
p1339
asS'ENSG00000152192'
p1340
(lp1341
S'ERR1005681'
p1342
aS'ERR195440'
p1343
aS'ERR1005680'
p1344
aS'ERR195438'
p1345
aS'ERR195439'
p1346
aS'ERR1005678'
p1347
aS'ERR1005679'
p1348
aS'ERR1005683'
p1349
aS'ERR1005682'
p1350
aS'ERR1005685'
p1351
aS'MA0790.1'
p1352
aS'ERR1005684'
p1353
asS'ENSG00000119138'
p1354
(lp1355
S'MA1107.2'
p1356
asS'ENSG00000184937'
p1357
(lp1358
S'V_WT1_Q6_01_M02036'
p1359
asS'ENSG00000144852'
p1360
(lp1361
S'ERR1005173'
p1362
aS'ERR1005172'
p1363
aS'ERR1005171'
p1364
aS'ERR1005177'
p1365
aS'ERR1005176'
p1366
aS'ERR1005175'
p1367
aS'ERR1005174'
p1368
aS'MA1533.1'
p1369
aS'V_PXR_Q2_M00964'
p1370
aS'V_PXRRXR_02_M01153'
p1371
asS'ENSG00000137265'
p1372
(lp1373
S'ERR1004202'
p1374
aS'Irf4.2'
p1375
aS'Irf4.1'
p1376
aS'V_IRF4_03_M02768'
p1377
aS'ERR1004207'
p1378
aS'V_IRF4_04_M02872'
p1379
aS'ERR1004205'
p1380
aS'ERR1004203'
p1381
aS'ERR193708'
p1382
aS'ERR1004208'
p1383
aS'ERR1004209'
p1384
aS'ERR193707'
p1385
aS'MA1419.1'
p1386
aS'ERR193709'
p1387
aS'ERR1004206'
p1388
aS'ERR1004204'
p1389
asS'ENSG00000164379'
p1390
(lp1391
S'ERR1003395'
p1392
aS'V_HFH1_01_M00129'
p1393
aS'ERR1003401'
p1394
aS'ERR1003397'
p1395
asS'ENSG00000136936'
p1396
(lp1397
S'ERR1006729'
p1398
aS'ERR1006728'
p1399
aS'ERR1006727'
p1400
aS'ERR1006726'
p1401
aS'ERR1006730'
p1402
aS'ERR1006731'
p1403
aS'ERR1006732'
p1404
aS'ERR1006733'
p1405
asS'ENSG00000196387'
p1406
(lp1407
S'ERR1006969'
p1408
aS'ERR1006968'
p1409
aS'ERR1006972'
p1410
aS'ERR1006973'
p1411
aS'ERR1006970'
p1412
aS'ERR1006971'
p1413
aS'MA1589.1'
p1414
asS'ENSG00000172789'
p1415
(lp1416
S'Hoxc5.1'
p1417
aS'V_HOXC5_01_M01454'
p1418
asS'ENSG00000103495'
p1419
(lp1420
S'V_MAZ_Q6_01_M02023'
p1421
aS'MA1522.1'
p1422
asS'ENSG00000137185'
p1423
(lp1424
S'ERR1007352'
p1425
aS'ERR1007355'
p1426
aS'ERR1007354'
p1427
aS'ERR1007357'
p1428
aS'ERR1007356'
p1429
asS'ENSG00000175745'
p1430
(lp1431
S'ERR194437'
p1432
aS'ERR194435'
p1433
aS'ERR194432'
p1434
aS'V_COUP_01_M00158'
p1435
aS'ERR1005218'
p1436
aS'ERR1005219'
p1437
aS'ERR1005216'
p1438
aS'ERR1005214'
p1439
aS'ERR1005215'
p1440
aS'ERR1005212'
p1441
aS'ERR1005213'
p1442
aS'ERR1005210'
p1443
aS'ERR1005211'
p1444
aS'MA1538.1'
p1445
aS'MA0017.2'
p1446
aS'ERR193872'
p1447
aS'MA1537.1'
p1448
aS'ERR1005209'
p1449
aS'ERR1005208'
p1450
aS'ERR1005221'
p1451
aS'ERR1005220'
p1452
aS'ERR1005207'
p1453
aS'ERR1005206'
p1454
aS'V_COUPTF_Q6_M01036'
p1455
asS'ENSG00000182158'
p1456
(lp1457
S'ERR195567'
p1458
aS'ERR195568'
p1459
asS'ENSG00000134138'
p1460
(lp1461
S'ERR1004741'
p1462
aS'ERR1004740'
p1463
aS'ERR1004730'
p1464
aS'ERR185037'
p1465
aS'ERR185038'
p1466
aS'V_MEIS2_01_M01488'
p1467
aS'ERR1004729'
p1468
aS'ERR1004728'
p1469
aS'ERR1004738'
p1470
aS'ERR194706'
p1471
aS'ERR1004735'
p1472
aS'MA1640.1'
p1473
aS'ERR194705'
p1474
aS'ERR1004733'
p1475
asS'ENSG00000126261'
p1476
(lp1477
S'ERR188670'
p1478
aS'ERR188671'
p1479
aS'ERR1002109'
p1480
aS'V_ARX_01_M01423'
p1481
aS'ERR188673'
p1482
aS'ERR188672'
p1483
aS'ERR195531'
p1484
aS'ERR195530'
p1485
aS'ERR195532'
p1486
aS'ERR1002107'
p1487
aS'ERR1002106'
p1488
aS'V_ARX_02_M02945'
p1489
aS'ERR1002108'
p1490
aS'ERR1002110'
p1491
aS'ERR1002111'
p1492
aS'ERR1002112'
p1493
aS'ERR1002113'
p1494
aS'Arx.1'
p1495
aS'ERR195529'
p1496
asS'ENSG00000131061'
p1497
(lp1498
S'MA1655.1'
p1499
asS'ENSG00000179774'
p1500
(lp1501
S'MA1468.1'
p1502
aS'ERR1002224'
p1503
aS'ERR1002222'
p1504
aS'ERR1002223'
p1505
aS'ERR1002220'
p1506
aS'ERR1002218'
p1507
aS'ERR1002221'
p1508
asS'ENSG00000144485'
p1509
(lp1510
S'MA1493.1'
p1511
aS'ERR1003653'
p1512
asS'ENSG00000113916'
p1513
(lp1514
S'ERR1002311'
p1515
aS'V_BCL6_02_M01185'
p1516
aS'V_BCL6_Q3_01_M02085'
p1517
aS'V_BCL6_Q3_M01171'
p1518
aS'ERR1002309'
p1519
aS'ERR1002308'
p1520
aS'ERR1002312'
p1521
aS'ERR1002313'
p1522
aS'ERR1002310'
p1523
aS'ERR1002306'
p1524
aS'V_BCL6_01_M01183'
p1525
aS'ERR1002307'
p1526
aS'MA0463.2'
p1527
asS'ENSG00000121406'
p1528
(lp1529
S'MA1728.1'
p1530
asS'ENSG00000163623'
p1531
(lp1532
S'V_NKX61_03_M01489'
p1533
aS'V_NKX61_01_M00424'
p1534
aS'V_NKX61_02_M01469'
p1535
asS'ENSG00000170802'
p1536
(lp1537
S'ERR1003356'
p1538
aS'ERR1003358'
p1539
asS'ENSG00000068323'
p1540
(lp1541
S'MA0831.3'
p1542
aS'ERR1006522'
p1543
aS'ERR194808'
p1544
asS'ENSG00000165495'
p1545
(lp1546
S'V_PKNOX2_01_M01411'
p1547
aS'ERR1005623'
p1548
aS'ERR1005628'
p1549
aS'ERR1005627'
p1550
aS'ERR1005625'
p1551
aS'ERR1005624'
p1552
aS'ERR1005629'
p1553
aS'Pknox2.1'
p1554
aS'ERR195420'
p1555
aS'MA0783.1'
p1556
aS'ERR194783'
p1557
aS'ERR194782'
p1558
aS'ERR195419'
p1559
asS'ENSG00000102935'
p1560
(lp1561
S'V_ROAZ_01_M00467'
p1562
asS'ENSG00000067082'
p1563
(lp1564
S'ERR1004493'
p1565
aS'ERR1004492'
p1566
aS'ERR1004491'
p1567
aS'ERR1004487'
p1568
aS'ERR1004488'
p1569
aS'ERR1004489'
p1570
aS'ERR1004486'
p1571
aS'MA1517.1'
p1572
aS'ERR1004490'
p1573
asS'ENSG00000111783'
p1574
(lp1575
S'ERR1005855'
p1576
aS'Rfx4.1'
p1577
aS'MA0799.2'
p1578
aS'ERR194645'
p1579
aS'ERR1005854'
p1580
aS'V_RFX4_03_M02789'
p1581
aS'ERR1005856'
p1582
aS'ERR1005857'
p1583
aS'ERR194648'
p1584
aS'ERR194649'
p1585
aS'ERR1005852'
p1586
aS'ERR1005853'
p1587
aS'ERR194644'
p1588
aS'ERR1005850'
p1589
aS'ERR194646'
p1590
aS'ERR194647'
p1591
aS'V_RFX4_04_M02893'
p1592
aS'ERR1005851'
p1593
asS'ENSG00000106511'
p1594
(lp1595
S'MA0706.1'
p1596
aS'ERR1004758'
p1597
aS'ERR195692'
p1598
aS'ERR194411'
p1599
aS'ERR194410'
p1600
aS'ERR194412'
p1601
aS'ERR194408'
p1602
asS'ENSG00000171443'
p1603
(lp1604
S'ERR1007155'
p1605
aS'ERR194592'
p1606
aS'ERR194591'
p1607
aS'ERR1007159'
p1608
aS'ERR1007161'
p1609
asS'ENSG00000156150'
p1610
(lp1611
S'ERR1002060'
p1612
aS'V_ALX3_02_M02943'
p1613
aS'ERR1002063'
p1614
aS'ERR1002059'
p1615
aS'ERR1002058'
p1616
aS'ERR1002071'
p1617
aS'ERR1002070'
p1618
aS'ERR1002065'
p1619
aS'Alx3.1'
p1620
aS'ERR1002064'
p1621
aS'ERR193771'
p1622
aS'ERR195528'
p1623
aS'ERR193773'
p1624
aS'ERR193772'
p1625
aS'ERR1002062'
p1626
aS'V_ALX3_01_M01355'
p1627
aS'MA0634.1'
p1628
aS'ERR1002068'
p1629
aS'ERR1002073'
p1630
aS'ERR1002066'
p1631
aS'ERR1002072'
p1632
asS'ENSG00000168621'
p1633
(lp1634
S'ERR1002147'
p1635
aS'ERR1002146'
p1636
aS'ERR1002145'
p1637
aS'ERR1002144'
p1638
aS'ERR1002143'
p1639
aS'ERR1002142'
p1640
aS'ERR1002141'
p1641
aS'ERR1002140'
p1642
aS'V_CREBP1CJUN_01_M00041'
p1643
aS'MA1632.1'
p1644
aS'ERR1002152'
p1645
aS'ERR1002149'
p1646
aS'ERR1002148'
p1647
aS'V_ATF_B_M00338'
p1648
aS'V_ATF1_Q6_M00691'
p1649
aS'Atf1.1'
p1650
aS'Atf1.2'
p1651
aS'V_CREBP1_Q2_M00179'
p1652
aS'V_ATF1_Q6_01_M01861'
p1653
aS'V_ATF2_Q5_M01862'
p1654
aS'ERR1002150'
p1655
aS'ERR1002151'
p1656
aS'V_CREBP1_01_M00040'
p1657
aS'ERR1002153'
p1658
aS'V_CREBATF_Q6_M00981'
p1659
aS'V_ATF1_04_M02842'
p1660
aS'V_ATF_01_M00017'
p1661
aS'V_ATF1_03_M02738'
p1662
aS'ERR1002138'
p1663
aS'ERR1002139'
p1664
asS'ENSG00000153879'
p1665
(lp1666
S'ERR1002439'
p1667
aS'ERR1002438'
p1668
aS'ERR1002437'
p1669
aS'ERR1002436'
p1670
aS'ERR1002435'
p1671
aS'MA1636.1'
p1672
aS'ERR1002433'
p1673
aS'ERR1002432'
p1674
aS'ERR1002431'
p1675
aS'ERR1002430'
p1676
aS'V_CAAT_C_M00200'
p1677
aS'ERR194752'
p1678
aS'ERR194753'
p1679
aS'ERR194750'
p1680
aS'ERR194751'
p1681
aS'MA0838.1'
p1682
aS'V_CEBPG_Q6_01_M01869'
p1683
aS'ERR1002428'
p1684
aS'ERR1002429'
p1685
aS'ERR1002434'
p1686
aS'ERR1002426'
p1687
aS'ERR1002427'
p1688
aS'V_CEBPG_Q6_M00622'
p1689
aS'ERR1002440'
p1690
aS'ERR1002441'
p1691
aS'ERR188696'
p1692
aS'ERR188697'
p1693
aS'ERR188694'
p1694
aS'ERR188695'
p1695
aS'ERR194749'
p1696
aS'V_CAAT_01_M00254'
p1697
asS'ENSG00000106331'
p1698
(lp1699
S'Pax4.1'
p1700
aS'V_PAX4_02_M00377'
p1701
aS'V_PAX4_04_M00380'
p1702
aS'ERR195382'
p1703
aS'V_PAX4_03_M00378'
p1704
aS'ERR195043'
p1705
aS'V_PAX4_05_M01385'
p1706
aS'ERR1005469'
p1707
aS'ERR195044'
p1708
aS'ERR1005465'
p1709
aS'ERR1005464'
p1710
aS'ERR195384'
p1711
aS'V_PAX4_01_M00373'
p1712
aS'MA0068.2'
p1713
aS'ERR1005467'
p1714
aS'ERR1005463'
p1715
asS'ENSG00000164651'
p1716
(lp1717
S'MA0747.1'
p1718
aS'ERR1006228'
p1719
aS'ERR1006229'
p1720
aS'ERR195484'
p1721
aS'ERR1006222'
p1722
aS'ERR1006223'
p1723
aS'ERR1006226'
p1724
aS'ERR1006224'
p1725
aS'ERR1006225'
p1726
asS'ENSG00000196843'
p1727
(lp1728
S'Arid5a.2'
p1729
aS'V_ARID5A_04_M02840'
p1730
aS'Arid5a.1'
p1731
aS'V_ARID5A_03_M02736'
p1732
asS'ENSG00000156127'
p1733
(lp1734
S'MA1634.1'
p1735
aS'ERR1002271'
p1736
aS'ERR1002270'
p1737
aS'MA0462.2'
p1738
aS'ERR1002266'
p1739
aS'ERR1002268'
p1740
asS'ENSG00000186130'
p1741
(lp1742
S'MA1581.1'
p1743
aS'V_ZID_01_M00085'
p1744
asS'ENSG00000119919'
p1745
(lp1746
S'V_NKX23_01_M01457'
p1747
asS'ENSG00000167081'
p1748
(lp1749
S'MA1114.1'
p1750
asS'ENSG00000016082'
p1751
(lp1752
S'V_ISL1_Q6_M01127'
p1753
asS'ENSG00000067066'
p1754
(lp1755
S'V_SP100_04_M02913'
p1756
aS'Sp100.2'
p1757
aS'Sp100.1'
p1758
aS'V_SP100_03_M02809'
p1759
asS'ENSG00000118513'
p1760
(lp1761
S'V_MYB_Q3_M00773'
p1762
aS'V_MYB_05_M02779'
p1763
aS'Myb.2'
p1764
aS'Myb.1'
p1765
aS'V_MYB_Q6_M00183'
p1766
aS'V_CMYB_Q5_M01821'
p1767
aS'V_VMYB_01_M00003'
p1768
aS'MA0100.3'
p1769
aS'V_MYB_03_M02883'
p1770
aS'V_CMYB_01_M00004'
p1771
aS'V_VMYB_02_M00227'
p1772
aS'V_MYB_Q5_01_M00913'
p1773
asS'ENSG00000186103'
p1774
(lp1775
S'ERR1002088'
p1776
aS'ERR1002089'
p1777
aS'ERR1002082'
p1778
aS'ERR1002083'
p1779
aS'ERR1002086'
p1780
aS'ERR1002087'
p1781
aS'ERR1002084'
p1782
aS'ERR1002085'
p1783
aS'MA1463.1'
p1784
asS'ENSG00000120837'
p1785
(lp1786
S'MA0502.2'
p1787
asS'ENSG00000143257'
p1788
(lp1789
S'ERR1005184'
p1790
aS'ERR1005185'
p1791
aS'ERR1005182'
p1792
aS'ERR1005183'
p1793
aS'ERR1005180'
p1794
aS'ERR1005181'
p1795
aS'MA1534.1'
p1796
asS'ENSG00000260027'
p1797
(lp1798
S'ERR1003933'
p1799
aS'V_HOXB7_01_M01396'
p1800
aS'ERR1003927'
p1801
aS'MA1501.1'
p1802
aS'Hoxb7.1'
p1803
aS'ERR1003930'
p1804
aS'ERR1003920'
p1805
aS'ERR1003932'
p1806
aS'ERR1003931'
p1807
aS'ERR1003928'
p1808
asS'ENSG00000198807'
p1809
(lp1810
S'ERR1005511'
p1811
aS'ERR1005510'
p1812
aS'ERR1005513'
p1813
aS'ERR194210'
p1814
aS'ERR1005515'
p1815
aS'ERR1005514'
p1816
aS'ERR1005517'
p1817
aS'ERR1005516'
p1818
aS'ERR194209'
p1819
aS'MA0781.1'
p1820
aS'V_PAX9_B_M00329'
p1821
aS'ERR1005512'
p1822
asS'ENSG00000204531'
p1823
(lp1824
S'V_OCT4_02_M01124'
p1825
aS'MA1115.1'
p1826
aS'V_POU5F1_02_M02245'
p1827
aS'V_OCT4_01_M01125'
p1828
aS'ERR1005702'
p1829
aS'ERR1005703'
p1830
aS'ERR1005704'
p1831
aS'ERR1005705'
p1832
aS'ERR1005706'
p1833
aS'ERR1005707'
p1834
aS'ERR1005708'
p1835
aS'ERR1005709'
p1836
aS'V_POU5F1_01_M01307'
p1837
asS'ENSG00000126603'
p1838
(lp1839
S'ERR1003551'
p1840
aS'ERR1003548'
p1841
aS'ERR1003547'
p1842
aS'Glis2.1'
p1843
aS'Glis2.2'
p1844
aS'ERR195211'
p1845
aS'ERR195212'
p1846
aS'ERR1003553'
p1847
aS'V_GLIS2_04_M02863'
p1848
aS'ERR1003546'
p1849
aS'ERR1003550'
p1850
aS'V_GLIS2_03_M02759'
p1851
aS'ERR1003549'
p1852
aS'MA0736.1'
p1853
aS'ERR1003552'
p1854
asS'ENSG00000154305'
p1855
(lp1856
S'V_ARNT_02_M00539'
p1857
aS'V_AHRARNT_02_M00237'
p1858
aS'V_AHRARNT_01_M00235'
p1859
aS'V_ARNT_01_M00236'
p1860
asS'ENSG00000117707'
p1861
(lp1862
S'ERR1005763'
p1863
aS'ERR1005761'
p1864
aS'MA0794.1'
p1865
aS'ERR1005759'
p1866
aS'ERR194091'
p1867
aS'ERR194093'
p1868
aS'ERR194092'
p1869
asS'ENSG00000205250'
p1870
(lp1871
S'ERR194868'
p1872
aS'V_E2F4_Q6_M02090'
p1873
aS'ERR1002774'
p1874
aS'ERR1002770'
p1875
aS'ERR1002772'
p1876
aS'ERR1002776'
p1877
aS'ERR194867'
p1878
aS'MA0470.2'
p1879
asS'ENSG00000011332'
p1880
(lp1881
S'ERR1002721'
p1882
aS'ERR1002720'
p1883
aS'ERR1002718'
p1884
aS'ERR1002719'
p1885
aS'ERR1002716'
p1886
aS'ERR1002717'
p1887
aS'ERR1002714'
p1888
aS'ERR1002715'
p1889
asS'ENSG00000126561'
p1890
(lp1891
S'V_STAT5A_Q6_M01890'
p1892
aS'V_STAT5A_02_M00460'
p1893
aS'V_STAT5A_01_M00457'
p1894
asS'ENSG00000174738'
p1895
(lp1896
S'ERR1005167'
p1897
aS'ERR1005168'
p1898
aS'ERR1005169'
p1899
aS'ERR1005164'
p1900
aS'ERR1005165'
p1901
aS'ERR1005166'
p1902
aS'MA1532.2'
p1903
aS'ERR1005162'
p1904
asS'ENSG00000131668'
p1905
(lp1906
S'ERR188678'
p1907
aS'MA0875.1'
p1908
aS'Barx1.1'
p1909
aS'V_BARX1_01_M01340'
p1910
asS'ENSG00000101057'
p1911
(lp1912
S'ERR1004858'
p1913
aS'MA0777.1'
p1914
aS'ERR1004862'
p1915
aS'ERR1004863'
p1916
aS'ERR1004859'
p1917
aS'ERR1004861'
p1918
aS'ERR188775'
p1919
aS'ERR1004864'
p1920
aS'ERR188776'
p1921
aS'ERR188777'
p1922
aS'ERR1004865'
p1923
aS'ERR1004860'
p1924
asS'ENSG00000167157'
p1925
(lp1926
S'ERR193904'
p1927
aS'ERR193905'
p1928
aS'ERR193903'
p1929
aS'ERR1005780'
p1930
aS'ERR1005781'
p1931
aS'Prrx2.1'
p1932
aS'MA0075.3'
p1933
aS'V_PRX2_Q2_M02115'
p1934
aS'ERR195715'
p1935
aS'ERR195714'
p1936
aS'ERR195716'
p1937
asS'ENSG00000175329'
p1938
(lp1939
S'ERR193810'
p1940
aS'V_ISX_01_M01331'
p1941
aS'ERR193813'
p1942
aS'ERR1004325'
p1943
aS'ERR1004324'
p1944
aS'ERR1004327'
p1945
aS'ERR1004326'
p1946
aS'ERR1004329'
p1947
aS'ERR1004328'
p1948
aS'ERR195296'
p1949
aS'MA0654.1'
p1950
aS'ERR195295'
p1951
aS'Isx.1'
p1952
aS'ERR1004337'
p1953
asS'ENSG00000179456'
p1954
(lp1955
S'ERR195096'
p1956
aS'ERR195094'
p1957
aS'ERR195095'
p1958
aS'ERR195093'
p1959
aS'ERR1006792'
p1960
aS'ERR1006793'
p1961
aS'ERR1006790'
p1962
aS'ERR1006791'
p1963
aS'MA0698.1'
p1964
aS'ERR1006797'
p1965
aS'ERR1006794'
p1966
aS'ERR1006795'
p1967
aS'ERR1006796'
p1968
aS'V_RP58_01_M00532'
p1969
aS'ERR188888'
p1970
aS'ERR188889'
p1971
asS'ENSG00000072736'
p1972
(lp1973
S'ERR1004992'
p1974
aS'ERR1004993'
p1975
aS'ERR1004990'
p1976
aS'ERR1004991'
p1977
aS'ERR1004987'
p1978
aS'MA0625.2'
p1979
asS'ENSG00000180257'
p1980
(lp1981
S'MA1719.1'
p1982
asS'ENSG00000178187'
p1983
(lp1984
S'ERR1007140'
p1985
aS'ERR1007141'
p1986
aS'ERR1007139'
p1987
aS'ERR1007138'
p1988
aS'MA1712.1'
p1989
aS'ERR1007136'
p1990
asS'ENSG00000175325'
p1991
(lp1992
S'ERR193899'
p1993
aS'ERR194459'
p1994
aS'ERR194458'
p1995
aS'Prop1.1'
p1996
aS'ERR1005744'
p1997
aS'ERR1005745'
p1998
aS'ERR1005746'
p1999
aS'ERR1005747'
p2000
aS'ERR194460'
p2001
aS'ERR194461'
p2002
aS'ERR1005742'
p2003
aS'ERR1005743'
p2004
aS'ERR1005748'
p2005
aS'ERR1005749'
p2006
aS'V_PROP1_02_M01320'
p2007
aS'ERR1005751'
p2008
aS'ERR193900'
p2009
aS'ERR193901'
p2010
aS'MA0715.1'
p2011
aS'ERR1005753'
p2012
aS'ERR1005752'
p2013
aS'V_PROP1_01_M01294'
p2014
aS'ERR1005750'
p2015
aS'ERR1005757'
p2016
aS'ERR1005756'
p2017
aS'ERR1005755'
p2018
aS'ERR1005754'
p2019
asS'ENSG00000037965'
p2020
(lp2021
S'ERR1004011'
p2022
aS'ERR1004007'
p2023
aS'Hoxc8.1'
p2024
aS'ERR1004012'
p2025
aS'MA1505.1'
p2026
aS'ERR1004010'
p2027
aS'ERR1004008'
p2028
aS'V_HOXC8_01_M01321'
p2029
asS'ENSG00000128710'
p2030
(lp2031
S'ERR1004044'
p2032
aS'V_HOXD10_01_M01375'
p2033
aS'ERR1004036'
p2034
aS'ERR1004041'
p2035
aS'ERR1004042'
p2036
aS'ERR1004045'
p2037
aS'ERR1004043'
p2038
aS'ERR1004039'
p2039
aS'ERR1004035'
p2040
aS'MA1506.1'
p2041
aS'ERR1004037'
p2042
aS'Hoxd10.1'
p2043
aS'ERR1004033'
p2044
aS'ERR1004032'
p2045
asS'ENSG00000085276'
p2046
(lp2047
S'V_EVI1_02_M00079'
p2048
aS'V_EVI1_03_M00080'
p2049
aS'V_EVI1_01_M00078'
p2050
aS'V_EVI1_04_M00081'
p2051
aS'V_EVI1_Q3_M02002'
p2052
aS'V_EVI1_05_M00082'
p2053
aS'V_EVI1_06_M00011'
p2054
asS'ENSG00000139083'
p2055
(lp2056
S'ERR194006'
p2057
aS'V_TEL1_01_M01993'
p2058
aS'Etv6.1'
p2059
aS'V_TEL1_02_M02070'
p2060
aS'MA0645.1'
p2061
asS'ENSG00000164093'
p2062
(lp2063
S'V_ARP1_01_M00155'
p2064
aS'V_PITX2_01_M01447'
p2065
aS'V_PITX2_Q2_M00482'
p2066
aS'V_PITX2_Q6_M02114'
p2067
aS'MA1547.2'
p2068
aS'Pitx2.1'
p2069
asS'ENSG00000125398'
p2070
(lp2071
S'ERR195059'
p2072
aS'ERR194660'
p2073
aS'ERR194661'
p2074
aS'V_SOX9_B1_M00410'
p2075
aS'ERR194658'
p2076
aS'ERR194659'
p2077
aS'V_SOX9_Q4_M01284'
p2078
aS'ERR195060'
p2079
aS'ERR195058'
p2080
aS'MA0077.1'
p2081
aS'ERR194657'
p2082
aS'ERR1006195'
p2083
aS'ERR1006196'
p2084
aS'ERR1006197'
p2085
asS'ENSG00000164256'
p2086
(lp2087
S'MA1723.1'
p2088
asS'ENSG00000184895'
p2089
(lp2090
S'V_SRY_05_M02917'
p2091
aS'ERR194239'
p2092
aS'Sry.2'
p2093
aS'Sry.1'
p2094
aS'ERR194237'
p2095
aS'V_SRY_02_M00160'
p2096
aS'ERR248788'
p2097
aS'MA0084.1'
p2098
aS'V_SRY_07_M02813'
p2099
asS'ENSG00000111046'
p2100
(lp2101
S'ERR1004871'
p2102
aS'ERR1004870'
p2103
aS'ERR1004873'
p2104
aS'ERR1004872'
p2105
aS'Myf6.2'
p2106
aS'V_MYF6_04_M02885'
p2107
aS'ERR1004877'
p2108
aS'Myf6.1'
p2109
aS'ERR1004874'
p2110
aS'ERR1004875'
p2111
aS'V_MYF6_03_M02781'
p2112
aS'MA0667.1'
p2113
aS'ERR1004876'
p2114
aS'ERR194073'
p2115
aS'ERR194072'
p2116
asS'ENSG00000164330'
p2117
(lp2118
S'V_OLF1_01_M00261'
p2119
aS'V_EBF_Q6_M00977'
p2120
aS'V_COE1_Q6_M01871'
p2121
aS'V_EBF1_01_M02267'
p2122
aS'MA0154.4'
p2123
aS'ERR188717'
p2124
aS'ERR188716'
p2125
asS'ENSG00000140009'
p2126
(lp2127
S'V_ERBETA_Q5_M01875'
p2128
aS'V_ESR2_01_M02377'
p2129
aS'MA0258.2'
p2130
asS'ENSG00000111049'
p2131
(lp2132
S'MA1641.1'
p2133
asS'ENSG00000161298'
p2134
(lp2135
S'MA1594.1'
p2136
asS'ENSG00000184517'
p2137
(lp2138
S'ERR1006888'
p2139
aS'ERR1006889'
p2140
aS'ERR1006886'
p2141
aS'ERR1006887'
p2142
aS'ERR1006891'
p2143
aS'ERR1006890'
p2144
aS'ERR1006893'
p2145
aS'ERR1006892'
p2146
asS'ENSG00000118217'
p2147
(lp2148
S'MA1466.1'
p2149
aS'ERR1002188'
p2150
aS'ERR1002190'
p2151
aS'ERR1002191'
p2152
aS'ERR1002192'
p2153
aS'ERR1002193'
p2154
aS'ERR1002189'
p2155
asS'ENSG00000115112'
p2156
(lp2157
S'V_LBP9_01_M01592'
p2158
aS'ERR1006518'
p2159
aS'ERR1006519'
p2160
aS'ERR1006521'
p2161
aS'ERR1006520'
p2162
aS'ERR1006516'
p2163
aS'ERR1006517'
p2164
aS'ERR1006514'
p2165
aS'ERR1006515'
p2166
asS'ENSG00000184635'
p2167
(lp2168
S'MA1721.1'
p2169
asS'ENSG00000103343'
p2170
(lp2171
S'ERR1006978'
p2172
aS'ERR1006979'
p2173
aS'ERR1006981'
p2174
aS'ERR1006980'
p2175
aS'ERR1006976'
p2176
aS'ERR1006977'
p2177
aS'ERR1006975'
p2178
asS'ENSG00000179922'
p2179
(lp2180
S'ERR193969'
p2181
aS'ERR1007277'
p2182
aS'ERR1007274'
p2183
aS'ERR1007278'
p2184
aS'ERR1007279'
p2185
aS'MA1717.1'
p2186
aS'ERR1007281'
p2187
aS'ERR1007280'
p2188
asS'ENSG00000083307'
p2189
(lp2190
S'MA1105.2'
p2191
asS'ENSG00000142700'
p2192
(lp2193
S'MA1478.1'
p2194
aS'ERR1002692'
p2195
aS'ERR1002690'
p2196
aS'ERR1002697'
p2197
aS'V_DMRT5_01_M01150'
p2198
aS'ERR1002695'
p2199
aS'ERR1002694'
p2200
aS'ERR1002696'
p2201
asS'ENSG00000129911'
p2202
(lp2203
S'ERR194060'
p2204
aS'ERR1004447'
p2205
aS'ERR1004448'
p2206
aS'ERR1004449'
p2207
aS'ERR194059'
p2208
aS'ERR194061'
p2209
aS'MA0741.1'
p2210
asS'ENSG00000169840'
p2211
(lp2212
S'MA0892.1'
p2213
aS'ERR1003605'
p2214
aS'ERR1003604'
p2215
aS'ERR1003603'
p2216
aS'ERR1003600'
p2217
aS'ERR195220'
p2218
asS'ENSG00000170689'
p2219
(lp2220
S'MA1503.1'
p2221
aS'Hoxb9.1'
p2222
aS'V_HOXB9_01_M01426'
p2223
aS'ERR1003948'
p2224
aS'ERR1003949'
p2225
aS'ERR1003944'
p2226
aS'ERR1003945'
p2227
aS'ERR1003946'
p2228
aS'ERR1003947'
p2229
aS'ERR1003942'
p2230
aS'ERR1003943'
p2231
asS'ENSG00000102984'
p2232
(lp2233
S'ERR1007290'
p2234
aS'ERR1007291'
p2235
aS'ERR1007293'
p2236
aS'ERR1007295'
p2237
aS'ERR1007296'
p2238
aS'ERR1007297'
p2239
asS'ENSG00000170684'
p2240
(lp2241
S'ERR1007052'
p2242
aS'ERR1007053'
p2243
aS'ERR1007051'
p2244
aS'ERR1007048'
p2245
asS'ENSG00000188295'
p2246
(lp2247
S'MA1985.1'
p2248
asS'ENSG00000214575'
p2249
(lp2250
S'ERR188701'
p2251
asS'ENSG00000158711'
p2252
(lp2253
S'ERR194595'
p2254
aS'ERR194597'
p2255
aS'MA0076.2'
p2256
aS'Elk4.1'
p2257
aS'ERR1002936'
p2258
aS'ERR1002937'
p2259
aS'ERR1002934'
p2260
aS'ERR1002935'
p2261
asS'ENSG00000113430'
p2262
(lp2263
S'Irx4.1'
p2264
aS'V_IRX4_01_M01410'
p2265
asS'ENSG00000106261'
p2266
(lp2267
S'MA1585.1'
p2268
asS'ENSG00000152977'
p2269
(lp2270
S'ERR194141'
p2271
aS'ERR194140'
p2272
aS'V_ZIC1_04_M02835'
p2273
aS'MA0696.1'
p2274
aS'V_ZIC1_01_M00448'
p2275
aS'ERR1006922'
p2276
aS'ERR1006925'
p2277
aS'ERR1006924'
p2278
aS'ERR1006921'
p2279
aS'ERR1006920'
p2280
aS'ERR1006923'
p2281
aS'V_ZIC1_05_M02939'
p2282
aS'Zic1.2'
p2283
aS'ERR194138'
p2284
aS'ERR194139'
p2285
aS'Zic1.1'
p2286
aS'ERR1006918'
p2287
aS'ERR1006919'
p2288
aS'ERR1006910'
p2289
aS'ERR1006911'
p2290
aS'ERR1006912'
p2291
aS'ERR1006913'
p2292
aS'ERR1006914'
p2293
aS'ERR1006915'
p2294
aS'ERR1006916'
p2295
aS'ERR1006917'
p2296
asS'ENSG00000146618'
p2297
(lp2298
S'MA1485.1'
p2299
aS'ERR1003162'
p2300
aS'ERR1003163'
p2301
aS'ERR1003166'
p2302
aS'ERR1003167'
p2303
aS'ERR1003164'
p2304
aS'ERR1003165'
p2305
aS'ERR1003168'
p2306
aS'ERR1003169'
p2307
asS'ENSG00000146592'
p2308
(lp2309
S'ERR1002518'
p2310
aS'ERR1002519'
p2311
aS'ERR195571'
p2312
aS'ERR195570'
p2313
aS'ERR1002509'
p2314
aS'ERR195572'
p2315
aS'ERR1002507'
p2316
aS'ERR1002511'
p2317
aS'ERR1002512'
p2318
aS'ERR1002513'
p2319
aS'ERR1002514'
p2320
aS'ERR1002515'
p2321
aS'ERR1002516'
p2322
aS'ERR1002517'
p2323
aS'ERR1002510'
p2324
aS'ERR1002508'
p2325
aS'ERR1002521'
p2326
aS'ERR1002520'
p2327
aS'ERR1002506'
p2328
asS'ENSG00000151702'
p2329
(lp2330
S'ERR194897'
p2331
aS'ERR188731'
p2332
aS'ERR188733'
p2333
aS'ERR188732'
p2334
aS'MA1949.1'
p2335
aS'ERR194899'
p2336
aS'V_EWSR1FLI1_01_M02252'
p2337
aS'V_FLI1_01_M02038'
p2338
aS'Fli1.1'
p2339
aS'ERR1003199'
p2340
aS'ERR1003198'
p2341
aS'ERR1003197'
p2342
aS'ERR1003196'
p2343
aS'ERR1003194'
p2344
aS'ERR1003193'
p2345
aS'ERR1003192'
p2346
aS'ERR1003191'
p2347
aS'ERR1003190'
p2348
aS'MA1950.1'
p2349
aS'V_FLI1_02_M02073'
p2350
aS'MA0149.1'
p2351
aS'ERR194900'
p2352
aS'ERR1003201'
p2353
aS'ERR1003200'
p2354
aS'V_FLI1_Q6_M01208'
p2355
aS'ERR194898'
p2356
aS'ERR1003188'
p2357
aS'ERR1003189'
p2358
aS'MA1956.1'
p2359
aS'MA1967.1'
p2360
aS'ERR1003187'
p2361
aS'MA0475.2'
p2362
asS'ENSG00000141568'
p2363
(lp2364
S'MA1103.2'
p2365
asS'ENSG00000100644'
p2366
(lp2367
S'V_HIF1_Q5_M00466'
p2368
aS'V_HIF1_Q3_M00797'
p2369
aS'MA1106.1'
p2370
aS'V_AHRHIF_Q6_M00976'
p2371
asS'ENSG00000182968'
p2372
(lp2373
S'ERR188852'
p2374
aS'ERR188853'
p2375
aS'Sox1.2'
p2376
aS'Sox1.1'
p2377
aS'V_SOX1_03_M02802'
p2378
aS'V_SOX1_04_M02906'
p2379
asS'ENSG00000075426'
p2380
(lp2381
S'MA0478.1'
p2382
aS'MA1138.1'
p2383
aS'MA1144.1'
p2384
aS'MA1130.1'
p2385
aS'MA1139.1'
p2386
aS'MA1131.1'
p2387
aS'MA1145.1'
p2388
asS'ENSG00000106546'
p2389
(lp2390
S'V_AHR_01_M00139'
p2391
aS'V_AHR_Q5_M00778'
p2392
ag1858
ag1859
ag2371
asS'ENSG00000164920'
p2393
(lp2394
S'MA1646.1'
p2395
aS'Osr2.2'
p2396
aS'Osr2.1'
p2397
aS'ERR1005386'
p2398
aS'V_OSR2_04_M02889'
p2399
aS'V_OSR2_03_M02785'
p2400
aS'ERR1005388'
p2401
asS'ENSG00000167685'
p2402
(lp2403
S'ERR1007118'
p2404
aS'ERR1007122'
p2405
aS'ERR1007123'
p2406
aS'ERR1007119'
p2407
aS'ERR1007121'
p2408
aS'ERR1007120'
p2409
aS'ERR1007124'
p2410
aS'ERR1007125'
p2411
asS'ENSG00000253293'
p2412
(lp2413
S'ERR194362'
p2414
aS'MA0899.1'
p2415
aS'ERR194361'
p2416
aS'Hoxa10.1'
p2417
aS'ERR1003769'
p2418
aS'ERR1003768'
p2419
aS'ERR194365'
p2420
aS'ERR1003773'
p2421
aS'ERR1003771'
p2422
aS'ERR194364'
p2423
aS'ERR1003777'
p2424
aS'ERR1003776'
p2425
aS'ERR1003775'
p2426
aS'ERR1003765'
p2427
aS'ERR1003764'
p2428
aS'ERR194363'
p2429
aS'ERR1003766'
p2430
aS'ERR1003767'
p2431
aS'V_HOXA10_01_M01464'
p2432
aS'ERR1003762'
p2433
aS'ERR1003763'
p2434
asS'ENSG00000164532'
p2435
(lp2436
S'ERR1006349'
p2437
aS'ERR1006348'
p2438
aS'ERR1006343'
p2439
aS'ERR1006342'
p2440
aS'ERR193937'
p2441
aS'ERR1006344'
p2442
aS'ERR1006347'
p2443
aS'ERR1006346'
p2444
aS'ERR194532'
p2445
aS'ERR194533'
p2446
aS'ERR194530'
p2447
aS'ERR194531'
p2448
aS'ERR1006345'
p2449
aS'ERR1006352'
p2450
aS'ERR1006353'
p2451
aS'ERR1006350'
p2452
aS'ERR1006351'
p2453
aS'ERR1006356'
p2454
aS'ERR1006357'
p2455
aS'ERR1006354'
p2456
aS'ERR1006355'
p2457
aS'ERR194529'
p2458
aS'MA0689.1'
p2459
asS'ENSG00000164438'
p2460
(lp2461
S'ERR1006627'
p2462
aS'ERR1006622'
p2463
aS'ERR1006619'
p2464
aS'ERR1006633'
p2465
aS'ERR1006631'
p2466
asS'ENSG00000170485'
p2467
(lp2468
S'ERR1005148'
p2469
aS'ERR1005151'
p2470
aS'ERR1005150'
p2471
aS'ERR1005153'
p2472
aS'ERR1005152'
p2473
aS'ERR1005146'
p2474
asS'ENSG00000198081'
p2475
(lp2476
S'ERR1006788'
p2477
aS'ERR1006776'
p2478
aS'ERR1006777'
p2479
aS'ERR1006781'
p2480
aS'ERR1006779'
p2481
aS'V_ZFP161_04_M02933'
p2482
aS'ERR1006780'
p2483
aS'V_ZF5_B_M00333'
p2484
aS'MA1650.1'
p2485
aS'Zfp161.1'
p2486
aS'Zfp161.2'
p2487
asS'ENSG00000008196'
p2488
(lp2489
S'MA0811.1'
p2490
aS'ERR195506'
p2491
aS'ERR195507'
p2492
aS'V_TCFAP2B_04_M02924'
p2493
aS'ERR1006459'
p2494
aS'Tcfap2b.2'
p2495
aS'Tcfap2b.1'
p2496
aS'ERR195508'
p2497
aS'V_AP2BETA_Q3_M01858'
p2498
aS'MA0813.1'
p2499
aS'V_TCFAP2B_03_M02820'
p2500
aS'ERR1006461'
p2501
aS'ERR1006463'
p2502
aS'MA0812.1'
p2503
aS'ERR1006465'
p2504
asS'ENSG00000137090'
p2505
(lp2506
S'V_DMRT1_01_M01146'
p2507
aS'ERR1002668'
p2508
aS'ERR1002669'
p2509
aS'ERR1002666'
p2510
aS'ERR1002671'
p2511
aS'ERR1002670'
p2512
aS'ERR1002673'
p2513
aS'ERR1002672'
p2514
asS'ENSG00000125820'
p2515
(lp2516
S'V_NKX22_02_M01372'
p2517
aS'V_NKX22_01_M00485'
p2518
asS'ENSG00000160973'
p2519
(lp2520
S'MA0479.1'
p2521
asS'ENSG00000176679'
p2522
(lp2523
S'ERR1006589'
p2524
aS'ERR1006588'
p2525
aS'MA1572.1'
p2526
aS'ERR1006590'
p2527
aS'ERR1006591'
p2528
aS'ERR1006592'
p2529
aS'ERR1006593'
p2530
asS'ENSG00000176678'
p2531
(lp2532
S'V_FOXL1_04_M02753'
p2533
aS'V_FOXL1_02_M02857'
p2534
aS'ERR194984'
p2535
aS'ERR194983'
p2536
aS'ERR194982'
p2537
aS'ERR194981'
p2538
aS'V_FREAC7_01_M00293'
p2539
aS'Foxl1.2'
p2540
aS'Foxl1.1'
p2541
asS'ENSG00000143365'
p2542
(lp2543
S'ERR1005903'
p2544
aS'ERR1005904'
p2545
aS'ERR1005905'
p2546
aS'ERR1005902'
p2547
aS'MA1151.1'
p2548
aS'ERR1005900'
p2549
aS'ERR1005901'
p2550
aS'ERR1005899'
p2551
asS'ENSG00000204304'
p2552
(lp2553
S'MA1113.2'
p2554
asS'ENSG00000130844'
p2555
(lp2556
S'MA1726.1'
p2557
asS'ENSG00000229544'
p2558
(lp2559
S'V_NKX12_01_M01427'
p2560
asS'ENSG00000186350'
p2561
(lp2562
S'ERR1005924'
p2563
aS'ERR1005925'
p2564
aS'ERR1005926'
p2565
aS'ERR1005927'
p2566
aS'ERR1005928'
p2567
aS'V_PPARA_02_M00518'
p2568
aS'Rxra.2'
p2569
aS'V_RXRA_04_M02895'
p2570
aS'V_PPARG_02_M00515'
p2571
aS'V_DR3_Q4_M00966'
p2572
aS'V_PPARA_01_M00242'
p2573
aS'V_RXRLXRB_01_M01198'
p2574
aS'ERR194495'
p2575
aS'ERR194494'
p2576
aS'ERR194496'
p2577
aS'Rxra.1'
p2578
aS'V_VDRRXR_01_M01202'
p2579
aS'ERR1005929'
p2580
aS'V_RXR::RAR_01_M02272'
p2581
aS'ERR194225'
p2582
aS'MA1148.1'
p2583
aS'ERR194226'
p2584
aS'ERR194227'
p2585
aS'ERR194224'
p2586
aS'ERR194856'
p2587
aS'V_PPARG_01_M00512'
p2588
aS'MA0074.1'
p2589
aS'MA1146.1'
p2590
aS'MA0115.1'
p2591
ag547
aS'MA1147.1'
p2592
aS'ERR194855'
p2593
aS'V_PPARGRXRA_01_M02262'
p2594
aS'ERR194857'
p2595
aS'V_RXRA_03_M02791'
p2596
ag1371
aS'ERR194493'
p2597
asS'ENSG00000113722'
p2598
(lp2599
S'ERR1002381'
p2600
aS'ERR1002380'
p2601
aS'MA0878.3'
p2602
aS'ERR1002382'
p2603
aS'ERR1002385'
p2604
aS'ERR1002384'
p2605
aS'ERR195129'
p2606
aS'Cdx1.1'
p2607
aS'ERR195131'
p2608
aS'ERR1002383'
p2609
aS'ERR195130'
p2610
aS'ERR1002379'
p2611
aS'ERR195132'
p2612
aS'V_CDX_Q5_M00991'
p2613
aS'ERR1002378'
p2614
aS'V_CDX1_01_M01373'
p2615
asS'ENSG00000039600'
p2616
(lp2617
S'Sox30.2'
p2618
aS'Sox30.1'
p2619
aS'ERR1006154'
p2620
aS'ERR1006155'
p2621
aS'ERR1006156'
p2622
aS'ERR1006157'
p2623
aS'ERR1006152'
p2624
aS'ERR1006153'
p2625
aS'V_SOX40_04_M02908'
p2626
aS'V_SOX30_03_M02804'
p2627
asS'ENSG00000128645'
p2628
(lp2629
S'ERR1004029'
p2630
aS'Hoxd1.1'
p2631
aS'ERR1004023'
p2632
aS'V_HOXD1_01_M01448'
p2633
asS'ENSG00000171956'
p2634
(lp2635
S'MA0845.1'
p2636
aS'ERR194323'
p2637
aS'ERR194321'
p2638
aS'ERR194320'
p2639
aS'ERR1003264'
p2640
aS'ERR194319'
p2641
aS'ERR1003258'
p2642
aS'ERR193789'
p2643
aS'ERR1003261'
p2644
aS'ERR1003260'
p2645
aS'ERR1003263'
p2646
aS'ERR1003262'
p2647
aS'ERR1003265'
p2648
aS'ERR194322'
p2649
aS'ERR1003259'
p2650
asS'ENSG00000111704'
p2651
(lp2652
S'ERR1004912'
p2653
aS'ERR1004913'
p2654
aS'V_NANOG_02_M01247'
p2655
aS'V_NANOG_01_M01123'
p2656
asS'ENSG00000179284'
p2657
(lp2658
S'V_SP1SP3_Q4_M01219'
p2659
aS'ERR1006198'
p2660
aS'ERR1006199'
p2661
aS'V_SP1_Q6_01_M00931'
p2662
aS'ERR1006204'
p2663
aS'ERR1006205'
p2664
aS'ERR1006200'
p2665
aS'ERR1006201'
p2666
aS'ERR1006202'
p2667
aS'ERR1006203'
p2668
aS'V_SP1_03_M02281'
p2669
aS'V_SP1_02_M01303'
p2670
aS'V_SP1_01_M00008'
p2671
aS'V_SP1_Q6_M00196'
p2672
aS'V_SP1_Q2_01_M00933'
p2673
aS'ERR194666'
p2674
aS'ERR194667'
p2675
aS'ERR194664'
p2676
aS'ERR194665'
p2677
aS'ERR194662'
p2678
aS'ERR194663'
p2679
aS'V_SP1_Q4_01_M00932'
p2680
asS'ENSG00000140265'
p2681
(lp2682
S'MA1602.1'
p2683
aS'ERR1007331'
p2684
asS'ENSG00000116604'
p2685
(lp2686
S'MA0773.1'
p2687
aS'ERR1004725'
p2688
aS'ERR1004721'
p2689
aS'ERR1004720'
p2690
aS'ERR1004723'
p2691
aS'ERR1004722'
p2692
aS'ERR1004718'
p2693
aS'ERR1004719'
p2694
aS'ERR195311'
p2695
aS'ERR195310'
p2696
aS'ERR195312'
p2697
aS'ERR1004724'
p2698
aS'ERR195309'
p2699
asS'ENSG00000176887'
p2700
(lp2701
S'Sox11.1'
p2702
aS'Sox11.2'
p2703
aS'ERR194112'
p2704
aS'ERR194113'
p2705
aS'V_SOX11_03_M02795'
p2706
aS'V_SOX11_04_M02899'
p2707
asS'ENSG00000112242'
p2708
(lp2709
S'V_E2F4_04_M02847'
p2710
aS'ERR193984'
p2711
aS'ERR193985'
p2712
aS'ERR1002766'
p2713
aS'ERR1002769'
p2714
aS'ERR1002768'
p2715
aS'MA0469.3'
p2716
aS'ERR1002765'
p2717
aS'ERR1002763'
p2718
aS'ERR1002762'
p2719
aS'ERR1002764'
p2720
aS'ERR1002767'
p2721
aS'E2F3.1'
p2722
aS'E2F3.2'
p2723
aS'V_E2F3_03_M02743'
p2724
asS'ENSG00000149922'
p2725
(lp2726
S'ERR1006378'
p2727
aS'ERR1006379'
p2728
aS'ERR1006374'
p2729
aS'ERR1006375'
p2730
aS'ERR1006376'
p2731
aS'ERR1006377'
p2732
aS'ERR1006381'
p2733
aS'ERR1006380'
p2734
asS'ENSG00000106410'
p2735
(lp2736
S'Og2x.1'
p2737
aS'V_OG2_02_M01441'
p2738
asS'ENSG00000269404'
p2739
(lp2740
S'ERR194602'
p2741
aS'MA0081.2'
p2742
aS'ERR194605'
p2743
aS'ERR1006267'
p2744
aS'ERR1006258'
p2745
aS'ERR1006256'
p2746
aS'ERR1006254'
p2747
aS'ERR1006266'
p2748
aS'V_SPIB_02_M02041'
p2749
aS'ERR1006264'
p2750
aS'ERR1006265'
p2751
aS'ERR1006262'
p2752
aS'ERR1006263'
p2753
aS'V_SPIB_01_M01204'
p2754
aS'V_SPIB_03_M02076'
p2755
aS'ERR1006260'
p2756
aS'ERR194603'
p2757
aS'ERR1006268'
p2758
aS'ERR1006269'
p2759
asS'ENSG00000112561'
p2760
(lp2761
S'MA0692.1'
p2762
aS'ERR1006537'
p2763
aS'ERR195076'
p2764
aS'ERR1006535'
p2765
aS'V_TFE_Q6_M01029'
p2766
aS'V_TFEB_01_M01768'
p2767
asS'ENSG00000084764'
p2768
(lp2769
S'MA1637.1'
p2770
asS'ENSG00000020633'
p2771
(lp2772
S'ERR1005920'
p2773
aS'ERR193917'
p2774
aS'ERR194489'
p2775
aS'MA0684.2'
p2776
aS'ERR1005918'
p2777
aS'ERR194491'
p2778
aS'ERR194490'
p2779
aS'ERR1005916'
p2780
aS'V_AML2_01_M01759'
p2781
aS'ERR194487'
p2782
aS'V_AML2_Q3_01_M01854'
p2783
aS'ERR193916'
p2784
aS'ERR194488'
p2785
asS'ENSG00000119950'
p2786
(lp2787
S'MA1108.2'
p2788
asS'ENSG00000111206'
p2789
(lp2790
S'V_FOXM1_01_M00630'
p2791
asS'ENSG00000177551'
p2792
(lp2793
S'ERR1005058'
p2794
aS'ERR1005059'
p2795
aS'ERR1005061'
p2796
aS'ERR1005060'
p2797
aS'ERR1005063'
p2798
aS'ERR1005062'
p2799
aS'ERR1005065'
p2800
aS'ERR1005064'
p2801
aS'MA1529.1'
p2802
asS'ENSG00000183647'
p2803
(lp2804
S'MA1981.1'
p2805
asS'ENSG00000147454'
p2806
(lp2807
S'ERR1004803'
p2808
aS'ERR1004802'
p2809
aS'MA0665.1'
p2810
aS'ERR1004813'
p2811
aS'ERR1004812'
p2812
aS'ERR1004808'
p2813
aS'ERR1004809'
p2814
aS'ERR185041'
p2815
aS'ERR1004810'
p2816
aS'ERR1004816'
p2817
aS'ERR1004815'
p2818
aS'ERR1004814'
p2819
aS'ERR1004804'
p2820
aS'ERR1004805'
p2821
aS'ERR1004806'
p2822
aS'ERR1004807'
p2823
asS'ENSG00000278129'
p2824
(lp2825
S'V_ZFP128_04_M02932'
p2826
aS'V_ZFP128_03_M02828'
p2827
aS'Zfp128.1'
p2828
aS'MA1718.1'
p2829
aS'Zfp128.2'
p2830
asS'ENSG00000182742'
p2831
(lp2832
S'Hoxb4.1'
p2833
aS'MA1499.1'
p2834
aS'ERR1003894'
p2835
aS'V_HOXB4_01_M01424'
p2836
asS'ENSG00000138083'
p2837
(lp2838
S'Six3.1'
p2839
aS'V_SIX3_01_M01358'
p2840
asS'ENSG00000125850'
p2841
(lp2842
S'ERR1005427'
p2843
aS'ERR1005426'
p2844
aS'ERR1005429'
p2845
aS'ERR1005428'
p2846
aS'MA1545.1'
p2847
aS'ERR1005435'
p2848
asS'ENSG00000181638'
p2849
(lp2850
S'ERR1006899'
p2851
aS'ERR1006898'
p2852
aS'ERR1006895'
p2853
aS'ERR1006894'
p2854
aS'ERR1006897'
p2855
aS'ERR1006896'
p2856
aS'ERR1006901'
p2857
aS'ERR1006900'
p2858
asS'ENSG00000135363'
p2859
(lp2860
S'V_LMO2COM_02_M00278'
p2861
aS'V_LMO2COM_01_M00277'
p2862
asS'ENSG00000128604'
p2863
(lp2864
S'ERR1004224'
p2865
aS'ERR1004225'
p2866
aS'ERR1004220'
p2867
aS'ERR1004221'
p2868
aS'ERR1004222'
p2869
aS'ERR1004223'
p2870
aS'ERR193713'
p2871
aS'ERR193712'
p2872
aS'MA1420.1'
p2873
aS'V_IRF5_03_M02769'
p2874
aS'ERR1004211'
p2875
aS'ERR1004210'
p2876
aS'ERR1004213'
p2877
aS'ERR1004212'
p2878
aS'ERR1004215'
p2879
aS'ERR1004214'
p2880
aS'ERR1004217'
p2881
aS'ERR1004216'
p2882
aS'ERR1004219'
p2883
aS'ERR1004218'
p2884
aS'Irf5.2'
p2885
aS'Irf5.1'
p2886
aS'V_IRF5_04_M02873'
p2887
asS'ENSG00000105866'
p2888
(lp2889
S'V_SP4_03_M02810'
p2890
aS'V_SP4_Q5_M01273'
p2891
aS'V_SP4_04_M02914'
p2892
aS'ERR193928'
p2893
aS'ERR193929'
p2894
aS'Sp4.1'
p2895
aS'Sp4.2'
p2896
asS'ENSG00000116833'
p2897
(lp2898
S'ERR1005285'
p2899
aS'ERR1005284'
p2900
aS'ERR1005281'
p2901
aS'ERR1005280'
p2902
aS'ERR1005283'
p2903
aS'ERR1005282'
p2904
aS'V_LRH1_Q5_M01142'
p2905
aS'V_LRH1_Q5_01_M02098'
p2906
aS'ERR1005278'
p2907
asS'ENSG00000165804'
p2908
(lp2909
S'V_ZNF219_01_M01122'
p2910
asS'ENSG00000134107'
p2911
(lp2912
S'ERR1002359'
p2913
aS'ERR195112'
p2914
aS'ERR1002358'
p2915
aS'MA0464.2'
p2916
aS'ERR195111'
p2917
aS'ERR1002361'
p2918
aS'V_BHLHB2_04_M02845'
p2919
aS'ERR1002356'
p2920
aS'ERR1002357'
p2921
aS'ERR1002354'
p2922
aS'ERR195555'
p2923
aS'ERR195552'
p2924
aS'ERR195556'
p2925
aS'ERR1002360'
p2926
aS'Bhlhb2.1'
p2927
aS'Bhlhb2.2'
p2928
aS'ERR195554'
p2929
asS'ENSG00000130522'
p2930
(lp2931
S'MA0492.1'
p2932
aS'MA1143.1'
p2933
aS'MA1142.1'
p2934
ag2384
aS'MA0491.2'
p2935
ag2388
aS'ERR1004376'
p2936
aS'ERR1004377'
p2937
aS'MA1141.1'
p2938
aS'ERR1004375'
p2939
aS'ERR1004372'
p2940
aS'ERR1004373'
p2941
aS'ERR1004370'
p2942
aS'ERR1004371'
p2943
asS'ENSG00000169057'
p2944
(lp2945
S'V_MECP2_02_M01299'
p2946
aS'V_MECP2_01_M01298'
p2947
asS'ENSG00000188629'
p2948
(lp2949
S'ERR1006987'
p2950
aS'ERR1006986'
p2951
aS'ERR1006985'
p2952
aS'ERR1006984'
p2953
aS'ERR1006989'
p2954
aS'ERR1006988'
p2955
asS'ENSG00000143842'
p2956
(lp2957
S'Sox13.2'
p2958
aS'Sox13.1'
p2959
aS'V_SOX14_04_M02901'
p2960
aS'V_SOX13_03_M02797'
p2961
aS'MA1120.1'
p2962
asS'ENSG00000064489'
p2963
(lp2964
S'MA0660.1'
p2965
aS'ERR1004699'
p2966
aS'ERR1004698'
p2967
aS'ERR1004695'
p2968
aS'ERR1004694'
p2969
aS'ERR1004697'
p2970
aS'ERR1004696'
p2971
aS'ERR193832'
p2972
aS'ERR1004708'
p2973
aS'ERR1004709'
p2974
aS'ERR193833'
p2975
aS'ERR1004707'
p2976
aS'ERR1004706'
p2977
aS'ERR1004705'
p2978
aS'ERR1004704'
p2979
aS'ERR1004702'
p2980
aS'ERR1004701'
p2981
aS'ERR1004700'
p2982
asS'ENSG00000178573'
p2983
(lp2984
S'MA1520.1'
p2985
aS'ERR1004624'
p2986
aS'MA0501.1'
p2987
aS'V_MAF_Q6_01_M00983'
p2988
aS'ERR1004628'
p2989
aS'ERR1004629'
p2990
aS'V_MAF_Q6_M00648'
p2991
aS'V_VMAF_01_M00035'
p2992
aS'ERR1004623'
p2993
aS'V_CMAF_01_M01070'
p2994
aS'ERR1004625'
p2995
aS'ERR1004627'
p2996
asS'ENSG00000109381'
p2997
(lp2998
S'V_NERF_01_M01976'
p2999
aS'ERR1002846'
p3000
aS'MA1483.2'
p3001
aS'Elf2.1'
p3002
aS'ERR1002855'
p3003
aS'ERR1002854'
p3004
aS'ERR1002857'
p3005
aS'ERR1002856'
p3006
aS'V_ELF2_02_M02054'
p3007
aS'ERR1002850'
p3008
aS'ERR1002853'
p3009
aS'ERR1002852'
p3010
aS'V_NERF_Q2_M00531'
p3011
aS'ERR1002848'
p3012
aS'ERR1002849'
p3013
asS'ENSG00000197587'
p3014
(lp3015
S'Dmbx1.1'
p3016
asS'ENSG00000185811'
p3017
(lp3018
S'V_IK1_01_M00086'
p3019
aS'V_LYF1_01_M00141'
p3020
aS'V_IK_Q5_M01169'
p3021
aS'MA1508.1'
p3022
asS'ENSG00000054598'
p3023
(lp3024
S'ERR194327'
p3025
aS'V_FREAC3_01_M00291'
p3026
aS'ERR194329'
p3027
aS'ERR194328'
p3028
aS'ERR194851'
p3029
aS'ERR194850'
p3030
aS'MA0032.2'
p3031
aS'ERR194326'
p3032
asS'ENSG00000177732'
p3033
(lp3034
S'ERR1006110'
p3035
aS'V_SOX12_03_M02796'
p3036
aS'ERR1006112'
p3037
aS'ERR1006113'
p3038
aS'ERR1006114'
p3039
aS'ERR1006115'
p3040
aS'ERR1006116'
p3041
aS'ERR1006111'
p3042
aS'ERR1006117'
p3043
aS'MA1561.1'
p3044
aS'V_SOX12_04_M02900'
p3045
aS'Sox12.2'
p3046
aS'Sox12.1'
p3047
asS'ENSG00000111087'
p3048
(lp3049
S'V_GLI_Q2_M01037'
p3050
aS'V_GLI1_01_M01702'
p3051
aS'V_GLI1_Q2_M01042'
p3052
asS'ENSG00000140044'
p3053
(lp3054
S'Jundm2.2'
p3055
aS'V_JUNDM2_04_M02876'
p3056
aS'V_JUNDM2_03_M02772'
p3057
aS'Jundm2.1'
p3058
aS'MA0656.1'
p3059
aS'MA0655.1'
p3060
aS'ERR193815'
p3061
aS'ERR193816'
p3062
aS'ERR193817'
p3063
aS'ERR195663'
p3064
aS'ERR195662'
p3065
aS'ERR195664'
p3066
aS'ERR1004350'
p3067
aS'ERR1004351'
p3068
aS'ERR1004352'
p3069
aS'ERR1004353'
p3070
aS'ERR188768'
p3071
aS'ERR188769'
p3072
aS'ERR1004338'
p3073
aS'ERR1004339'
p3074
aS'ERR1004347'
p3075
aS'ERR1004346'
p3076
aS'ERR1004345'
p3077
aS'ERR1004344'
p3078
aS'ERR1004343'
p3079
aS'ERR1004342'
p3080
aS'ERR1004341'
p3081
aS'ERR1004340'
p3082
aS'ERR1004349'
p3083
aS'ERR1004348'
p3084
asS'ENSG00000164749'
p3085
(lp3086
S'MA0484.2'
p3087
asS'ENSG00000122877'
p3088
(lp3089
S'ERR194954'
p3090
aS'ERR194955'
p3091
aS'ERR194956'
p3092
aS'ERR194950'
p3093
aS'ERR194951'
p3094
aS'ERR194952'
p3095
aS'V_EGR2_01_M00246'
p3096
aS'MA0472.2'
p3097
aS'ERR1002808'
p3098
aS'ERR1002809'
p3099
aS'ERR1002802'
p3100
aS'ERR1002803'
p3101
aS'ERR1002806'
p3102
aS'ERR1002807'
p3103
aS'ERR1002804'
p3104
aS'ERR1002805'
p3105
asS'ENSG00000185697'
p3106
(lp3107
S'V_MYBL1_04_M02884'
p3108
aS'V_MYBL1_03_M02780'
p3109
aS'ERR194066'
p3110
aS'ERR194069'
p3111
aS'ERR194068'
p3112
aS'MA0776.1'
p3113
aS'Mybl1.1'
p3114
aS'Mybl1.2'
p3115
asS'ENSG00000183734'
p3116
(lp3117
S'V_ASCL2_04_M02841'
p3118
aS'Ascl2.1'
p3119
aS'Ascl2.2'
p3120
aS'ERR1002132'
p3121
aS'ERR1002122'
p3122
aS'ERR1002136'
p3123
aS'ERR1002137'
p3124
aS'ERR1002131'
p3125
aS'ERR1002135'
p3126
aS'V_ASCL2_03_M02737'
p3127
asS'ENSG00000168826'
p3128
(lp3129
S'ERR188877'
p3130
asS'ENSG00000176399'
p3131
(lp3132
S'MA1707.1'
p3133
aS'V_DMRT4_01_M01149'
p3134
aS'ERR1002688'
p3135
aS'ERR1002689'
p3136
aS'ERR1002684'
p3137
aS'ERR1002685'
p3138
aS'ERR1002686'
p3139
aS'ERR1002687'
p3140
aS'ERR1002682'
p3141
aS'ERR1002683'
p3142
asS'ENSG00000111249'
p3143
(lp3144
S'ERR194269'
p3145
aS'MA0755.1'
p3146
aS'ERR1002550'
p3147
aS'ERR1002551'
p3148
aS'ERR1002547'
p3149
aS'ERR1002546'
p3150
aS'ERR194264'
p3151
aS'ERR194265'
p3152
aS'ERR194266'
p3153
aS'ERR1002549'
p3154
aS'ERR1002548'
p3155
aS'ERR194267'
p3156
aS'ERR194268'
p3157
aS'ERR1002552'
p3158
aS'ERR1002553'
p3159
asS'ENSG00000118526'
p3160
(lp3161
S'MA1568.1'
p3162
aS'ERR195744'
p3163
aS'ERR195742'
p3164
aS'ERR195743'
p3165
aS'ERR195741'
p3166
aS'ERR1006396'
p3167
aS'ERR1006397'
p3168
aS'ERR1006395'
p3169
aS'ERR1006392'
p3170
aS'ERR1006393'
p3171
aS'ERR1006390'
p3172
aS'ERR1006391'
p3173
asS'ENSG00000139793'
p3174
(lp3175
S'ERR1004693'
p3176
asS'ENSG00000105698'
p3177
(lp3178
g996
aS'ERR1006661'
p3179
aS'MA0526.4'
p3180
aS'ERR1006655'
p3181
asS'ENSG00000185507'
p3182
(lp3183
S'ERR1004245'
p3184
aS'MA0772.1'
p3185
aS'ERR188763'
p3186
aS'ERR188764'
p3187
aS'ERR188765'
p3188
aS'ERR1004248'
p3189
aS'ERR1004246'
p3190
aS'ERR1004244'
p3191
aS'V_IRF7_01_M00453'
p3192
aS'ERR1004242'
p3193
asS'ENSG00000136931'
p3194
(lp3195
S'ERR1005274'
p3196
aS'V_SF1_Q6_01_M01132'
p3197
asS'ENSG00000153779'
p3198
(lp3199
S'ERR193949'
p3200
aS'ERR1006583'
p3201
aS'ERR1006582'
p3202
aS'ERR1006581'
p3203
aS'MA1571.1'
p3204
aS'ERR1006585'
p3205
aS'ERR1006584'
p3206
asS'ENSG00000135625'
p3207
(lp3208
S'V_NGFIC_01_M00244'
p3209
aS'ERR194280'
p3210
aS'MA0733.1'
p3211
aS'ERR1002818'
p3212
aS'ERR194281'
p3213
aS'ERR1002819'
p3214
aS'ERR194279'
p3215
aS'ERR1002824'
p3216
aS'ERR1002825'
p3217
aS'ERR195168'
p3218
aS'ERR1002820'
p3219
aS'ERR1002821'
p3220
aS'ERR1002822'
p3221
aS'ERR1002823'
p3222
asS'ENSG00000169689'
p3223
(lp3224
S'V_STRA13_01_M00985'
p3225
asS'ENSG00000188620'
p3226
(lp3227
S'Hmx3.1'
p3228
aS'V_HMX3_02_M01413'
p3229
aS'ERR194353'
p3230
aS'ERR194350'
p3231
aS'ERR194351'
p3232
aS'ERR194349'
p3233
asS'ENSG00000182568'
p3234
(lp3235
S'V_SATB1_Q3_M01723'
p3236
aS'V_SATB1_01_M01232'
p3237
aS'MA1963.1'
p3238
asS'ENSG00000069011'
p3239
(lp3240
S'V_PITX1_Q6_M01826'
p3241
aS'Pitx1.1'
p3242
aS'V_PITX1_01_M01484'
p3243
aS'ERR194089'
p3244
asS'ENSG00000081059'
p3245
(lp3246
S'Tcf7.2'
p3247
aS'ERR1006408'
p3248
aS'Tcf7.1'
p3249
aS'ERR1006411'
p3250
aS'ERR1006410'
p3251
aS'ERR1006413'
p3252
aS'ERR1006412'
p3253
aS'ERR1006406'
p3254
aS'ERR1006407'
p3255
aS'V_TCF7_03_M02817'
p3256
aS'V_TCF7_04_M02921'
p3257
aS'ERR1006409'
p3258
aS'MA0769.2'
p3259
asS'ENSG00000170370'
p3260
(lp3261
S'ERR1002958'
p3262
aS'ERR1002960'
p3263
aS'MA0886.1'
p3264
aS'ERR1002959'
p3265
aS'ERR1002954'
p3266
aS'ERR1002955'
p3267
aS'ERR1002956'
p3268
aS'ERR1002957'
p3269
aS'ERR194299'
p3270
aS'ERR194298'
p3271
aS'ERR1002961'
p3272
aS'Emx2.1'
p3273
aS'V_EMX2_01_M01461'
p3274
aS'ERR194297'
p3275
aS'ERR194296'
p3276
aS'ERR194294'
p3277
asS'ENSG00000072310'
p3278
(lp3279
S'ERR1006277'
p3280
aS'V_SREBP1_02_M00221'
p3281
aS'ERR195736'
p3282
aS'V_SREBP1_01_M00220'
p3283
aS'V_SREBP_Q3_M00776'
p3284
aS'MA0595.1'
p3285
aS'V_SREBP_Q6_M01168'
p3286
aS'V_SREBP1_Q5_M01173'
p3287
aS'ERR1006275'
p3288
aS'ERR1006274'
p3289
aS'ERR195735'
p3290
aS'ERR195734'
p3291
aS'ERR1006270'
p3292
aS'ERR1006273'
p3293
aS'ERR1006272'
p3294
aS'MA0829.2'
p3295
aS'ERR1006276'
p3296
asS'ENSG00000257315'
p3297
(lp3298
S'V_ZBED6_01_M01598'
p3299
asS'ENSG00000117010'
p3300
(lp3301
S'MA1600.1'
p3302
aS'ERR1007199'
p3303
aS'ERR1007198'
p3304
aS'ERR1007201'
p3305
aS'ERR1007200'
p3306
asS'ENSG00000105732'
p3307
(lp3308
S'MA1982.1'
p3309
asS'ENSG00000278570'
p3310
(lp3311
S'V_PNR_01_M01650'
p3312
asS'ENSG00000084093'
p3313
(lp3314
S'V_NRSE_B_M00325'
p3315
aS'V_NRSF_01_M00256'
p3316
aS'V_REST_01_M01256'
p3317
aS'V_NRSF_Q4_M01028'
p3318
aS'V_REST_02_M02256'
p3319
aS'MA0138.2'
p3320
asS'ENSG00000213928'
p3321
(lp3322
S'ERR1004270'
p3323
aS'V_ISGF3G_03_M02771'
p3324
aS'ERR195008'
p3325
aS'V_ISGF4G_04_M02875'
p3326
aS'ERR195007'
p3327
aS'ERR1004267'
p3328
aS'ERR195006'
p3329
aS'ERR1004266'
p3330
aS'Isgf3g.2'
p3331
aS'ERR1004273'
p3332
aS'ERR1004272'
p3333
aS'ERR1004271'
p3334
aS'MA0653.1'
p3335
aS'ERR1004268'
p3336
aS'ERR1004269'
p3337
aS'V_ISRE_01_M00258'
p3338
aS'Isgf3g.1'
p3339
asS'ENSG00000186951'
p3340
(lp3341
g2588
ag2568
ag2573
ag2571
ag2583
asS'ENSG00000145321'
p3342
(lp3343
S'V_GC_01_M00255'
p3344
asS'ENSG00000137992'
p3345
(lp3346
S'V_E2_Q6_M00181'
p3347
aS'V_E2_01_M00107'
p3348
aS'V_E2_Q6_01_M00928'
p3349
asS'ENSG00000109705'
p3350
(lp3351
S'Bapx1.1'
p3352
aS'V_NKX32_02_M01482'
p3353
asS'ENSG00000177606'
p3354
(lp3355
g1643
aS'MA0488.1'
p3356
ag2387
aS'MA1133.1'
p3357
aS'MA1129.1'
p3358
aS'MA1128.1'
p3359
ag2385
aS'V_AP1_Q6_01_M00925'
p3360
aS'V_AP1_01_M00517'
p3361
aS'MA1126.1'
p3362
aS'MA1132.1'
p3363
ag1738
aS'V_AP1_Q4_M00188'
p3364
aS'MA1127.1'
p3365
aS'V_MEQCJUN_02_M02048'
p3366
aS'MA0099.3'
p3367
aS'V_AP1_Q6_M00174'
p3368
aS'V_AP1_Q4_01_M00926'
p3369
aS'V_VJUN_01_M00036'
p3370
aS'V_AP1_C_M00199'
p3371
aS'ERR1004359'
p3372
aS'V_AP1_Q2_M00173'
p3373
aS'V_AP1_Q2_01_M00924'
p3374
aS'V_AP1FJ_Q2_M00172'
p3375
aS'ERR1004361'
p3376
aS'ERR1004360'
p3377
asS'ENSG00000164107'
p3378
(lp3379
S'MA1638.1'
p3380
asS'ENSG00000213015'
p3381
(lp3382
S'ERR1007176'
p3383
aS'ERR1007177'
p3384
aS'ERR1007175'
p3385
aS'ERR1007174'
p3386
aS'ERR1007164'
p3387
aS'ERR1007165'
p3388
aS'ERR1007168'
p3389
asS'ENSG00000141448'
p3390
(lp3391
S'V_GATA6_01_M00462'
p3392
aS'ERR1003473'
p3393
aS'V_GATA6_05_M02861'
p3394
aS'MA1104.2'
p3395
aS'V_GATA6_04_M02757'
p3396
aS'Gata6.1'
p3397
aS'Gata6.2'
p3398
asS'ENSG00000164916'
p3399
(lp3400
S'Foxk1.2'
p3401
aS'ERR194757'
p3402
aS'V_FOXK1_04_M02856'
p3403
aS'Foxk1.1'
p3404
aS'ERR194836'
p3405
aS'ERR194835'
p3406
aS'V_FOXK1_03_M02752'
p3407
aS'ERR194758'
p3408
aS'MA0852.2'
p3409
asS'ENSG00000187079'
p3410
(lp3411
S'ERR195070'
p3412
aS'ERR195072'
p3413
aS'V_TEF1_Q6_03_M01817'
p3414
aS'MA0090.3'
p3415
asS'ENSG00000111012'
p3416
(lp3417
S'ERR195764'
p3418
ag2572
aS'ERR195763'
p3419
aS'ERR188863'
p3420
aS'ERR188862'
p3421
aS'ERR188865'
p3422
aS'V_VDR_Q3_M00444'
p3423
aS'ERR188864'
p3424
aS'V_VDR_Q6_M00961'
p3425
ag2579
ag2589
asS'ENSG00000136327'
p3426
(lp3427
S'V_NKX29_01_M01352'
p3428
asS'ENSG00000171872'
p3429
(lp3430
S'MA1514.1'
p3431
aS'ERR1004452'
p3432
aS'ERR1004451'
p3433
aS'ERR1004450'
p3434
asS'ENSG00000170653'
p3435
(lp3436
S'ERR1002202'
p3437
aS'ERR1002204'
p3438
aS'ERR1002205'
p3439
aS'ERR1002206'
p3440
aS'ERR1002207'
p3441
aS'ERR1002208'
p3442
aS'ERR1002209'
p3443
aS'ERR194242'
p3444
aS'ERR194243'
p3445
aS'ERR194244'
p3446
aS'ERR194245'
p3447
aS'MA0834.1'
p3448
asS'ENSG00000107249'
p3449
(lp3450
S'ERR194622'
p3451
aS'ERR194620'
p3452
aS'ERR194621'
p3453
aS'V_ZNF515_01_M01231'
p3454
aS'ERR194624'
p3455
aS'MA0737.1'
p3456
asS'ENSG00000105996'
p3457
(lp3458
S'ERR1003816'
p3459
aS'ERR1003817'
p3460
aS'ERR1003807'
p3461
aS'Hoxa2.1'
p3462
ag959
aS'ERR194048'
p3463
aS'V_HOXA2_01_M01402'
p3464
aS'MA0900.2'
p3465
asS'ENSG00000122180'
p3466
(lp3467
S'ERR1004897'
p3468
aS'ERR1004896'
p3469
aS'ERR1004895'
p3470
aS'ERR1004894'
p3471
aS'ERR1004906'
p3472
aS'ERR1004899'
p3473
aS'ERR1004898'
p3474
aS'ERR1004901'
p3475
aS'ERR1004900'
p3476
aS'ERR1004903'
p3477
aS'ERR1004902'
p3478
aS'ERR1004905'
p3479
aS'ERR1004904'
p3480
aS'ERR1004907'
p3481
aS'MA0500.2'
p3482
aS'ERR1004909'
p3483
aS'ERR1004908'
p3484
asS'ENSG00000126368'
p3485
(lp3486
S'ERR1005159'
p3487
aS'ERR1005158'
p3488
aS'ERR1005160'
p3489
aS'ERR1005161'
p3490
aS'ERR1005157'
p3491
aS'ERR1005156'
p3492
aS'MA1531.1'
p3493
asS'ENSG00000197124'
p3494
(lp3495
S'MA1599.1'
p3496
asS'ENSG00000120798'
p3497
(lp3498
S'MA1535.1'
p3499
aS'ERR1005190'
p3500
aS'ERR1005188'
p3501
aS'ERR1005192'
p3502
asS'ENSG00000187098'
p3503
(lp3504
S'MA0620.3'
p3505
asS'ENSG00000160685'
p3506
(lp3507
S'ERR188881'
p3508
aS'ERR188880'
p3509
aS'V_ZBTB7B_03_M02826'
p3510
aS'V_ZBTB7B_04_M02930'
p3511
aS'ERR1006882'
p3512
aS'ERR1006880'
p3513
aS'MA0694.1'
p3514
aS'Zbtb7b.2'
p3515
aS'Zbtb7b.1'
p3516
asS'ENSG00000170577'
p3517
(lp3518
S'V_SIX2_01_M01433'
p3519
aS'MA1119.1'
p3520
aS'ERR1005996'
p3521
aS'ERR1005993'
p3522
aS'Six2.1'
p3523
asS'ENSG00000161940'
p3524
(lp3525
S'ERR188689'
p3526
aS'Bcl6b.2'
p3527
aS'ERR1002318'
p3528
aS'MA0731.1'
p3529
aS'Bcl6b.1'
p3530
aS'ERR1002319'
p3531
aS'ERR1002321'
p3532
aS'ERR1002320'
p3533
aS'ERR1002314'
p3534
aS'V_BCL6B_03_M02740'
p3535
aS'ERR1002316'
p3536
aS'ERR1002317'
p3537
aS'V_BCL6B_04_M02844'
p3538
aS'ERR1002315'
p3539
asS'ENSG00000197905'
p3540
(lp3541
S'ERR195500'
p3542
aS'ERR195498'
p3543
aS'MA0809.2'
p3544
aS'ERR195499'
p3545
asS'ENSG00000135547'
p3546
(lp3547
S'ERR194033'
p3548
aS'ERR194032'
p3549
aS'MA0649.1'
p3550
aS'ERR1003690'
p3551
aS'ERR1003686'
p3552
aS'ERR1003683'
p3553
aS'ERR1003695'
p3554
aS'ERR1003696'
p3555
aS'ERR1003697'
p3556
aS'ERR1003694'
p3557
aS'ERR195235'
p3558
aS'ERR1003688'
p3559
asS'ENSG00000257923'
p3560
(lp3561
S'V_CLOX_01_M00103'
p3562
aS'V_CDP_01_M00095'
p3563
aS'V_CUX1_04_M02959'
p3564
aS'Cutl1.1'
p3565
aS'Cutl1.2'
p3566
aS'ERR194263'
p3567
aS'V_CDPCR1_01_M00104'
p3568
aS'V_CDP_04_M01344'
p3569
aS'V_CDP_02_M00102'
p3570
aS'MA0754.2'
p3571
aS'ERR194262'
p3572
aS'ERR1002542'
p3573
aS'ERR194260'
p3574
aS'ERR194261'
p3575
aS'V_CDP_03_M01342'
p3576
aS'V_CDPCR3_01_M00105'
p3577
aS'V_CDPCR3HD_01_M00106'
p3578
aS'ERR1002539'
p3579
aS'V_CUX1_03_M02958'
p3580
aS'ERR194259'
p3581
aS'ERR1002544'
p3582
asS'ENSG00000196646'
p3583
(lp3584
S'MA1588.1'
p3585
asS'ENSG00000188816'
p3586
(lp3587
S'Hmx2.1'
p3588
aS'ERR1003739'
p3589
aS'ERR195240'
p3590
aS'V_NKX52_01_M01315'
p3591
aS'ERR195239'
p3592
aS'ERR1003742'
p3593
aS'ERR1003740'
p3594
aS'ERR1003744'
p3595
aS'ERR1003745'
p3596
asS'ENSG00000173253'
p3597
(lp3598
S'V_DMRT2_01_M01147'
p3599
asS'ENSG00000185670'
p3600
(lp3601
S'V_ZBTB4_04_M02929'
p3602
aS'Zbtb3.1'
p3603
aS'Zbtb3.2'
p3604
aS'V_ZBTB3_03_M02825'
p3605
asS'ENSG00000162924'
p3606
(lp3607
S'V_CREL_01_M00053'
p3608
aS'MA0101.1'
p3609
asS'ENSG00000101096'
p3610
(lp3611
S'V_NFAT_Q6_M00302'
p3612
aS'ERR1004981'
p3613
aS'ERR1004980'
p3614
aS'ERR1004983'
p3615
aS'ERR1004982'
p3616
aS'ERR1004985'
p3617
aS'ERR1004984'
p3618
asS'ENSG00000164900'
p3619
(lp3620
S'MA0889.1'
p3621
aS'Gbx1.1'
p3622
aS'ERR195196'
p3623
aS'ERR194768'
p3624
aS'ERR195195'
p3625
aS'V_GBX1_01_M01371'
p3626
aS'ERR194766'
p3627
aS'ERR194765'
p3628
asS'ENSG00000115507'
p3629
(lp3630
S'V_OTX1_01_M01366'
p3631
aS'V_OTX_Q1_M01117'
p3632
aS'Otx1.1'
p3633
aS'MA0711.1'
p3634
aS'ERR188802'
p3635
aS'ERR188805'
p3636
asS'ENSG00000094916'
p3637
(lp3638
S'V_HP1SITEFACTOR_Q6_M00725'
p3639
asS'ENSG00000137270'
p3640
(lp3641
S'V_GCM1_04_M02862'
p3642
aS'ERR193797'
p3643
aS'ERR193796'
p3644
aS'MA0646.1'
p3645
aS'V_GCM_Q2_M00634'
p3646
aS'V_GCM1_03_M02758'
p3647
aS'Gcm1.1'
p3648
aS'Gcm1.2'
p3649
asS'ENSG00000139800'
p3650
(lp3651
S'MA1584.1'
p3652
aS'ERR1006954'
p3653
aS'ERR1006955'
p3654
aS'ERR1006956'
p3655
aS'ERR1006957'
p3656
aS'ERR1006950'
p3657
aS'ERR1006951'
p3658
aS'ERR1006952'
p3659
aS'ERR1006953'
p3660
asS'ENSG00000176842'
p3661
(lp3662
S'Irx5.1'
p3663
aS'V_IRX5_01_M01472'
p3664
asS'ENSG00000137273'
p3665
(lp3666
S'V_FREAC2_01_M00290'
p3667
aS'MA0030.1'
p3668
asS'ENSG00000149050'
p3669
(lp3670
S'MA1975.1'
p3671
asS'ENSG00000198176'
p3672
(lp3673
S'MA1122.1'
p3674
asS'ENSG00000181135'
p3675
(lp3676
S'MA1715.1'
p3677
asS'ENSG00000106571'
p3678
(lp3679
S'ERR1003531'
p3680
aS'ERR1003530'
p3681
aS'ERR1003533'
p3682
aS'ERR1003532'
p3683
aS'ERR1003535'
p3684
aS'V_GLI3_01_M01596'
p3685
aS'ERR1003537'
p3686
aS'ERR1003536'
p3687
aS'V_GLI3_Q5_01_M01657'
p3688
aS'MA1491.2'
p3689
aS'V_GLI3_02_M01704'
p3690
aS'ERR1003534'
p3691
asS'ENSG00000125952'
p3692
(lp3693
S'ERR1004673'
p3694
ag781
aS'ERR1004677'
p3695
aS'ERR1004676'
p3696
aS'ERR1004675'
p3697
aS'ERR1004674'
p3698
aS'ERR1004678'
p3699
aS'V_MAX_01_M00119'
p3700
aS'ERR1004684'
p3701
aS'ERR1004685'
p3702
aS'ERR1004683'
p3703
aS'ERR1004681'
p3704
ag785
ag788
aS'V_MAX_04_M02881'
p3705
aS'Max.1'
p3706
aS'Max.2'
p3707
aS'V_MAX_Q6_M01830'
p3708
aS'ERR195308'
p3709
aS'MA0058.3'
p3710
ag786
ag784
asS'ENSG00000166823'
p3711
(lp3712
S'ERR195320'
p3713
asS'ENSG00000205927'
p3714
(lp3715
S'MA0678.1'
p3716
aS'ERR1005313'
p3717
aS'ERR1005312'
p3718
aS'ERR1005311'
p3719
aS'ERR1005310'
p3720
aS'ERR1005317'
p3721
aS'ERR1005316'
p3722
aS'ERR1005315'
p3723
aS'ERR193879'
p3724
aS'ERR193881'
p3725
aS'ERR193880'
p3726
aS'ERR1005314'
p3727
aS'ERR195355'
p3728
aS'ERR195354'
p3729
aS'ERR195356'
p3730
asS'ENSG00000165462'
p3731
(lp3732
S'Phox2a.1'
p3733
aS'ERR195400'
p3734
aS'MA0713.1'
p3735
aS'ERR1005543'
p3736
aS'ERR195399'
p3737
aS'ERR195398'
p3738
aS'ERR1005548'
p3739
aS'ERR1005549'
p3740
aS'ERR1005547'
p3741
aS'ERR195397'
p3742
aS'ERR1005542'
p3743
aS'ERR1005544'
p3744
aS'V_PMX2A_01_M01444'
p3745
asS'ENSG00000205922'
p3746
(lp3747
S'ERR1005368'
p3748
aS'ERR1005366'
p3749
aS'ERR1005370'
p3750
aS'ERR1005372'
p3751
aS'ERR195366'
p3752
aS'ERR195367'
p3753
aS'ERR195368'
p3754
aS'MA0757.1'
p3755
asS'ENSG00000125813'
p3756
(lp3757
S'MA0779.1'
p3758
aS'ERR1005439'
p3759
aS'ERR1005445'
p3760
aS'V_PAX1_B_M00326'
p3761
aS'ERR1005444'
p3762
aS'ERR1005443'
p3763
aS'ERR1005442'
p3764
aS'ERR1005441'
p3765
aS'ERR1005440'
p3766
aS'ERR195376'
p3767
aS'ERR195375'
p3768
aS'ERR1005438'
p3769
asS'ENSG00000092607'
p3770
(lp3771
S'ERR194512'
p3772
aS'ERR1006317'
p3773
aS'ERR1006314'
p3774
aS'ERR1006312'
p3775
aS'ERR1006313'
p3776
aS'ERR1006310'
p3777
aS'ERR1006311'
p3778
aS'ERR194514'
p3779
aS'ERR194515'
p3780
aS'V_TBX15_01_M01263'
p3781
aS'V_TBX15_02_M01264'
p3782
aS'ERR194513'
p3783
asS'ENSG00000172819'
p3784
(lp3785
S'ERR1005807'
p3786
aS'ERR195456'
p3787
aS'ERR195454'
p3788
aS'ERR195455'
p3789
aS'ERR1005806'
p3790
aS'ERR195722'
p3791
aS'ERR195723'
p3792
aS'ERR195724'
p3793
aS'ERR1005809'
p3794
aS'ERR193909'
p3795
aS'MA1553.1'
p3796
aS'ERR193908'
p3797
asS'ENSG00000172818'
p3798
(lp3799
S'ERR1005421'
p3800
aS'ERR1005420'
p3801
aS'ERR1005416'
p3802
aS'ERR1005417'
p3803
aS'ERR1005418'
p3804
aS'ERR1005419'
p3805
aS'MA1544.1'
p3806
asS'ENSG00000125817'
p3807
(lp3808
S'ERR193692'
p3809
aS'ERR193693'
p3810
aS'ERR193691'
p3811
asS'ENSG00000125816'
p3812
(lp3813
S'V_NKX24_01_M01350'
p3814
asS'ENSG00000285438'
p3815
(lp3816
S'ERR1006173'
p3817
aS'V_SOX7_03_M02807'
p3818
aS'ERR1006166'
p3819
aS'V_SOX7_04_M02911'
p3820
aS'ERR1006172'
p3821
aS'Sox7.1'
p3822
aS'ERR1006170'
p3823
aS'ERR1006171'
p3824
aS'ERR194109'
p3825
aS'ERR194108'
p3826
aS'ERR1006169'
p3827
aS'ERR1006168'
p3828
aS'Sox7.2'
p3829
asS'ENSG00000221869'
p3830
(lp3831
S'MA0836.2'
p3832
aS'ERR195139'
p3833
aS'ERR195138'
p3834
aS'ERR195140'
p3835
aS'ERR1002415'
p3836
aS'ERR1002414'
p3837
aS'ERR1002417'
p3838
aS'ERR1002416'
p3839
aS'ERR1002411'
p3840
aS'ERR1002410'
p3841
aS'ERR1002413'
p3842
aS'ERR1002412'
p3843
aS'V_CEBPD_Q6_M00621'
p3844
asS'ENSG00000182141'
p3845
(lp3846
S'MA1730.1'
p3847
asS'ENSG00000169981'
p3848
(lp3849
S'Zfp105.2'
p3850
aS'Zfp105.1'
p3851
asS'ENSG00000112592'
p3852
(lp3853
S'V_TATA_01_M00252'
p3854
aS'Tbp.1'
p3855
aS'V_TATA_C_M00216'
p3856
aS'Tbp.2'
p3857
aS'V_TBP_04_M02918'
p3858
aS'V_TBP_01_M00471'
p3859
aS'V_TBP_06_M02814'
p3860
asS'ENSG00000134532'
p3861
(lp3862
S'Sox5.2'
p3863
aS'Sox5.1'
p3864
aS'V_SOX5_04_M02910'
p3865
aS'V_SOX5_01_M00042'
p3866
asS'ENSG00000123685'
p3867
(lp3868
S'ERR1002279'
p3869
aS'ERR1002277'
p3870
aS'ERR188685'
p3871
aS'ERR1002288'
p3872
aS'ERR1002289'
p3873
aS'ERR1002278'
p3874
aS'ERR1002275'
p3875
aS'ERR1002274'
p3876
aS'MA0835.2'
p3877
aS'ERR1002276'
p3878
aS'ERR1002280'
p3879
aS'ERR1002281'
p3880
aS'ERR1002282'
p3881
aS'ERR1002283'
p3882
aS'ERR1002284'
p3883
aS'ERR1002285'
p3884
aS'ERR1002286'
p3885
aS'ERR1002287'
p3886
asS'ENSG00000244617'
p3887
(lp3888
S'V_POLY_C_M00212'
p3889
asS'ENSG00000136492'
p3890
(lp3891
S'V_BACH1_01_M00495'
p3892
aS'MA1633.2'
p3893
asS'ENSG00000116017'
p3894
(lp3895
S'V_ARID3A_04_M02735'
p3896
aS'V_ARID3A_02_M02839'
p3897
aS'Arid3a.1'
p3898
aS'Arid3a.2'
p3899
asS'ENSG00000116016'
p3900
(lp3901
S'ERR194697'
p3902
aS'ERR1003706'
p3903
aS'ERR1003707'
p3904
aS'ERR193704'
p3905
aS'ERR193703'
p3906
aS'MA0043.3'
p3907
aS'ERR193705'
p3908
aS'V_HLF_01_M00260'
p3909
aS'ERR194696'
p3910
aS'ERR1003711'
p3911
aS'ERR1003710'
p3912
aS'ERR1003713'
p3913
aS'ERR1003712'
p3914
aS'ERR1003708'
p3915
aS'ERR1003709'
p3916
asS'ENSG00000169016'
p3917
(lp3918
S'MA0471.2'
p3919
aS'V_E2F6_01_M01252'
p3920
asS'ENSG00000173275'
p3921
(lp3922
S'ERR1007128'
p3923
aS'ERR1007129'
p3924
aS'MA1656.1'
p3925
aS'ERR1007131'
p3926
aS'ERR1007130'
p3927
aS'ERR1007133'
p3928
aS'ERR1007132'
p3929
aS'ERR1007126'
p3930
asS'ENSG00000102145'
p3931
(lp3932
S'V_GATA1_Q6_M02004'
p3933
aS'V_TAL1::GATA1_01_M02243'
p3934
aS'V_GATA1_03_M00127'
p3935
aS'MA0035.4'
p3936
aS'V_GATA1_04_M00128'
p3937
aS'V_GATA1_05_M00346'
p3938
aS'V_GATA1_09_M02254'
p3939
aS'V_GATA1_02_M00126'
p3940
aS'V_GATA1_01_M00075'
p3941
aS'V_GATA1_06_M00347'
p3942
aS'V_GATA_C_M00203'
p3943
aS'MA0140.2'
p3944
asS'ENSG00000236104'
p3945
(lp3946
S'ERR1006817'
p3947
aS'ERR1006816'
p3948
aS'ERR1006819'
p3949
aS'ERR1006818'
p3950
aS'ERR1006820'
p3951
aS'ERR1006821'
p3952
asS'ENSG00000160113'
p3953
(lp3954
S'ERR193877'
p3955
aS'ERR195704'
p3956
aS'ERR195351'
p3957
aS'ERR195350'
p3958
aS'ERR195352'
p3959
aS'ERR1005230'
p3960
aS'ERR1005231'
p3961
aS'ERR1005232'
p3962
aS'ERR1005233'
p3963
aS'ERR193876'
p3964
aS'MA1539.1'
p3965
aS'ERR193874'
p3966
aS'ERR193875'
p3967
aS'V_EAR2_Q2_M01728'
p3968
aS'ERR1005227'
p3969
aS'ERR1005226'
p3970
aS'ERR1005225'
p3971
aS'ERR1005224'
p3972
aS'ERR1005223'
p3973
aS'ERR1005222'
p3974
aS'ERR195703'
p3975
aS'ERR1005229'
p3976
aS'ERR1005228'
p3977
asS'ENSG00000214717'
p3978
(lp3979
S'ERR195084'
p3980
aS'ERR1006764'
p3981
aS'ERR1006762'
p3982
aS'ERR195083'
p3983
aS'ERR195082'
p3984
aS'ERR1006760'
p3985
aS'MA0749.1'
p3986
aS'ERR1006758'
p3987
asS'ENSG00000180806'
p3988
(lp3989
S'MA0485.2'
p3990
aS'ERR1004020'
p3991
aS'V_HOXC9_01_M01416'
p3992
aS'ERR1004017'
p3993
aS'ERR1004016'
p3994
aS'ERR1004014'
p3995
aS'Hoxc9.1'
p3996
aS'ERR1004021'
p3997
aS'ERR1004019'
p3998
aS'ERR1004018'
p3999
asS'ENSG00000102034'
p4000
(lp4001
S'ERR1002880'
p4002
aS'ERR1002881'
p4003
aS'ERR1002879'
p4004
aS'ERR1002877'
p4005
aS'V_ELF4_02_M02056'
p4006
aS'V_ELF4_01_M01979'
p4007
aS'MA0641.1'
p4008
aS'Elf4.1'
p4009
asS'ENSG00000105880'
p4010
(lp4011
S'ERR194832'
p4012
aS'V_DLX5_01_M01388'
p4013
aS'Dlx5.1'
p4014
aS'ERR194831'
p4015
asS'ENSG00000109851'
p4016
(lp4017
S'V_DBX1_01_M01483'
p4018
aS'Hlx1.1'
p4019
aS'Dbx1.1'
p4020
asS'ENSG00000161405'
p4021
(lp4022
S'V_IK3_01_M00088'
p4023
asS'ENSG00000173041'
p4024
(lp4025
S'MA1729.1'
p4026
asS'ENSG00000177463'
p4027
(lp4028
S'ERR195697'
p4029
aS'V_TR4_03_M01782'
p4030
aS'ERR195698'
p4031
aS'MA1536.1'
p4032
aS'ERR195699'
p4033
aS'V_TR4_Q2_M01725'
p4034
aS'MA0504.1'
p4035
aS'ERR195700'
p4036
asS'ENSG00000150907'
p4037
(lp4038
S'MA1936.1'
p4039
ag951
aS'V_FOXO1_01_M00473'
p4040
aS'MA1955.1'
p4041
aS'V_FOXO1_02_M00474'
p4042
aS'V_FOXO1_04_M01969'
p4043
aS'ERR194015'
p4044
aS'V_FOXO1_Q5_M01216'
p4045
aS'ERR194016'
p4046
ag2359
aS'MA1953.1'
p4047
aS'MA1954.1'
p4048
aS'ERR194017'
p4049
asS'ENSG00000181827'
p4050
(lp4051
S'ERR1005872'
p4052
aS'ERR1005867'
p4053
aS'V_RFXDC2_04_M02894'
p4054
aS'ERR1005869'
p4055
aS'ERR1005870'
p4056
aS'ERR1005871'
p4057
aS'V_RFXDC2_03_M02790'
p4058
aS'ERR1005866'
p4059
aS'MA1554.1'
p4060
aS'ERR1005868'
p4061
aS'Rfxdc2.2'
p4062
asS'ENSG00000177468'
p4063
(lp4064
S'ERR195360'
p4065
aS'ERR1005319'
p4066
aS'ERR1005318'
p4067
aS'ERR1005323'
p4068
aS'ERR1005331'
p4069
aS'ERR1005330'
p4070
aS'ERR195359'
p4071
aS'ERR1005333'
p4072
aS'MA0827.1'
p4073
aS'ERR1005322'
p4074
aS'ERR1005320'
p4075
aS'ERR1005321'
p4076
aS'ERR1005326'
p4077
aS'ERR1005327'
p4078
aS'ERR1005324'
p4079
aS'ERR1005325'
p4080
aS'ERR1005328'
p4081
aS'ERR1005329'
p4082
aS'ERR1005332'
p4083
aS'ERR195357'
p4084
aS'ERR195358'
p4085
asS'ENSG00000180613'
p4086
(lp4087
S'V_GSH2_01_M01326'
p4088
aS'ERR1003609'
p4089
aS'ERR1003608'
p4090
aS'ERR1003611'
p4091
aS'ERR1003612'
p4092
aS'ERR1003613'
p4093
aS'ERR195221'
p4094
aS'Gsh2.1'
p4095
aS'MA0893.2'
p4096
aS'ERR195224'
p4097
asS'ENSG00000065978'
p4098
(lp4099
S'ERR1006734'
p4100
aS'ERR1006740'
p4101
asS'ENSG00000136870'
p4102
(lp4103
S'MA1725.1'
p4104
asS'ENSG00000139515'
p4105
(lp4106
S'Ipf1.1'
p4107
asS'ENSG00000119574'
p4108
(lp4109
S'ERR1006868'
p4110
aS'ERR1006869'
p4111
aS'ERR1006864'
p4112
aS'ERR1006865'
p4113
aS'ERR1006866'
p4114
aS'ERR1006867'
p4115
aS'ERR1006862'
p4116
aS'ERR1006863'
p4117
asS'ENSG00000159216'
p4118
(lp4119
S'V_RUNX1_01_M02257'
p4120
asS'ENSG00000154727'
p4121
(lp4122
S'V_GABPA_04_M02858'
p4123
aS'V_GADP_01_M01258'
p4124
aS'Gabpa.2'
p4125
aS'Gabpa.3'
p4126
aS'V_GABPA_01_M02039'
p4127
aS'V_GABPA_02_M02074'
p4128
aS'MA0062.3'
p4129
aS'ERR1003416'
p4130
aS'ERR1003417'
p4131
aS'ERR1003414'
p4132
aS'ERR1003415'
p4133
aS'ERR1003412'
p4134
aS'ERR1003413'
p4135
aS'ERR1003411'
p4136
asS'ENSG00000179111'
p4137
(lp4138
S'ERR1003654'
p4139
aS'MA0822.1'
p4140
aS'ERR194884'
p4141
aS'ERR1003658'
p4142
aS'ERR194883'
p4143
asS'ENSG00000275410'
p4144
(lp4145
S'Tcf2.1'
p4146
aS'ERR195002'
p4147
aS'ERR195004'
p4148
aS'ERR195001'
p4149
aS'V_HNF1B_04_M02266'
p4150
aS'ERR195003'
p4151
aS'V_HNF1B_01_M01425'
p4152
aS'MA0153.2'
p4153
asS'ENSG00000163132'
p4154
(lp4155
S'ERR1004834'
p4156
aS'ERR1004837'
p4157
aS'ERR1004836'
p4158
aS'V_MSX1_02_M01412'
p4159
aS'Msx1.1'
p4160
aS'ERR1004838'
p4161
aS'ERR194417'
p4162
aS'ERR194416'
p4163
aS'ERR194419'
p4164
aS'V_MSX1_01_M00394'
p4165
aS'MA0666.2'
p4166
asS'ENSG00000173039'
p4167
(lp4168
S'V_P50RELAP65_Q5_01_M01224'
p4169
aS'MA0107.1'
p4170
asS'ENSG00000001167'
p4171
(lp4172
S'MA0060.3'
p4173
aS'V_NFY_01_M00287'
p4174
aS'V_NFY_Q6_01_M00775'
p4175
aS'V_NFY_C_M00209'
p4176
aS'V_ALPHACP1_01_M00687'
p4177
aS'V_NFYA_Q5_M02106'
p4178
aS'V_NFY_Q6_M00185'
p4179
asS'ENSG00000174332'
p4180
(lp4181
S'ERR194818'
p4182
aS'ERR1003539'
p4183
aS'ERR1003538'
p4184
aS'MA0735.1'
p4185
aS'ERR194816'
p4186
aS'ERR1003540'
p4187
aS'ERR1003541'
p4188
aS'ERR1003542'
p4189
aS'ERR1003543'
p4190
aS'ERR1003544'
p4191
aS'ERR1003545'
p4192
aS'ERR194817'
p4193
asS'ENSG00000197063'
p4194
(lp4195
S'ERR194396'
p4196
aS'ERR194397'
p4197
aS'ERR1004659'
p4198
aS'ERR1004654'
p4199
aS'V_TCF11MAFG_01_M00284'
p4200
aS'ERR1004655'
p4201
aS'ERR1004666'
p4202
aS'ERR1004660'
p4203
aS'ERR1004661'
p4204
aS'ERR194398'
p4205
aS'ERR194399'
p4206
aS'ERR1004664'
p4207
aS'ERR194400'
p4208
aS'MA0089.2'
p4209
asS'ENSG00000197062'
p4210
(lp4211
S'V_ZFP187_03_M02830'
p4212
aS'V_ZFP187_04_M02934'
p4213
aS'Zfp187.1'
p4214
aS'Zfp187.2'
p4215
asS'ENSG00000163497'
p4216
(lp4217
S'ERR1003172'
p4218
aS'ERR1003171'
p4219
aS'V_PET1_01_M02037'
p4220
aS'V_FEV_01_M02269'
p4221
aS'MA0156.3'
p4222
aS'ERR195597'
p4223
aS'ERR1003173'
p4224
aS'V_PET1_02_M02072'
p4225
aS'ERR1003175'
p4226
aS'ERR1003174'
p4227
aS'ERR1003177'
p4228
aS'ERR1003176'
p4229
aS'ERR195600'
p4230
aS'ERR195599'
p4231
aS'ERR195598'
p4232
asS'ENSG00000064218'
p4233
(lp4234
S'V_DMRT3_01_M01148'
p4235
aS'ERR1002680'
p4236
aS'ERR1002679'
p4237
aS'ERR1002678'
p4238
aS'ERR1002675'
p4239
aS'ERR1002674'
p4240
aS'ERR1002677'
p4241
aS'ERR1002676'
p4242
aS'MA0610.1'
p4243
aS'ERR1002681'
p4244
asS'ENSG00000105672'
p4245
(lp4246
S'MA1943.1'
p4247
aS'ERR1003101'
p4248
aS'ERR1003102'
p4249
aS'ERR1003103'
p4250
aS'ERR1003104'
p4251
aS'MA1942.1'
p4252
aS'ERR194600'
p4253
aS'ERR194601'
p4254
aS'ERR1003100'
p4255
aS'ERR1003098'
p4256
aS'ERR1003099'
p4257
ag1318
aS'ERR194599'
p4258
aS'MA0762.1'
p4259
aS'MA1940.1'
p4260
aS'V_ER71_01_M01988'
p4261
aS'V_ER71_02_M02067'
p4262
aS'ERR1003105'
p4263
asS'ENSG00000170608'
p4264
(lp4265
S'ERR1003251'
p4266
aS'ERR1003253'
p4267
aS'ERR1003254'
p4268
aS'ERR1003255'
p4269
aS'ERR1003256'
p4270
aS'ERR1003257'
p4271
aS'MA1683.1'
p4272
aS'V_HNF3G_Q4_M02015'
p4273
asS'ENSG00000260596'
p4274
(lp4275
S'MA0468.1'
p4276
asS'ENSG00000142937'
p4277
(lp4278
S'V_S8_02_M01376'
p4279
aS'V_S8_01_M00099'
p4280
asS'ENSG00000204644'
p4281
(lp4282
S'MA1583.1'
p4283
asS'ENSG00000167182'
p4284
(lp4285
S'ERR1006213'
p4286
aS'ERR1006212'
p4287
aS'ERR1006211'
p4288
aS'ERR1006210'
p4289
aS'ERR1006208'
p4290
asS'ENSG00000152467'
p4291
(lp4292
S'ERR1007304'
p4293
aS'ERR1007305'
p4294
aS'ERR1007302'
p4295
aS'ERR1007303'
p4296
aS'ERR1007300'
p4297
aS'ERR1007301'
p4298
aS'ERR1007298'
p4299
aS'ERR1007299'
p4300
asS'ENSG00000168875'
p4301
(lp4302
S'ERR1006119'
p4303
aS'ERR194231'
p4304
aS'ERR1006131'
p4305
aS'ERR1006129'
p4306
aS'ERR1006128'
p4307
aS'Sox14.1'
p4308
aS'Sox14.2'
p4309
aS'ERR1006121'
p4310
aS'ERR1006133'
p4311
aS'ERR1006123'
p4312
aS'MA1562.1'
p4313
aS'V_SOX14_05_M02902'
p4314
aS'V_SOX14_03_M02798'
p4315
aS'ERR1006132'
p4316
aS'ERR1006124'
p4317
aS'ERR1006122'
p4318
aS'ERR1006127'
p4319
asS'ENSG00000128573'
p4320
(lp4321
S'MA0593.1'
p4322
asS'ENSG00000119547'
p4323
(lp4324
S'ERR1005356'
p4325
aS'ERR1005354'
p4326
aS'ERR1005352'
p4327
aS'ERR1005350'
p4328
aS'ERR194222'
p4329
aS'ERR1005364'
p4330
aS'ERR1005365'
p4331
aS'ERR1005362'
p4332
aS'ERR1005363'
p4333
aS'ERR1005360'
p4334
aS'ERR1005361'
p4335
aS'ERR194220'
p4336
aS'ERR194223'
p4337
aS'ERR1005359'
p4338
aS'ERR194221'
p4339
aS'ERR1005358'
p4340
aS'MA0756.2'
p4341
asS'ENSG00000122145'
p4342
(lp4343
S'V_TBX22_01_M01195'
p4344
asS'ENSG00000176165'
p4345
(lp4346
S'MA0613.1'
p4347
aS'ERR1003298'
p4348
aS'ERR194020'
p4349
aS'ERR194021'
p4350
aS'ERR1003302'
p4351
aS'ERR1003303'
p4352
aS'ERR1003300'
p4353
aS'ERR185032'
p4354
aS'ERR1003304'
p4355
aS'ERR1003305'
p4356
asS'ENSG00000185551'
p4357
(lp4358
g1085
aS'V_NR2F2_04_M02887'
p4359
aS'Nr2f2.2'
p4360
aS'Nr2f2.1'
p4361
ag605
aS'V_NR2F2_03_M02783'
p4362
aS'MA1111.1'
p4363
asS'ENSG00000117595'
p4364
(lp4365
S'ERR1004226'
p4366
aS'MA1509.1'
p4367
aS'V_IRF6_03_M02770'
p4368
aS'ERR1004229'
p4369
aS'V_IRF6_04_M02874'
p4370
aS'Irf6.1'
p4371
aS'Irf6.2'
p4372
aS'ERR1004233'
p4373
aS'ERR1004232'
p4374
aS'ERR1004231'
p4375
aS'ERR1004230'
p4376
aS'ERR1004238'
p4377
aS'ERR1004240'
p4378
aS'ERR1004234'
p4379
asS'ENSG00000112182'
p4380
(lp4381
S'MA1470.1'
p4382
aS'ERR1002228'
p4383
aS'ERR1002229'
p4384
aS'ERR1002226'
p4385
aS'ERR1002227'
p4386
aS'V_BACH2_01_M00490'
p4387
aS'ERR1002231'
p4388
aS'ERR1002230'
p4389
aS'ERR1002233'
p4390
aS'ERR1002232'
p4391
aS'MA1101.2'
p4392
asS'ENSG00000105392'
p4393
(lp4394
S'V_CRX_02_M01436'
p4395
aS'Crx.1'
p4396
aS'V_OTX3_01_M01403'
p4397
aS'V_CRX_Q4_M00623'
p4398
asS'ENSG00000178951'
p4399
(lp4400
S'ERR1006872'
p4401
aS'MA0750.2'
p4402
aS'ERR1006877'
p4403
aS'ERR1006871'
p4404
asS'ENSG00000215397'
p4405
(lp4406
S'ERR1005955'
p4407
aS'ERR1005960'
p4408
aS'ERR1005954'
p4409
aS'ERR1005957'
p4410
aS'ERR1005956'
p4411
aS'ERR1005959'
p4412
aS'ERR1005958'
p4413
aS'ERR195476'
p4414
aS'MA0744.2'
p4415
aS'ERR195475'
p4416
aS'ERR1005961'
p4417
asS'ENSG00000180818'
p4418
(lp4419
S'ERR195648'
p4420
aS'ERR1003954'
p4421
aS'ERR195258'
p4422
aS'ERR195259'
p4423
aS'ERR1003952'
p4424
aS'ERR195647'
p4425
aS'ERR195257'
p4426
aS'ERR1003953'
p4427
aS'MA0905.1'
p4428
aS'ERR1003950'
p4429
aS'ERR1003957'
p4430
aS'ERR195260'
p4431
aS'ERR1003955'
p4432
aS'ERR1003956'
p4433
aS'Hoxc10.1'
p4434
aS'ERR1003963'
p4435
aS'ERR1003960'
p4436
aS'ERR1003962'
p4437
aS'V_HOXC10_01_M01361'
p4438
aS'ERR1003964'
p4439
aS'ERR1003965'
p4440
asS'ENSG00000072135'
p4441
(lp4442
S'V_BDP1_01_M01796'
p4443
asS'ENSG00000181690'
p4444
(lp4445
S'V_PLAG1_02_M01973'
p4446
aS'MA0163.1'
p4447
aS'V_PLAG1_01_M01778'
p4448
asS'ENSG00000114439'
p4449
(lp4450
S'Bbx.2'
p4451
aS'Bbx.1'
p4452
aS'V_BBX_03_M02739'
p4453
aS'V_BBX_04_M02843'
p4454
aS'ERR1002297'
p4455
aS'ERR1002296'
p4456
aS'ERR1002294'
p4457
asS'ENSG00000007372'
p4458
(lp4459
S'Pax6.1'
p4460
aS'V_PAX6_01_M00097'
p4461
aS'ERR1005471'
p4462
aS'ERR1005483'
p4463
aS'ERR1005482'
p4464
aS'ERR1005481'
p4465
aS'ERR1005480'
p4466
aS'ERR1005485'
p4467
aS'ERR1005484'
p4468
aS'MA0069.1'
p4469
aS'V_PAX6_02_M01391'
p4470
aS'ERR1005472'
p4471
aS'ERR1005473'
p4472
aS'V_PAX6_Q2_M00979'
p4473
aS'ERR1005478'
p4474
aS'ERR1005479'
p4475
aS'ERR1005476'
p4476
aS'ERR1005477'
p4477
aS'ERR1005474'
p4478
aS'ERR1005475'
p4479
aS'ERR195391'
p4480
aS'ERR195390'
p4481
aS'ERR1005470'
p4482
aS'ERR195392'
p4483
asS'ENSG00000143578'
p4484
(lp4485
S'ERR1002501'
p4486
aS'ERR1002498'
p4487
aS'ERR193700'
p4488
aS'ERR193701'
p4489
aS'MA1475.1'
p4490
aS'ERR1002504'
p4491
aS'ERR1002502'
p4492
aS'MA0638.1'
p4493
aS'MA1474.1'
p4494
aS'ERR1002477'
p4495
aS'ERR1002476'
p4496
aS'ERR1002475'
p4497
aS'ERR1002474'
p4498
aS'ERR1002479'
p4499
aS'ERR1002500'
p4500
aS'ERR1002505'
p4501
aS'ERR1002480'
p4502
aS'ERR1002481'
p4503
asS'ENSG00000125533'
p4504
(lp4505
S'ERR195119'
p4506
aS'ERR195120'
p4507
aS'ERR1002345'
p4508
aS'ERR1002344'
p4509
aS'ERR1002341'
p4510
aS'ERR1002340'
p4511
aS'ERR1002343'
p4512
aS'ERR1002342'
p4513
aS'ERR1002338'
p4514
aS'MA0817.1'
p4515
aS'ERR1002339'
p4516
asS'ENSG00000167981'
p4517
(lp4518
S'ERR1007184'
p4519
aS'ERR1007185'
p4520
aS'ERR1007180'
p4521
aS'ERR1007181'
p4522
aS'ERR1007182'
p4523
aS'ERR1007183'
p4524
aS'ERR1007179'
p4525
aS'ERR1007178'
p4526
asS'ENSG00000175387'
p4527
(lp4528
S'MA1964.1'
p4529
asS'ENSG00000109321'
p4530
(lp4531
S'ERR194680'
p4532
aS'V_AR_Q6_M00962'
p4533
aS'ERR194682'
p4534
aS'ERR194683'
p4535
aS'ERR193973'
p4536
aS'ERR193972'
p4537
aS'ERR193971'
p4538
aS'V_AR_04_M01201'
p4539
aS'ERR193681'
p4540
aS'V_AR_Q6_01_M01996'
p4541
aS'ERR193680'
p4542
aS'V_AR_03_M00956'
p4543
aS'V_AR_Q2_M00447'
p4544
aS'V_AR_02_M00953'
p4545
aS'ERR194679'
p4546
aS'V_AR_01_M00481'
p4547
aS'ERR194681'
p4548
asS'ENSG00000109320'
p4549
(lp4550
S'V_NFKB_Q6_01_M00774'
p4551
aS'ERR185054'
p4552
aS'MA0105.4'
p4553
aS'V_NFKAPPAB_01_M00054'
p4554
aS'V_NFKB_Q6_M00194'
p4555
aS'V_P50P50_Q3_M01223'
p4556
aS'V_NFKAPPAB65_01_M00052'
p4557
aS'ERR185056'
p4558
aS'ERR185055'
p4559
aS'V_NFKB_C_M00208'
p4560
aS'V_NFKAPPAB50_01_M00051'
p4561
asS'ENSG00000112837'
p4562
(lp4563
S'ERR1006325'
p4564
aS'ERR1006324'
p4565
aS'ERR1006323'
p4566
aS'ERR1006322'
p4567
aS'ERR1006321'
p4568
aS'ERR1006320'
p4569
aS'V_TBX18_01_M01262'
p4570
aS'MA1565.1'
p4571
aS'ERR1006318'
p4572
aS'ERR1006319'
p4573
asS'ENSG00000143178'
p4574
(lp4575
S'ERR194521'
p4576
aS'ERR194520'
p4577
aS'ERR1006329'
p4578
aS'ERR1006328'
p4579
aS'ERR1006327'
p4580
aS'MA0804.1'
p4581
aS'ERR1006332'
p4582
aS'ERR1006333'
p4583
aS'ERR1006330'
p4584
aS'ERR194518'
p4585
aS'ERR194519'
p4586
aS'ERR1006331'
p4587
aS'ERR1006326'
p4588
aS'ERR194516'
p4589
aS'ERR194517'
p4590
asS'ENSG00000118707'
p4591
(lp4592
S'Tgif2.1'
p4593
aS'MA0797.1'
p4594
aS'ERR194561'
p4595
aS'ERR194560'
p4596
aS'ERR194563'
p4597
aS'V_TGIF2_01_M01407'
p4598
asS'ENSG00000120068'
p4599
(lp4600
S'MA1502.1'
p4601
aS'Hoxb8.1'
p4602
aS'ERR1003935'
p4603
aS'ERR1003937'
p4604
aS'ERR1003939'
p4605
aS'V_HOXB8_01_M01451'
p4606
asS'ENSG00000129173'
p4607
(lp4608
S'MA0865.2'
p4609
aS'ERR1002786'
p4610
aS'ERR1002792'
p4611
aS'ERR1002793'
p4612
aS'ERR1002790'
p4613
aS'ERR1002791'
p4614
aS'ERR1002788'
p4615
asS'ENSG00000163064'
p4616
(lp4617
S'V_EN1_02_M01365'
p4618
aS'MA0027.2'
p4619
aS'En1.1'
p4620
aS'ERR195173'
p4621
aS'ERR195176'
p4622
asS'ENSG00000173917'
p4623
(lp4624
S'MA0902.2'
p4625
aS'MA1957.1'
p4626
aS'ERR195252'
p4627
aS'ERR1003887'
p4628
asS'ENSG00000106536'
p4629
(lp4630
S'MA0793.1'
p4631
aS'ERR194907'
p4632
aS'ERR194906'
p4633
aS'ERR188816'
p4634
aS'ERR188817'
p4635
aS'ERR194908'
p4636
asS'ENSG00000245848'
p4637
(lp4638
g1339
aS'MA0102.4'
p4639
aS'V_CEBP_Q3_M00770'
p4640
aS'V_CEBP_01_M00159'
p4641
aS'V_CEBP_C_M00201'
p4642
aS'V_CEBPA_01_M00116'
p4643
aS'V_CEBPA_Q6_M01866'
p4644
aS'V_CEBP_Q2_01_M00912'
p4645
aS'V_CEBP_Q2_M00190'
p4646
asS'ENSG00000165588'
p4647
(lp4648
S'Otx2.1'
p4649
aS'V_OTX2_01_M01387'
p4650
aS'MA0712.2'
p4651
aS'V_OTX2_Q3_M01719'
p4652
asS'ENSG00000080298'
p4653
(lp4654
S'V_RFX3_05_M02892'
p4655
aS'ERR1005849'
p4656
aS'ERR1005848'
p4657
aS'ERR1005843'
p4658
aS'ERR188829'
p4659
aS'ERR188827'
p4660
aS'ERR1005847'
p4661
aS'ERR188828'
p4662
aS'ERR1005845'
p4663
aS'MA0798.3'
p4664
aS'ERR1005846'
p4665
aS'ERR194721'
p4666
aS'ERR194722'
p4667
aS'ERR1005842'
p4668
aS'Rfx3.2'
p4669
aS'Rfx3.1'
p4670
aS'ERR1005844'
p4671
aS'V_RFX3_04_M02788'
p4672
aS'ERR194723'
p4673
asS'ENSG00000171540'
p4674
(lp4675
S'Otp.1'
p4676
aS'V_OTP_01_M01323'
p4677
asS'ENSG00000137709'
p4678
(lp4679
S'ERR1005647'
p4680
aS'Pou2f3.1'
p4681
aS'ERR1005653'
p4682
aS'ERR1005650'
p4683
aS'ERR1005651'
p4684
aS'ERR1005649'
p4685
aS'ERR195424'
p4686
aS'ERR195423'
p4687
aS'MA0627.2'
p4688
aS'ERR195421'
p4689
aS'ERR195422'
p4690
aS'ERR1005652'
p4691
aS'ERR1005648'
p4692
aS'V_POU2F3_01_M01476'
p4693
asS'ENSG00000165030'
p4694
(lp4695
S'MA0025.2'
p4696
aS'ERR195335'
p4697
aS'ERR195336'
p4698
aS'V_E4BP4_01_M00045'
p4699
aS'ERR195334'
p4700
asS'ENSG00000125740'
p4701
(lp4702
S'MA1136.1'
p4703
aS'ERR1003214'
p4704
aS'ERR1003215'
p4705
aS'ERR1003216'
p4706
aS'ERR1003217'
p4707
ag3365
aS'MA1135.1'
p4708
asS'ENSG00000112333'
p4709
(lp4710
S'ERR195033'
p4711
aS'ERR185062'
p4712
aS'ERR185060'
p4713
aS'ERR185061'
p4714
asS'ENSG00000135457'
p4715
(lp4716
S'ERR1006503'
p4717
aS'ERR1006502'
p4718
aS'ERR1006501'
p4719
aS'ERR1006500'
p4720
aS'V_CP2_01_M00072'
p4721
aS'ERR1006505'
p4722
aS'ERR1006504'
p4723
aS'MA1968.1'
p4724
aS'V_CP2_02_M00947'
p4725
aS'ERR1006511'
p4726
aS'ERR193761'
p4727
aS'ERR1006499'
p4728
aS'ERR1006498'
p4729
aS'ERR1006513'
p4730
asS'ENSG00000162367'
p4731
(lp4732
g3934
aS'V_TAL1BETAITF2_01_M00070'
p4733
aS'V_TAL1_01_M01591'
p4734
aS'V_TAL1BETAE47_01_M00065'
p4735
ag3944
aS'MA0091.1'
p4736
aS'V_TAL1_Q6_M00993'
p4737
aS'V_TAL1ALPHAE47_01_M00066'
p4738
asS'ENSG00000066697'
p4739
(lp4740
S'MA1523.1'
p4741
asS'ENSG00000153234'
p4742
(lp4743
S'ERR195038'
p4744
aS'ERR1005269'
p4745
aS'ERR1005268'
p4746
aS'MA0160.2'
p4747
aS'ERR1005263'
p4748
aS'ERR1005262'
p4749
ag2592
aS'ERR1005266'
p4750
aS'ERR1005265'
p4751
aS'ERR1005264'
p4752
aS'ERR195040'
p4753
aS'ERR1005267'
p4754
aS'ERR195039'
p4755
asS'ENSG00000006377'
p4756
(lp4757
S'ERR195150'
p4758
aS'MA0882.1'
p4759
asS'ENSG00000174963'
p4760
(lp4761
S'ERR188883'
p4762
aS'ERR188882'
p4763
aS'ERR1006948'
p4764
aS'ERR1006947'
p4765
aS'ERR1006946'
p4766
aS'ERR188885'
p4767
aS'ERR1006944'
p4768
aS'ERR1006949'
p4769
aS'ERR188884'
p4770
aS'MA0751.1'
p4771
aS'ERR1006945'
p4772
aS'ERR1006942'
p4773
aS'ERR1006943'
p4774
asS'ENSG00000185022'
p4775
(lp4776
S'ERR195683'
p4777
aS'ERR1004648'
p4778
aS'ERR1004649'
p4779
aS'ERR195684'
p4780
aS'ERR1004651'
p4781
aS'MA0495.3'
p4782
aS'ERR1004653'
p4783
aS'ERR1004641'
p4784
aS'ERR1004646'
p4785
aS'ERR1004647'
p4786
aS'ERR1004645'
p4787
aS'ERR1004650'
p4788
aS'ERR1004639'
p4789
aS'ERR1004643'
p4790
aS'ERR1004652'
p4791
asS'ENSG00000089558'
p4792
(lp4793
g4048
aS'ERR194285'
p4794
aS'Elk1.1'
p4795
aS'V_ELK1_03_M01163'
p4796
aS'MA0028.2'
p4797
aS'MA1932.1'
p4798
aS'V_ELK1_04_M01165'
p4799
aS'V_ELK1_05_M01981'
p4800
aS'ERR194178'
p4801
aS'MA1958.1'
p4802
aS'V_ELK1_06_M02059'
p4803
aS'ERR194283'
p4804
aS'ERR1002911'
p4805
aS'ERR1002912'
p4806
aS'ERR1002913'
p4807
ag4626
ag683
aS'ERR194176'
p4808
aS'ERR194177'
p4809
aS'ERR194174'
p4810
aS'ERR194175'
p4811
aS'ERR194284'
p4812
aS'MA1933.1'
p4813
aS'ERR194286'
p4814
aS'ERR194287'
p4815
aS'V_ELK1_02_M00025'
p4816
aS'ERR194179'
p4817
aS'ERR1002903'
p4818
aS'ERR1002902'
p4819
aS'ERR1002901'
p4820
aS'V_ELK1_01_M00007'
p4821
aS'ERR1002905'
p4822
aS'ERR1002904'
p4823
aS'ERR1002909'
p4824
asS'ENSG00000113658'
p4825
(lp4826
S'ERR1006044'
p4827
aS'MA1557.1'
p4828
asS'ENSG00000129535'
p4829
(lp4830
S'ERR1005296'
p4831
aS'ERR1005297'
p4832
aS'ERR1005295'
p4833
aS'MA0842.2'
p4834
aS'ERR194640'
p4835
aS'ERR194639'
p4836
aS'ERR1005298'
p4837
aS'ERR1005299'
p4838
aS'ERR1005304'
p4839
aS'ERR1005305'
p4840
aS'ERR1005306'
p4841
aS'ERR1005307'
p4842
aS'ERR1005302'
p4843
aS'ERR1005303'
p4844
aS'ERR1005308'
p4845
aS'ERR1005309'
p4846
asS'ENSG00000077463'
p4847
(lp4848
S'V_SIRT6_01_M01797'
p4849
asS'ENSG00000204103'
p4850
(lp4851
S'Mafb.2'
p4852
aS'Mafb.1'
p4853
aS'ERR185044'
p4854
aS'ERR185043'
p4855
aS'V_MAFB_05_M02775'
p4856
aS'V_MAFB_03_M02879'
p4857
asS'ENSG00000073282'
p4858
(lp4859
S'MA0525.2'
p4860
aS'ERR194826'
p4861
aS'ERR194827'
p4862
aS'ERR194828'
p4863
aS'V_P63_01_M01656'
p4864
asS'ENSG00000124813'
p4865
(lp4866
S'V_AML3_Q6_M01856'
p4867
aS'MA0511.2'
p4868
aS'ERR1005908'
p4869
aS'ERR1005909'
p4870
aS'ERR1005906'
p4871
aS'ERR1005907'
p4872
aS'ERR194481'
p4873
aS'ERR1005911'
p4874
aS'ERR1005910'
p4875
aS'ERR194484'
p4876
aS'ERR194485'
p4877
aS'V_AML_Q6_M00769'
p4878
aS'ERR1005913'
p4879
aS'V_OSF2_Q6_M00731'
p4880
aS'ERR194483'
p4881
aS'ERR1005912'
p4882
asS'ENSG00000143171'
p4883
(lp4884
g552
aS'MA0856.1'
p4885
aS'ERR193732'
p4886
aS'MA1556.1'
p4887
aS'ERR193733'
p4888
aS'ERR1005939'
p4889
aS'ERR1005938'
p4890
aS'ERR1005942'
p4891
aS'ERR1005943'
p4892
aS'ERR1005940'
p4893
aS'ERR1005941'
p4894
aS'ERR1005944'
p4895
aS'ERR1005945'
p4896
aS'ERR195468'
p4897
aS'ERR195467'
p4898
aS'ERR195466'
p4899
aS'ERR195465'
p4900
asS'ENSG00000127528'
p4901
(lp4902
S'ERR1004457'
p4903
aS'ERR1004456'
p4904
aS'ERR1004459'
p4905
aS'ERR1004458'
p4906
aS'ERR1004460'
p4907
aS'MA1515.1'
p4908
aS'ERR1004461'
p4909
asS'ENSG00000172216'
p4910
(lp4911
S'ERR195564'
p4912
aS'ERR195562'
p4913
aS'ERR195563'
p4914
aS'ERR195561'
p4915
aS'V_CEBPB_01_M00109'
p4916
aS'V_CEBPB_Q6_M01896'
p4917
aS'MA0466.3'
p4918
aS'ERR1002406'
p4919
aS'ERR1002407'
p4920
aS'ERR1002404'
p4921
aS'ERR1002405'
p4922
aS'ERR1002402'
p4923
aS'ERR1002403'
p4924
aS'ERR1002408'
p4925
aS'ERR1002409'
p4926
aS'V_CEBPB_02_M00117'
p4927
aS'ERR194932'
p4928
aS'ERR194933'
p4929
aS'ERR194931'
p4930
aS'ERR194936'
p4931
aS'ERR194934'
p4932
aS'ERR194935'
p4933
asS'ENSG00000089225'
p4934
(lp4935
S'V_TBX5_02_M01020'
p4936
aS'ERR194551'
p4937
aS'V_TBX5_01_M01019'
p4938
aS'ERR194549'
p4939
aS'ERR194548'
p4940
aS'V_TBX5_Q5_M01044'
p4941
aS'ERR194550'
p4942
asS'ENSG00000183770'
p4943
(lp4944
S'ERR1003347'
p4945
aS'ERR1003353'
p4946
aS'ERR1003349'
p4947
asS'ENSG00000112658'
p4948
(lp4949
S'ERR1006286'
p4950
aS'ERR1006287'
p4951
aS'V_SRF_Q5_01_M00922'
p4952
aS'V_SRF_Q4_M00810'
p4953
aS'ERR1006288'
p4954
aS'ERR1006289'
p4955
aS'V_SRF_02_M01257'
p4956
aS'ERR195064'
p4957
aS'ERR195063'
p4958
aS'ERR195062'
p4959
aS'V_SRF_06_M02916'
p4960
aS'MA0083.3'
p4961
aS'ERR1006293'
p4962
aS'ERR1006292'
p4963
aS'ERR1006291'
p4964
aS'ERR1006290'
p4965
aS'Srf.1'
p4966
aS'Srf.2'
p4967
aS'V_SRF_03_M01304'
p4968
aS'ERR195492'
p4969
aS'V_SRF_Q5_02_M01007'
p4970
aS'ERR195491'
p4971
aS'V_SRF_Q6_M00186'
p4972
aS'V_SRF_01_M00152'
p4973
aS'V_SRF_C_M00215'
p4974
asS'ENSG00000109132'
p4975
(lp4976
S'ERR193890'
p4977
aS'ERR193891'
p4978
aS'ERR193892'
p4979
aS'ERR193893'
p4980
aS'V_PMX2B_01_M01356'
p4981
aS'ERR195401'
p4982
aS'ERR195403'
p4983
aS'ERR195402'
p4984
aS'ERR195404'
p4985
aS'ERR1005560'
p4986
aS'ERR1005561'
p4987
aS'ERR1005562'
p4988
aS'ERR1005563'
p4989
aS'ERR1005564'
p4990
aS'ERR1005565'
p4991
aS'Phox2b.1'
p4992
aS'MA0681.2'
p4993
aS'ERR1005559'
p4994
aS'ERR1005558'
p4995
aS'ERR1005555'
p4996
aS'ERR1005554'
p4997
aS'ERR1005556'
p4998
aS'ERR1005551'
p4999
aS'ERR1005553'
p5000
aS'ERR1005552'
p5001
asS'ENSG00000167034'
p5002
(lp5003
S'V_NKX31_02_M02782'
p5004
aS'V_NKX3A_02_M01383'
p5005
aS'V_NKX3A_01_M00451'
p5006
asS'ENSG00000159387'
p5007
(lp5008
S'V_IRXB3_01_M01377'
p5009
aS'Irx6.1'
p5010
asS'ENSG00000064835'
p5011
(lp5012
S'ERR194445'
p5013
aS'ERR194447'
p5014
aS'ERR194448'
p5015
aS'ERR194449'
p5016
aS'ERR1005634'
p5017
aS'ERR1005635'
p5018
aS'ERR1005636'
p5019
aS'ERR1005637'
p5020
aS'ERR1005630'
p5021
aS'ERR1005631'
p5022
aS'ERR1005632'
p5023
aS'ERR1005633'
p5024
aS'V_PIT1_01_M01465'
p5025
aS'ERR194446'
p5026
aS'V_PIT1_Q6_M00802'
p5027
aS'Pou1f1.1'
p5028
aS'MA0784.2'
p5029
aS'V_POU1F1_Q6_M00744'
p5030
aS'ERR194444'
p5031
asS'ENSG00000134595'
p5032
(lp5033
S'ERR1006149'
p5034
aS'ERR1006147'
p5035
aS'ERR1006146'
p5036
aS'ERR1006144'
p5037
aS'ERR194796'
p5038
aS'ERR194797'
p5039
aS'ERR194798'
p5040
asS'ENSG00000137203'
p5041
(lp5042
S'V_AP2ALPHA_01_M00469'
p5043
aS'V_AP2_Q3_M00800'
p5044
aS'ERR195504'
p5045
aS'ERR1006450'
p5046
aS'ERR194123'
p5047
aS'ERR194125'
p5048
aS'ERR194124'
p5049
aS'ERR1006455'
p5050
aS'ERR1006454'
p5051
aS'ERR1006457'
p5052
aS'V_AP4_Q5_M00175'
p5053
aS'ERR194734'
p5054
aS'V_AP2ALPHA_Q6_M01857'
p5055
aS'ERR1006453'
p5056
aS'ERR194737'
p5057
aS'ERR194738'
p5058
aS'MA0810.1'
p5059
aS'V_AP4_01_M00005'
p5060
aS'V_AP2_Q6_M00189'
p5061
aS'MA0872.1'
p5062
aS'ERR195502'
p5063
aS'V_TCFAP2A_03_M02819'
p5064
aS'ERR1006456'
p5065
aS'V_AP2_Q6_01_M00915'
p5066
aS'Tcfap2a.1'
p5067
aS'Tcfap2a.2'
p5068
aS'MA0003.4'
p5069
aS'V_AP2ALPHA_02_M01045'
p5070
aS'V_AP4_Q6_02_M01860'
p5071
aS'V_AP2ALPHA_03_M01047'
p5072
aS'ERR1006452'
p5073
aS'V_AP4_Q6_01_M00927'
p5074
aS'ERR195503'
p5075
aS'ERR1006451'
p5076
aS'V_AP4_Q6_M00176'
p5077
asS'ENSG00000164299'
p5078
(lp5079
S'V_SPZ1_01_M00446'
p5080
asS'ENSG00000143390'
p5081
(lp5082
S'ERR194464'
p5083
aS'ERR194465'
p5084
aS'ERR194466'
p5085
aS'ERR194467'
p5086
aS'ERR194463'
p5087
aS'ERR1005861'
p5088
aS'ERR1005860'
p5089
aS'ERR1005863'
p5090
aS'ERR1005862'
p5091
aS'V_EFC_Q6_M00626'
p5092
aS'ERR1005864'
p5093
aS'MA0510.2'
p5094
aS'ERR1005865'
p5095
aS'ERR1005858'
p5096
aS'ERR1005859'
p5097
asS'ENSG00000172845'
p5098
(lp5099
S'ERR1006221'
p5100
aS'ERR194671'
p5101
aS'ERR194673'
p5102
aS'ERR194672'
p5103
ag2659
aS'MA0746.2'
p5104
aS'ERR1006217'
p5105
aS'ERR1006216'
p5106
aS'ERR1006215'
p5107
aS'V_SP3_Q3_M00665'
p5108
aS'ERR1006219'
p5109
aS'ERR1006218'
p5110
aS'ERR1006220'
p5111
asS'ENSG00000290292'
p5112
(lp5113
S'ERR195243'
p5114
aS'V_HOMEZ_01_M01429'
p5115
aS'ERR195244'
p5116
aS'Homez.1'
p5117
aS'ERR195242'
p5118
asS'ENSG00000082641'
p5119
(lp5120
S'ERR188793'
p5121
aS'ERR188792'
p5122
aS'ERR188791'
p5123
aS'V_NRF1_Q6_M00652'
p5124
ag4200
aS'V_TCF11_01_M00285'
p5125
ag4209
asS'ENSG00000164458'
p5126
(lp5127
S'MA0009.2'
p5128
aS'V_BRACH_01_M00150'
p5129
asS'ENSG00000105856'
p5130
(lp5131
S'Hbp1.2'
p5132
aS'Hbp1.1'
p5133
aS'V_HBP1_03_M02762'
p5134
aS'V_HBP1_Q2_M01661'
p5135
aS'V_HBP1_04_M02866'
p5136
asS'ENSG00000129654'
p5137
(lp5138
S'Foxj1.1'
p5139
aS'V_FOXJ1_03_M02750'
p5140
aS'Foxj1.2'
p5141
aS'V_HFH4_01_M00742'
p5142
aS'V_FOXJ1_04_M02854'
p5143
asS'ENSG00000149948'
p5144
(lp5145
S'V_HMGA2_01_M01300'
p5146
asS'ENSG00000158773'
p5147
(lp5148
S'V_USF_02_M00122'
p5149
aS'ERR1006653'
p5150
aS'V_USF_Q6_M00187'
p5151
aS'MA0093.3'
p5152
aS'ERR195748'
p5153
aS'ERR195746'
p5154
aS'ERR195747'
p5155
aS'V_USF_01_M00121'
p5156
aS'V_USF_Q6_01_M00796'
p5157
asS'ENSG00000068305'
p5158
(lp5159
S'ERR194776'
p5160
aS'V_MEF2_01_M00006'
p5161
aS'V_MEF2_02_M00231'
p5162
aS'V_RSRFC4_Q2_M00407'
p5163
aS'V_HMEF2_Q6_M00406'
p5164
aS'V_RSRFC4_01_M00026'
p5165
aS'V_MEF2A_05_M01301'
p5166
aS'V_MEF2_Q6_01_M00941'
p5167
aS'V_MEF2_03_M00232'
p5168
aS'V_MEF2A_Q6_M02024'
p5169
aS'ERR194778'
p5170
aS'V_MMEF2_Q6_M00405'
p5171
aS'ERR194777'
p5172
aS'V_AMEF2_Q6_M00403'
p5173
aS'MA0052.4'
p5174
aS'V_MEF2_04_M00233'
p5175
asS'ENSG00000101412'
p5176
(lp5177
S'ERR1002753'
p5178
aS'ERR1002751'
p5179
aS'ERR1002747'
p5180
aS'V_E2F_Q3_01_M00918'
p5181
aS'ERR1002749'
p5182
aS'ERR194862'
p5183
aS'V_E2F1_Q6_01_M00940'
p5184
aS'ERR194864'
p5185
aS'V_E2F_03_M00516'
p5186
aS'V_E2F_Q4_02_M00939'
p5187
aS'V_E2F1_Q3_01_M00938'
p5188
aS'V_E2F_01_M00024'
p5189
aS'V_E2F_Q6_01_M00920'
p5190
aS'V_E2F1_01_M01250'
p5191
aS'MA0024.3'
p5192
aS'V_E2F_Q4_01_M00919'
p5193
asS'ENSG00000157557'
p5194
(lp5195
S'ERR1003081'
p5196
aS'ERR1003080'
p5197
aS'ERR1003078'
p5198
aS'V_CETS2_02_M02064'
p5199
aS'ERR1003079'
p5200
aS'ERR1003075'
p5201
aS'ERR1003076'
p5202
aS'ERR1003077'
p5203
aS'V_CETS2_01_M01989'
p5204
aS'MA1484.1'
p5205
asS'ENSG00000157554'
p5206
(lp5207
S'ERR194187'
p5208
aS'ERR194186'
p5209
aS'ERR194185'
p5210
aS'ERR194184'
p5211
aS'ERR194189'
p5212
aS'ERR1003001'
p5213
aS'ERR1003000'
p5214
aS'ERR1002994'
p5215
aS'ERR1002996'
p5216
aS'ERR1002990'
p5217
aS'ERR1002991'
p5218
aS'ERR1002992'
p5219
aS'ERR1002993'
p5220
aS'ERR1002998'
p5221
aS'ERR1002999'
p5222
aS'Erg.1'
p5223
aS'ERR194190'
p5224
aS'ERR194191'
p5225
aS'V_ERG_02_M01985'
p5226
aS'ERR1002989'
p5227
aS'ERR1002988'
p5228
aS'ERR1002986'
p5229
aS'V_ERG_01_M01752'
p5230
aS'V_ERG_03_M02062'
p5231
asS'ENSG00000116044'
p5232
(lp5233
S'V_NRF2_01_M00108'
p5234
aS'V_NRF2_Q4_M00821'
p5235
aS'V_NFE2L2_01_M02263'
p5236
asS'ENSG00000164853'
p5237
(lp5238
S'ERR1006644'
p5239
aS'ERR194741'
p5240
aS'ERR194740'
p5241
aS'ERR194742'
p5242
aS'Uncx4.1'
p5243
aS'ERR194739'
p5244
aS'V_UNCX4.1_01_M01458'
p5245
aS'MA0721.1'
p5246
aS'ERR194132'
p5247
aS'ERR194133'
p5248
aS'ERR194130'
p5249
aS'ERR194131'
p5250
asS'ENSG00000005889'
p5251
(lp5252
S'V_ZFX_01_M01593'
p5253
asS'ENSG00000109787'
p5254
(lp5255
S'ERR1004468'
p5256
aS'ERR1004469'
p5257
aS'ERR1004466'
p5258
aS'ERR1004467'
p5259
aS'ERR1004464'
p5260
aS'ERR1004465'
p5261
aS'MA1516.1'
p5262
asS'ENSG00000135903'
p5263
(lp5264
S'ERR194082'
p5265
aS'V_PAX3_B_M00327'
p5266
aS'ERR1005461'
p5267
aS'MA0780.1'
p5268
aS'ERR1005460'
p5269
aS'ERR1005454'
p5270
aS'ERR1005455'
p5271
aS'ERR1005456'
p5272
aS'ERR1005457'
p5273
aS'ERR1005458'
p5274
aS'ERR1005459'
p5275
aS'ERR194084'
p5276
aS'ERR194085'
p5277
aS'V_PAX3_01_M00360'
p5278
aS'MA1546.1'
p5279
aS'ERR194083'
p5280
asS'ENSG00000167554'
p5281
(lp5282
S'MA1713.1'
p5283
asS'ENSG00000102554'
p5284
(lp5285
S'ERR1004485'
p5286
aS'ERR1004479'
p5287
aS'ERR1004481'
p5288
aS'MA0599.1'
p5289
aS'ERR1004483'
p5290
asS'ENSG00000131264'
p5291
(lp5292
S'ERR1002396'
p5293
aS'ERR1002397'
p5294
aS'ERR1002394'
p5295
aS'ERR1002395'
p5296
aS'ERR1002398'
p5297
aS'ERR1002399'
p5298
aS'ERR1002400'
p5299
aS'ERR1002401'
p5300
aS'MA1473.1'
p5301
asS'ENSG00000125285'
p5302
(lp5303
S'V_SOX21_03_M02803'
p5304
aS'V_SOX21_04_M02907'
p5305
aS'MA0866.1'
p5306
aS'Sox21.1'
p5307
aS'Sox21.2'
p5308
aS'ERR194503'
p5309
aS'ERR194502'
p5310
aS'ERR194501'
p5311
aS'ERR194500'
p5312
asS'ENSG00000164778'
p5313
(lp5314
S'En2.1'
p5315
aS'MA0642.2'
p5316
aS'ERR194811'
p5317
aS'ERR195595'
p5318
aS'ERR194813'
p5319
aS'ERR194810'
p5320
aS'ERR195596'
p5321
aS'V_EN2_01_M01455'
p5322
aS'ERR195594'
p5323
aS'ERR194812'
p5324
asS'ENSG00000183072'
p5325
(lp5326
S'ERR1005087'
p5327
aS'ERR1005086'
p5328
aS'V_NKX25_02_M00241'
p5329
aS'V_NKX25_Q6_M02108'
p5330
aS'ERR1005083'
p5331
aS'V_NKX25_03_M01414'
p5332
aS'ERR1005084'
p5333
aS'V_NKX25_Q5_M01043'
p5334
aS'ERR1005085'
p5335
aS'ERR1005089'
p5336
aS'ERR1005088'
p5337
aS'MA0063.2'
p5338
aS'Nkx2-5.1'
p5339
aS'ERR1005082'
p5340
asS'ENSG00000198914'
p5341
(lp5342
S'V_OCTAMER_01_M01324'
p5343
aS'ERR195432'
p5344
aS'ERR195431'
p5345
aS'Pou3f3.1'
p5346
aS'V_POU3F3_01_M03090'
p5347
aS'MA0788.1'
p5348
asS'ENSG00000119725'
p5349
(lp5350
S'ERR188896'
p5351
aS'ERR188897'
p5352
aS'V_ZFP410_04_M02936'
p5353
aS'V_ZFP410_03_M02832'
p5354
aS'ERR1007113'
p5355
aS'ERR1007112'
p5356
aS'ERR1007111'
p5357
aS'ERR1007110'
p5358
aS'ERR1007117'
p5359
aS'MA0752.1'
p5360
aS'ERR1007115'
p5361
aS'ERR1007114'
p5362
aS'ERR1007116'
p5363
asS'ENSG00000088876'
p5364
(lp5365
S'MA1711.1'
p5366
aS'ERR1007074'
p5367
aS'ERR1007075'
p5368
aS'ERR1007076'
p5369
aS'ERR1007077'
p5370
aS'ERR1007072'
p5371
asS'ENSG00000184828'
p5372
(lp5373
S'MA0695.1'
p5374
aS'ERR194586'
p5375
asS'ENSG00000162761'
p5376
(lp5377
S'Lmx1a.1'
p5378
aS'ERR195671'
p5379
aS'V_LMX1_01_M01409'
p5380
aS'MA0702.2'
p5381
asS'ENSG00000178919'
p5382
(lp5383
S'ERR1003294'
p5384
aS'ERR1003295'
p5385
aS'ERR1003297'
p5386
aS'ERR1003290'
p5387
aS'ERR1003291'
p5388
aS'ERR1003292'
p5389
aS'ERR1003293'
p5390
aS'MA1487.2'
p5391
asS'ENSG00000135638'
p5392
(lp5393
S'ERR1002944'
p5394
aS'ERR1002946'
p5395
aS'ERR1002945'
p5396
aS'ERR1002953'
p5397
aS'MA0612.2'
p5398
aS'ERR1002940'
p5399
aS'ERR1002938'
p5400
aS'ERR194288'
p5401
aS'ERR194293'
p5402
aS'ERR194292'
p5403
aS'ERR194291'
p5404
aS'ERR194290'
p5405
asS'ENSG00000124664'
p5406
(lp5407
S'ERR1006248'
p5408
aS'ERR1006240'
p5409
aS'V_PDEF_02_M02075'
p5410
aS'ERR1006242'
p5411
aS'ERR1006243'
p5412
aS'ERR1006244'
p5413
aS'ERR1006245'
p5414
aS'ERR193735'
p5415
aS'ERR193737'
p5416
aS'ERR193736'
p5417
aS'V_SPDEF_03_M02811'
p5418
aS'Spdef.2'
p5419
aS'Spdef.1'
p5420
aS'V_PDEF_01_M02040'
p5421
aS'ERR1006241'
p5422
aS'ERR193740'
p5423
aS'ERR193741'
p5424
aS'ERR1006253'
p5425
aS'ERR1006252'
p5426
aS'ERR1006251'
p5427
aS'ERR1006250'
p5428
aS'ERR1006239'
p5429
aS'ERR1006238'
p5430
aS'V_SPDEF_04_M02915'
p5431
aS'MA0686.1'
p5432
asS'ENSG00000150594'
p5433
(lp5434
S'ERR1007056'
p5435
aS'ERR1007058'
p5436
aS'ERR1007061'
p5437
aS'ERR1007060'
p5438
aS'ERR1007059'
p5439
aS'ERR1007057'
p5440
aS'ERR1007054'
p5441
aS'ERR1007055'
p5442
asS'ENSG00000230797'
p5443
(lp5444
S'MA0748.2'
p5445
aS'ERR1006756'
p5446
aS'ERR1006757'
p5447
aS'ERR1006754'
p5448
aS'ERR1006755'
p5449
aS'ERR1006752'
p5450
aS'ERR1006753'
p5451
aS'ERR1006750'
p5452
aS'ERR193956'
p5453
aS'ERR193957'
p5454
aS'ERR193955'
p5455
aS'ERR195520'
p5456
asS'ENSG00000120705'
p5457
(lp5458
g4039
aS'MA0760.1'
p5459
aS'MA1939.1'
p5460
aS'MA1937.1'
p5461
aS'V_ERF_02_M02061'
p5462
aS'ERR194967'
p5463
aS'ERR194966'
p5464
ag930
aS'V_ERF_01_M01984'
p5465
ag1316
aS'MA1935.1'
p5466
aS'ERR194968'
p5467
asS'ENSG00000108813'
p5468
(lp5469
S'ERR1002631'
p5470
aS'ERR1002630'
p5471
aS'ERR1002633'
p5472
aS'ERR1002632'
p5473
aS'V_DLX7_01_M01486'
p5474
aS'Dlx4.1'
p5475
asS'ENSG00000196652'
p5476
(lp5477
S'MA1652.1'
p5478
asS'ENSG00000007866'
p5479
(lp5480
S'ERR194553'
p5481
aS'ERR194554'
p5482
aS'ERR194555'
p5483
aS'ERR194556'
p5484
aS'ERR194557'
p5485
aS'MA0808.1'
p5486
asS'ENSG00000163666'
p5487
(lp5488
S'ERR1003664'
p5489
aS'ERR1003669'
p5490
aS'ERR1003668'
p5491
aS'MA0894.1'
p5492
aS'ERR195614'
p5493
aS'ERR195615'
p5494
aS'ERR195616'
p5495
aS'ERR1003662'
p5496
aS'ERR1003665'
p5497
aS'ERR1003663'
p5498
aS'ERR1003667'
p5499
aS'ERR1003666'
p5500
asS'ENSG00000181722'
p5501
(lp5502
S'ERR1006806'
p5503
aS'ERR1006807'
p5504
aS'ERR1006811'
p5505
aS'ERR1006810'
p5506
aS'ERR1006813'
p5507
aS'ERR1006812'
p5508
aS'ERR1006808'
p5509
aS'ERR1006809'
p5510
asS'ENSG00000163848'
p5511
(lp5512
S'V_CACCCBINDINGFACTOR_Q6_M00721'
p5513
aS'V_ZBP89_Q4_M01816'
p5514
aS'MA1653.1'
p5515
asS'ENSG00000170265'
p5516
(lp5517
S'ERR188892'
p5518
aS'ERR188893'
p5519
aS'MA1154.1'
p5520
aS'ERR1007040'
p5521
aS'ERR1007042'
p5522
aS'ERR1007045'
p5523
aS'ERR1007044'
p5524
asS'ENSG00000165606'
p5525
(lp5526
S'ERR195156'
p5527
ag2335
ag956
aS'ERR195155'
p5528
aS'ERR195154'
p5529
aS'ERR1002731'
p5530
aS'ERR1002732'
p5531
aS'ERR1002733'
p5532
aS'ERR1002734'
p5533
aS'ERR1002735'
p5534
aS'ERR1002736'
p5535
aS'MA1481.1'
p5536
aS'ERR195153'
p5537
ag4260
aS'ERR1002737'
p5538
asS'ENSG00000188779'
p5539
(lp5540
S'ERR1006022'
p5541
aS'ERR1006023'
p5542
aS'ERR1006024'
p5543
aS'ERR1006025'
p5544
aS'ERR1006026'
p5545
aS'ERR1006027'
p5546
aS'ERR1006028'
p5547
aS'ERR1006029'
p5548
asS'ENSG00000130165'
p5549
(lp5550
S'ERR1002841'
p5551
aS'MA0473.3'
p5552
aS'V_ELF_02_M02053'
p5553
aS'ERR1002834'
p5554
aS'ERR1002832'
p5555
aS'MA1952.1'
p5556
aS'ERR1002830'
p5557
aS'ERR1002828'
p5558
aS'ERR1002836'
p5559
aS'ERR1002840'
p5560
ag4047
aS'ERR1002837'
p5561
aS'ERR1002839'
p5562
aS'ERR1002838'
p5563
aS'V_ELF1_01_M01975'
p5564
aS'V_ELF1_Q6_M00746'
p5565
asS'ENSG00000107187'
p5566
(lp5567
S'V_LHX3b_01_M01971'
p5568
aS'V_LHX3A_01_M00510'
p5569
aS'Lhx3.1'
p5570
aS'V_LHX3_01_M01471'
p5571
asS'ENSG00000155090'
p5572
(lp5573
S'ERR1004385'
p5574
aS'ERR1004384'
p5575
aS'ERR1004383'
p5576
aS'ERR1004382'
p5577
aS'ERR1004381'
p5578
aS'ERR1004380'
p5579
aS'ERR1004378'
p5580
aS'ERR1004379'
p5581
asS'ENSG00000162599'
p5582
(lp5583
S'ERR185053'
p5584
aS'V_NF1A_Q6_M02103'
p5585
aS'MA0670.1'
p5586
aS'ERR185051'
p5587
aS'ERR185052'
p5588
asS'ENSG00000144355'
p5589
(lp5590
S'Dlx1.1'
p5591
aS'V_DLX1_01_M01439'
p5592
aS'ERR1002576'
p5593
asS'ENSG00000070444'
p5594
(lp5595
S'MA0825.1'
p5596
asS'ENSG00000132005'
p5597
(lp5598
S'MA0509.3'
p5599
aS'ERR1005829'
p5600
aS'ERR1005828'
p5601
aS'ERR1005832'
p5602
aS'ERR1005827'
p5603
aS'ERR1005826'
p5604
aS'V_RFX1_01_M00280'
p5605
aS'ERR1005833'
p5606
aS'ERR1005830'
p5607
aS'ERR1005831'
p5608
ag5092
aS'V_MIF1_01_M00279'
p5609
aS'V_RFX1_02_M00281'
p5610
aS'V_RFX_Q6_M00975'
p5611
asS'ENSG00000008441'
p5612
(lp5613
S'ERR188784'
p5614
aS'ERR188785'
p5615
aS'ERR1005026'
p5616
aS'ERR1005032'
p5617
aS'ERR195018'
p5618
aS'ERR1005030'
p5619
aS'ERR1005031'
p5620
aS'ERR195017'
p5621
aS'ERR195019'
p5622
aS'ERR188783'
p5623
aS'ERR1005033'
p5624
aS'ERR195020'
p5625
aS'MA1528.1'
p5626
aS'MA0671.1'
p5627
asS'ENSG00000119614'
p5628
(lp5629
S'ERR195760'
p5630
aS'ERR195758'
p5631
aS'MA0726.1'
p5632
aS'ERR1006712'
p5633
aS'ERR1006713'
p5634
aS'ERR1006710'
p5635
aS'ERR1006711'
p5636
aS'ERR1006716'
p5637
aS'ERR1006717'
p5638
aS'ERR1006714'
p5639
aS'ERR1006715'
p5640
aS'ERR195759'
p5641
aS'ERR195757'
p5642
aS'V_CHX10_01_M00437'
p5643
asS'ENSG00000141946'
p5644
(lp5645
S'MA1709.1'
p5646
asS'ENSG00000198963'
p5647
(lp5648
S'MA1150.1'
p5649
aS'ERR1005890'
p5650
aS'ERR1005891'
p5651
aS'ERR1005894'
p5652
aS'ERR1005895'
p5653
aS'ERR1005896'
p5654
aS'ERR1005897'
p5655
asS'ENSG00000162624'
p5656
(lp5657
S'ERR194394'
p5658
aS'ERR194392'
p5659
aS'ERR194393'
p5660
aS'ERR194391'
p5661
aS'Lhx8.1'
p5662
aS'ERR1004564'
p5663
aS'ERR1004562'
p5664
aS'ERR1004558'
p5665
aS'V_LHX8_01_M01440'
p5666
asS'ENSG00000168484'
p5667
(lp5668
S'MA1965.1'
p5669
asS'ENSG00000066136'
p5670
(lp5671
S'MA1644.1'
p5672
aS'V_NFYC_Q5_M02107'
p5673
asS'ENSG00000288204'
p5674
(lp5675
S'Hmx1.1'
p5676
aS'V_HMX1_02_M01481'
p5677
aS'V_HMX1_01_M00433'
p5678
aS'ERR195623'
p5679
aS'ERR195624'
p5680
asS'ENSG00000175832'
p5681
(lp5682
S'ERR1003117'
p5683
aS'ERR1003116'
p5684
aS'ERR1003115'
p5685
aS'ERR1003114'
p5686
aS'MA0764.3'
p5687
aS'ERR1003119'
p5688
aS'ERR1003118'
p5689
aS'ERR194198'
p5690
aS'ERR194199'
p5691
aS'ERR194196'
p5692
aS'ERR194197'
p5693
aS'ERR1003128'
p5694
aS'ERR1003129'
p5695
aS'ERR1003126'
p5696
aS'ERR1003127'
p5697
aS'ERR1003124'
p5698
aS'ERR1003125'
p5699
aS'ERR1003123'
p5700
aS'ERR1003120'
p5701
aS'ERR1003121'
p5702
aS'Etv4.1'
p5703
aS'V_PEA3_02_M02066'
p5704
aS'V_PEA3_01_M01991'
p5705
asS'ENSG00000010030'
p5706
(lp5707
S'V_ETV7_01_M02071'
p5708
aS'V_TEL2_Q6_M00678'
p5709
aS'MA1708.1'
p5710
aS'ERR1003144'
p5711
aS'ERR1003145'
p5712
aS'ERR1003141'
p5713
aS'ERR1003142'
p5714
aS'ERR1003143'
p5715
asS'ENSG00000120149'
p5716
(lp5717
S'ERR195016'
p5718
aS'Msx2.1'
p5719
aS'MA0708.2'
p5720
aS'ERR195015'
p5721
aS'V_MSX2_01_M01393'
p5722
asS'ENSG00000185960'
p5723
(lp5724
S'ERR188837'
p5725
aS'ERR188835'
p5726
aS'ERR1005964'
p5727
aS'ERR1005965'
p5728
aS'ERR1005966'
p5729
aS'MA0630.1'
p5730
aS'ERR1005968'
p5731
aS'ERR1005969'
p5732
asS'ENSG00000124216'
p5733
(lp5734
S'MA1558.1'
p5735
aS'ERR1006055'
p5736
aS'ERR1006061'
p5737
aS'ERR1006057'
p5738
aS'ERR1006058'
p5739
aS'ERR1006059'
p5740
aS'ERR1006060'
p5741
asS'ENSG00000185630'
p5742
(lp5743
S'ERR1005525'
p5744
aS'V_PBX1_03_M01017'
p5745
aS'ERR1005523'
p5746
aS'V_PBX_Q3_M00998'
p5747
aS'Pbx1.1'
p5748
aS'V_PBX1_Q3_M02028'
p5749
aS'V_PBX1_05_M01967'
p5750
aS'MA0070.1'
p5751
aS'V_PBX1_02_M00124'
p5752
aS'V_PBX1_04_M01357'
p5753
aS'V_PBX1_01_M00096'
p5754
aS'ERR1005532'
p5755
aS'ERR1005530'
p5756
asS'ENSG00000170581'
p5757
(lp5758
S'MA0517.1'
p5759
asS'ENSG00000144792'
p5760
(lp5761
S'ERR1007187'
p5762
aS'ERR1007188'
p5763
aS'ERR1007189'
p5764
aS'ERR1007193'
p5765
aS'ERR1007192'
p5766
aS'ERR1007191'
p5767
aS'ERR1007190'
p5768
asS'ENSG00000110435'
p5769
(lp5770
S'MA0132.2'
p5771
aS'V_IPF1_Q4_01_M01013'
p5772
aS'V_IPF1_Q4_M00436'
p5773
aS'V_IPF1_04_M01236'
p5774
aS'V_IPF1_01_M01233'
p5775
aS'ERR194443'
p5776
aS'ERR194440'
p5777
aS'ERR194441'
p5778
aS'V_IPF1_03_M01235'
p5779
aS'V_IPF1_06_M01438'
p5780
aS'V_IPF1_02_M01234'
p5781
aS'V_IPF1_05_M01255'
p5782
aS'ERR194439'
p5783
asS'ENSG00000052850'
p5784
(lp5785
S'V_ALX4_01_M00619'
p5786
aS'ERR194675'
p5787
aS'ERR194677'
p5788
aS'ERR194676'
p5789
aS'ERR1002077'
p5790
aS'ERR194674'
p5791
aS'ERR1002079'
p5792
aS'ERR1002080'
p5793
aS'ERR194919'
p5794
aS'ERR194678'
p5795
aS'V_ALX4_02_M01417'
p5796
aS'ERR194917'
p5797
aS'ERR194918'
p5798
aS'V_ALX4_03_M02944'
p5799
aS'Alx4.1'
p5800
aS'ERR1002078'
p5801
aS'ERR1002081'
p5802
asS'ENSG00000148200'
p5803
(lp5804
S'ERR1005287'
p5805
aS'ERR1005292'
p5806
aS'ERR1005293'
p5807
aS'ERR1005290'
p5808
aS'ERR1005291'
p5809
aS'ERR1005289'
p5810
aS'V_GCNF_01_M00526'
p5811
aS'ERR1005288'
p5812
aS'MA1541.1'
p5813
aS'V_GCNF_Q3_M02009'
p5814
asS'ENSG00000162419'
p5815
(lp5816
S'V_GMEB1_03_M02761'
p5817
aS'V_GMEB1_04_M02865'
p5818
aS'Gmeb1.2'
p5819
aS'Gmeb1.1'
p5820
aS'ERR1003556'
p5821
aS'ERR1003554'
p5822
aS'ERR1003560'
p5823
aS'ERR1003558'
p5824
asS'ENSG00000101190'
p5825
(lp5826
S'ERR1006422'
p5827
aS'MA0632.2'
p5828
asS'ENSG00000124092'
p5829
(lp5830
S'MA1102.2'
p5831
asS'ENSG00000091010'
p5832
(lp5833
S'ERR195445'
p5834
aS'ERR1005700'
p5835
aS'ERR195447'
p5836
aS'ERR1005699'
p5837
aS'ERR1005687'
p5838
aS'ERR1005701'
p5839
aS'ERR1005686'
p5840
aS'Pou4f3.1'
p5841
aS'ERR1005695'
p5842
aS'ERR195448'
p5843
aS'MA0791.1'
p5844
aS'ERR1005693'
p5845
aS'ERR1005691'
p5846
aS'ERR1005696'
p5847
aS'ERR1005697'
p5848
aS'ERR1005694'
p5849
aS'ERR195446'
p5850
aS'ERR1005689'
p5851
aS'ERR1005688'
p5852
aS'ERR1005698'
p5853
aS'V_BRN3C_01_M01408'
p5854
asS'ENSG00000125812'
p5855
(lp5856
S'V_GZF1_01_M01069'
p5857
asS'ENSG00000180535'
p5858
(lp5859
S'ERR195106'
p5860
aS'MA0607.2'
p5861
aS'ERR195108'
p5862
aS'ERR1002323'
p5863
aS'ERR1002322'
p5864
aS'ERR195107'
p5865
aS'ERR1002327'
p5866
aS'ERR1002326'
p5867
aS'ERR1002325'
p5868
aS'ERR1002324'
p5869
aS'ERR1002329'
p5870
aS'ERR1002328'
p5871
asS'ENSG00000163435'
p5872
(lp5873
S'MA0640.2'
p5874
aS'V_ESE1_01_M01977'
p5875
aS'Elf3.2'
p5876
aS'Elf3.3'
p5877
aS'Elf3.1'
p5878
aS'ERR1002873'
p5879
aS'ERR1002872'
p5880
aS'ERR1002871'
p5881
aS'ERR1002870'
p5882
aS'V_ESE1_02_M02055'
p5883
aS'ERR1002859'
p5884
aS'ERR1002858'
p5885
aS'V_ELF4_04_M02850'
p5886
aS'V_ESE1_Q3_M01214'
p5887
aS'ERR195171'
p5888
aS'ERR195170'
p5889
aS'ERR195172'
p5890
aS'ERR1002868'
p5891
aS'ERR1002860'
p5892
aS'ERR1002861'
p5893
aS'ERR1002862'
p5894
aS'ERR1002863'
p5895
aS'ERR1002864'
p5896
aS'ERR1002865'
p5897
aS'ERR1002866'
p5898
asS'ENSG00000104856'
p5899
(lp5900
g1053
aS'MA1117.1'
p5901
asS'ENSG00000101216'
p5902
(lp5903
S'ERR194628'
p5904
aS'ERR194629'
p5905
aS'ERR194631'
p5906
aS'ERR194630'
p5907
aS'ERR194627'
p5908
aS'ERR1003563'
p5909
aS'ERR195214'
p5910
aS'ERR1003564'
p5911
aS'ERR1003562'
p5912
aS'MA0862.1'
p5913
asS'ENSG00000180532'
p5914
(lp5915
S'Zscan4.1'
p5916
aS'MA1155.1'
p5917
aS'V_GM397_03_M02760'
p5918
aS'ERR1007334'
p5919
aS'ERR195102'
p5920
aS'ERR1007336'
p5921
aS'V_ZSCAN4_04_M02942'
p5922
aS'ERR195103'
p5923
aS'ERR1007341'
p5924
aS'ERR1007335'
p5925
aS'ERR195104'
p5926
aS'V_GM497_04_M02864'
p5927
aS'ERR1007337'
p5928
aS'ERR1007340'
p5929
aS'Zscan4.2'
p5930
aS'ERR1007339'
p5931
aS'ERR1007338'
p5932
aS'V_ZSCAN4_03_M02838'
p5933
aS'Gm397.2'
p5934
aS'Gm397.1'
p5935
asS'ENSG00000156925'
p5936
(lp5937
S'ERR1006936'
p5938
aS'ERR1006937'
p5939
aS'ERR1006934'
p5940
aS'ERR1006935'
p5941
aS'ERR1006932'
p5942
aS'ERR1006933'
p5943
aS'ERR1006930'
p5944
aS'ERR1006931'
p5945
aS'V_ZIC3_05_M02941'
p5946
aS'ERR1006938'
p5947
aS'ERR1006939'
p5948
aS'ERR1006940'
p5949
aS'V_ZIC3_04_M02837'
p5950
aS'ERR194143'
p5951
aS'Zic3.1'
p5952
aS'ERR1006941'
p5953
aS'Zic3.2'
p5954
aS'ERR1006929'
p5955
aS'ERR1006928'
p5956
aS'ERR194145'
p5957
aS'V_ZIC3_01_M00450'
p5958
aS'ERR194144'
p5959
aS'ERR193960'
p5960
aS'ERR193961'
p5961
asS'ENSG00000124827'
p5962
(lp5963
S'MA0767.1'
p5964
asS'ENSG00000160199'
p5965
(lp5966
S'ERR1005609'
p5967
aS'ERR1005608'
p5968
aS'ERR1005618'
p5969
aS'ERR1005619'
p5970
aS'Pknox1.1'
p5971
aS'V_PREP1_01_M01459'
p5972
aS'ERR1005612'
p5973
aS'ERR1005613'
p5974
aS'ERR1005610'
p5975
aS'ERR1005611'
p5976
aS'ERR1005616'
p5977
aS'ERR1005617'
p5978
aS'ERR1005621'
p5979
aS'ERR1005615'
p5980
aS'ERR1005620'
p5981
aS'ERR195415'
p5982
aS'ERR1005606'
p5983
aS'ERR195416'
p5984
aS'MA0782.2'
p5985
asS'ENSG00000198046'
p5986
(lp5987
S'MA1984.1'
p5988
asS'ENSG00000116035'
p5989
(lp5990
S'Vax2.1'
p5991
aS'MA0723.2'
p5992
aS'V_VAX2_01_M01327'
p5993
asS'ENSG00000171163'
p5994
(lp5995
S'MA1986.1'
p5996
asS'ENSG00000183960'
p5997
(lp5998
S'MA0759.2'
p5999
aS'Elk3.1'
p6000
aS'ERR1002918'
p6001
aS'ERR1002919'
p6002
aS'ERR1002914'
p6003
aS'ERR1002915'
p6004
aS'ERR1002916'
p6005
aS'ERR1002917'
p6006
aS'ERR188724'
p6007
aS'ERR188725'
p6008
aS'ERR188722'
p6009
aS'ERR188723'
p6010
ag4041
aS'V_NET_02_M02060'
p6011
aS'V_NET_01_M01982'
p6012
aS'ERR1002929'
p6013
aS'ERR1002928'
p6014
aS'ERR1002921'
p6015
aS'ERR1002920'
p6016
aS'ERR1002922'
p6017
aS'ERR1002925'
p6018
aS'ERR1002924'
p6019
aS'ERR1002927'
p6020
aS'ERR1002926'
p6021
asS'ENSG00000124766'
p6022
(lp6023
S'V_SOX5_07_M02909'
p6024
aS'ERR194235'
p6025
aS'V_SOX4_01_M01308'
p6026
aS'SOX4.1'
p6027
aS'ERR1006161'
p6028
aS'ERR1006160'
p6029
aS'ERR1006163'
p6030
aS'ERR1006162'
p6031
aS'Sox4.2'
p6032
aS'ERR1006164'
p6033
aS'Sox4.1'
p6034
aS'ERR1006165'
p6035
aS'MA0867.2'
p6036
asS'ENSG00000141542'
p6037
(lp6038
g2581
asS'ENSG00000170345'
p6039
(lp6040
S'ERR1003209'
p6041
aS'MA1951.1'
p6042
aS'MA0476.1'
p6043
ag3362
aS'ERR1003206'
p6044
ag3367
aS'MA1134.1'
p6045
ag2938
asS'ENSG00000100105'
p6046
(lp6047
S'MA1961.1'
p6048
aS'V_MAZR_01_M00491'
p6049
asS'ENSG00000182986'
p6050
(lp6051
S'MA1976.1'
p6052
asS'ENSG00000171606'
p6053
(lp6054
S'MA1592.1'
p6055
aS'ERR1007021'
p6056
aS'ERR1007020'
p6057
aS'ERR1007016'
p6058
aS'ERR1007017'
p6059
aS'ERR1007014'
p6060
aS'ERR1007015'
p6061
aS'ERR1007018'
p6062
aS'ERR1007019'
p6063
asS'ENSG00000083812'
p6064
(lp6065
S'MA1977.1'
p6066
asS'ENSG00000131196'
p6067
(lp6068
S'ERR1004972'
p6069
aS'ERR1004973'
p6070
aS'ERR1004974'
p6071
aS'ERR1004975'
p6072
aS'ERR1004976'
p6073
aS'ERR1004977'
p6074
aS'V_NFAT2_01_M01748'
p6075
aS'V_NFAT2_02_M01749'
p6076
aS'ERR193856'
p6077
aS'ERR193857'
p6078
asS'ENSG00000083817'
p6079
(lp6080
S'MA1979.1'
p6081
asS'ENSG00000138136'
p6082
(lp6083
S'MA0618.1'
p6084
asS'ENSG00000177508'
p6085
(lp6086
S'ERR195659'
p6087
aS'ERR1004288'
p6088
aS'ERR1004289'
p6089
aS'Irx3.2'
p6090
aS'ERR1004284'
p6091
aS'ERR195660'
p6092
aS'ERR1004283'
p6093
aS'V_IRX3_01_M01318'
p6094
aS'ERR1004286'
p6095
aS'ERR1004287'
p6096
aS'V_IRX3_02_M01485'
p6097
aS'ERR1004285'
p6098
asS'ENSG00000165556'
p6099
(lp6100
S'ERR1002393'
p6101
aS'ERR1002390'
p6102
aS'ERR1002391'
p6103
aS'V_CDX2_Q5_01_M01659'
p6104
aS'ERR1002387'
p6105
aS'ERR1002386'
p6106
aS'ERR1002389'
p6107
aS'ERR1002388'
p6108
aS'V_CDX2_01_M01449'
p6109
aS'ERR195136'
p6110
aS'V_CDX2_Q5_M00729'
p6111
aS'ERR195135'
p6112
aS'MA0465.2'
p6113
aS'Cdx2.1'
p6114
asS'ENSG00000184058'
p6115
(lp6116
S'ERR194525'
p6117
aS'ERR194524'
p6118
aS'ERR194527'
p6119
aS'ERR194526'
p6120
aS'ERR1006305'
p6121
aS'ERR1006307'
p6122
aS'ERR1006303'
p6123
aS'ERR1006309'
p6124
asS'ENSG00000148516'
p6125
(lp6126
S'MA0103.3'
p6127
aS'V_AREB6_02_M00413'
p6128
aS'V_AREB6_01_M00412'
p6129
aS'V_AREB6_03_M00414'
p6130
aS'V_DELTAEF1_01_M00073'
p6131
aS'V_AREB6_04_M00415'
p6132
asS'ENSG00000063515'
p6133
(lp6134
S'ERR194027'
p6135
aS'ERR194029'
p6136
aS'MA0891.1'
p6137
aS'ERR1003593'
p6138
aS'ERR1003591'
p6139
aS'ERR1003597'
p6140
asS'ENSG00000128652'
p6141
(lp6142
S'ERR1004075'
p6143
aS'ERR1004077'
p6144
aS'Hoxd3.1'
p6145
aS'ERR1004076'
p6146
aS'ERR194701'
p6147
aS'ERR194700'
p6148
aS'ERR194703'
p6149
aS'ERR194702'
p6150
aS'V_HOXD3_01_M01338'
p6151
aS'MA0912.2'
p6152
asS'ENSG00000069667'
p6153
(lp6154
S'MA0072.1'
p6155
aS'ERR194478'
p6156
aS'ERR194477'
p6157
aS'V_RORA2_01_M00157'
p6158
aS'ERR194479'
p6159
aS'V_RORA1_01_M00156'
p6160
aS'V_RORA_Q4_M01138'
p6161
aS'MA0071.1'
p6162
asS'ENSG00000124782'
p6163
(lp6164
S'V_RREB1_01_M00257'
p6165
aS'MA0073.1'
p6166
asS'ENSG00000176692'
p6167
(lp6168
S'ERR194334'
p6169
aS'ERR194335'
p6170
aS'ERR194331'
p6171
aS'ERR194332'
p6172
aS'ERR194333'
p6173
aS'ERR1003266'
p6174
aS'ERR1003272'
p6175
aS'MA0846.1'
p6176
asS'ENSG00000128713'
p6177
(lp6178
S'MA0908.1'
p6179
aS'V_HOXD11_01_M01434'
p6180
aS'ERR1004047'
p6181
aS'Hoxd11.1'
p6182
aS'ERR1004048'
p6183
aS'ERR1004049'
p6184
aS'ERR195272'
p6185
aS'ERR1004046'
p6186
aS'ERR195271'
p6187
aS'ERR1004053'
p6188
aS'ERR1004052'
p6189
aS'ERR1004051'
p6190
aS'ERR1004050'
p6191
asS'ENSG00000139352'
p6192
(lp6193
S'ERR1002121'
p6194
aS'MA1631.1'
p6195
aS'MA1100.2'
p6196
aS'ERR1002114'
p6197
aS'ERR1002115'
p6198
aS'ERR1002116'
p6199
aS'ERR1002119'
p6200
asS'ENSG00000166478'
p6201
(lp6202
S'ERR194911'
p6203
aS'ERR194912'
p6204
aS'V_STAF_02_M00264'
p6205
aS'MA0088.2'
p6206
aS'V_STAF_01_M00262'
p6207
asS'ENSG00000128714'
p6208
(lp6209
S'ERR1004062'
p6210
aS'ERR1004063'
p6211
aS'ERR188761'
p6212
aS'ERR1004066'
p6213
aS'ERR1004067'
p6214
aS'ERR188759'
p6215
aS'ERR1004065'
p6216
aS'ERR188760'
p6217
aS'V_HOXD13_01_M01404'
p6218
aS'ERR1004064'
p6219
aS'ERR1004069'
p6220
aS'ERR194888'
p6221
aS'ERR188758'
p6222
aS'ERR194887'
p6223
aS'Hoxd13.1'
p6224
aS'ERR1004068'
p6225
asS'ENSG00000162992'
p6226
(lp6227
S'V_NEUROD_02_M01288'
p6228
aS'ERR1004921'
p6229
aS'MA1109.1'
p6230
aS'ERR1004917'
p6231
aS'ERR1004915'
p6232
aS'ERR1004919'
p6233
asS'ENSG00000081189'
p6234
(lp6235
S'ERR1004711'
p6236
aS'ERR1004710'
p6237
aS'MA0497.1'
p6238
aS'ERR1004712'
p6239
aS'ERR1004713'
p6240
aS'ERR1004714'
p6241
aS'ERR1004715'
p6242
aS'ERR1004716'
p6243
aS'ERR1004717'
p6244
asS'ENSG00000165891'
p6245
(lp6246
S'MA0758.1'
p6247
aS'ERR1002778'
p6248
aS'ERR1002785'
p6249
aS'ERR1002784'
p6250
aS'ERR195160'
p6251
aS'ERR1002780'
p6252
aS'ERR1002782'
p6253
asS'ENSG00000049768'
p6254
(lp6255
S'ERR1003388'
p6256
aS'ERR1003389'
p6257
aS'V_FOXP3_Q4_M00992'
p6258
aS'ERR1003391'
p6259
aS'ERR1003390'
p6260
aS'ERR1003393'
p6261
aS'ERR1003392'
p6262
aS'V_FOXP3_01_M01599'
p6263
aS'ERR195184'
p6264
asS'ENSG00000141646'
p6265
(lp6266
S'V_SMAD4_Q6_M00733'
p6267
aS'V_SMAD4_04_M02898'
p6268
asS'ENSG00000106105'
p6269
(lp6270
S'V_SMAD1_01_M01590'
p6271
asS'ENSG00000177374'
p6272
(lp6273
S'V_HIC1_06_M02867'
p6274
aS'ERR1003705'
p6275
aS'ERR195630'
p6276
aS'V_HIC1_02_M01072'
p6277
aS'V_HIC1_03_M01073'
p6278
aS'Hic1.1'
p6279
aS'V_HIC1_05_M02763'
p6280
aS'Hic1.2'
p6281
aS'ERR195632'
p6282
asS'ENSG00000173757'
p6283
(lp6284
S'V_STAT5B_01_M00459'
p6285
asS'ENSG00000169635'
p6286
(lp6287
S'MA0738.1'
p6288
asS'ENSG00000164736'
p6289
(lp6290
S'Sox17.2'
p6291
aS'Sox17.1'
p6292
aS'ERR194115'
p6293
aS'ERR194116'
p6294
aS'ERR194117'
p6295
aS'V_SOX17_04_M02904'
p6296
asS'ENSG00000078900'
p6297
(lp6298
S'MA0861.1'
p6299
aS'ERR194613'
p6300
aS'ERR194612'
p6301
aS'ERR194610'
p6302
asS'ENSG00000136944'
p6303
(lp6304
S'ERR1004604'
p6305
aS'ERR1004605'
p6306
aS'ERR1004602'
p6307
aS'ERR1004603'
p6308
aS'Lmx1b.1'
p6309
aS'V_LMX1B_01_M01363'
p6310
aS'ERR193825'
p6311
aS'ERR1004612'
p6312
aS'ERR195676'
p6313
aS'ERR193824'
p6314
aS'ERR195675'
p6315
aS'ERR1004611'
p6316
aS'MA0703.2'
p6317
aS'ERR1004613'
p6318
aS'ERR1004610'
p6319
asS'ENSG00000077092'
p6320
(lp6321
S'ERR1005805'
p6322
aS'ERR1005804'
p6323
aS'ERR1005803'
p6324
aS'ERR1005802'
p6325
aS'ERR1005801'
p6326
aS'ERR1005800'
p6327
aS'ERR194717'
p6328
aS'MA1552.1'
p6329
aS'ERR195056'
p6330
aS'ERR194718'
p6331
aS'ERR1005799'
p6332
asS'ENSG00000165259'
p6333
(lp6334
S'V_HDX_01_M01333'
p6335
aS'Hdx.1'
p6336
asS'ENSG00000273706'
p6337
(lp6338
S'V_LIM1_01_M01418'
p6339
aS'Lhx1.1'
p6340
asS'ENSG00000169155'
p6341
(lp6342
S'ERR1006859'
p6343
aS'ERR1006858'
p6344
aS'ERR1006860'
p6345
asS'ENSG00000178403'
p6346
(lp6347
S'ERR195695'
p6348
aS'ERR195696'
p6349
aS'ERR1004949'
p6350
aS'ERR1004948'
p6351
aS'MA1642.1'
p6352
aS'ERR195693'
p6353
aS'ERR1004947'
p6354
aS'ERR1004946'
p6355
aS'ERR1004952'
p6356
aS'ERR1004953'
p6357
aS'ERR1004950'
p6358
aS'ERR1004951'
p6359
aS'MA0669.1'
p6360
aS'ERR193851'
p6361
aS'ERR193852'
p6362
aS'ERR193853'
p6363
asS'ENSG00000142065'
p6364
(lp6365
S'MA1972.1'
p6366
asS'ENSG00000105967'
p6367
(lp6368
S'ERR1006538'
p6369
aS'ERR194129'
p6370
aS'ERR1006544'
p6371
aS'ERR1006542'
p6372
aS'MA0871.2'
p6373
aS'ERR1006540'
p6374
asS'ENSG00000184221'
p6375
(lp6376
S'ERR195708'
p6377
aS'ERR195706'
p6378
aS'MA0826.1'
p6379
aS'ERR195707'
p6380
aS'ERR195705'
p6381
asS'ENSG00000159184'
p6382
(lp6383
g4247
aS'ERR1003880'
p6384
aS'ERR195248'
p6385
ag4798
aS'Hoxb13.1'
p6386
aS'ERR195247'
p6387
aS'ERR195246'
p6388
aS'V_HOXB13_01_M01467'
p6389
aS'ERR1003881'
p6390
aS'ERR1003875'
p6391
aS'ERR1003876'
p6392
aS'ERR1003877'
p6393
aS'ERR1003878'
p6394
aS'ERR1003879'
p6395
aS'MA0901.2'
p6396
ag5461
asS'ENSG00000196092'
p6397
(lp6398
S'MA0014.3'
p6399
aS'V_PAX5_02_M00144'
p6400
aS'ERR195388'
p6401
aS'ERR195387'
p6402
aS'ERR195386'
p6403
aS'V_PAX5_01_M00143'
p6404
aS'ERR195385'
p6405
asS'ENSG00000009950'
p6406
(lp6407
S'ERR1004792'
p6408
aS'MA0664.1'
p6409
aS'ERR194840'
p6410
aS'ERR1004785'
p6411
aS'ERR193841'
p6412
aS'ERR193840'
p6413
aS'MA0663.1'
p6414
asS'ENSG00000147421'
p6415
(lp6416
S'ERR195620'
p6417
aS'ERR1003720'
p6418
aS'V_HMBOX1_01_M01456'
p6419
aS'ERR1003716'
p6420
aS'MA0895.1'
p6421
aS'ERR1003718'
p6422
aS'Hmbox1.1'
p6423
asS'ENSG00000126746'
p6424
(lp6425
S'ERR1007092'
p6426
aS'MA1125.1'
p6427
aS'ERR1007093'
p6428
aS'V_CIZ_01_M00734'
p6429
aS'ERR1007089'
p6430
asS'ENSG00000121454'
p6431
(lp6432
S'ERR1004540'
p6433
aS'V_LHX4_01_M01421'
p6434
aS'ERR195680'
p6435
aS'Lhx4.1'
p6436
asS'ENSG00000087903'
p6437
(lp6438
S'MA0600.2'
p6439
aS'ERR1005835'
p6440
aS'ERR188832'
p6441
aS'ERR188833'
p6442
aS'ERR1005838'
p6443
aS'ERR1005839'
p6444
aS'ERR1005836'
p6445
aS'ERR1005837'
p6446
aS'ERR1005841'
p6447
aS'ERR1005840'
p6448
aS'ERR195458'
p6449
aS'ERR195459'
p6450
aS'ERR188831'
p6451
aS'ERR195460'
p6452
aS'ERR1005834'
p6453
asS'ENSG00000167555'
p6454
(lp6455
S'MA1597.1'
p6456
asS'ENSG00000169136'
p6457
(lp6458
S'V_ATF5_01_M01295'
p6459
asS'ENSG00000105419'
p6460
(lp6461
S'ERR1004743'
p6462
aS'V_MRG2_01_M01395'
p6463
aS'ERR195315'
p6464
aS'ERR195316'
p6465
aS'Mrg2.1'
p6466
aS'ERR194077'
p6467
aS'ERR194076'
p6468
asS'ENSG00000169131'
p6469
(lp6470
S'MA1978.1'
p6471
asS'ENSG00000167074'
p6472
(lp6473
S'ERR1006446'
p6474
aS'ERR1006447'
p6475
aS'ERR1006444'
p6476
aS'ERR1006445'
p6477
aS'ERR1006442'
p6478
aS'ERR1006443'
p6479
aS'V_TEF_Q6_M00672'
p6480
aS'ERR194802'
p6481
aS'ERR1006448'
p6482
aS'ERR1006449'
p6483
aS'ERR194842'
p6484
aS'ERR194843'
p6485
aS'ERR194841'
p6486
aS'ERR194800'
p6487
aS'MA0843.1'
p6488
aS'V_TEF_01_M01305'
p6489
aS'ERR194844'
p6490
asS'ENSG00000170631'
p6491
(lp6492
S'MA1654.1'
p6493
asS'ENSG00000162772'
p6494
(lp6495
S'V_ATF3_Q6_M00513'
p6496
aS'ERR1002169'
p6497
aS'ERR1002168'
p6498
aS'ERR1002156'
p6499
aS'ERR1002157'
p6500
aS'ERR1002165'
p6501
aS'MA0605.2'
p6502
aS'ERR1002167'
p6503
aS'ERR1002166'
p6504
aS'ERR1002161'
p6505
aS'ERR1002160'
p6506
aS'ERR1002163'
p6507
aS'ERR1002158'
p6508
aS'ERR1002159'
p6509
aS'ERR1002164'
p6510
aS'ERR1002154'
p6511
aS'V_ATF3_Q6_01_M01863'
p6512
aS'ERR1002155'
p6513
asS'ENSG00000175879'
p6514
(lp6515
S'V_HOXD8_01_M01432'
p6516
aS'ERR1004099'
p6517
aS'ERR1004095'
p6518
aS'MA0910.2'
p6519
aS'Hoxd8.1'
p6520
aS'ERR195279'
p6521
asS'ENSG00000166211'
p6522
(lp6523
S'MA0687.1'
p6524
aS'V_SPIC_01_M02042'
p6525
aS'V_SPIC_02_M02077'
p6526
aS'Spic.1'
p6527
aS'ERR195732'
p6528
asS'ENSG00000133835'
p6529
(lp6530
S'ERR193775'
p6531
aS'ERR193774'
p6532
aS'ERR193777'
p6533
aS'ERR193776'
p6534
aS'V_DBP_Q6_01_M01872'
p6535
aS'ERR1002558'
p6536
aS'ERR1002559'
p6537
aS'ERR1002554'
p6538
aS'ERR1002555'
p6539
aS'ERR1002556'
p6540
aS'ERR1002557'
p6541
aS'ERR194943'
p6542
aS'ERR194942'
p6543
aS'ERR194941'
p6544
aS'ERR194944'
p6545
aS'ERR1002569'
p6546
aS'ERR1002568'
p6547
aS'ERR195576'
p6548
aS'ERR1002560'
p6549
aS'ERR1002563'
p6550
aS'ERR1002562'
p6551
aS'ERR1002565'
p6552
aS'ERR1002564'
p6553
aS'ERR1002567'
p6554
aS'ERR1002566'
p6555
aS'ERR195575'
p6556
aS'ERR195574'
p6557
aS'MA0639.1'
p6558
aS'ERR195573'
p6559
asS'ENSG00000196482'
p6560
(lp6561
S'V_ERR3_Q2_01_M02094'
p6562
aS'ERR193997'
p6563
aS'ERR193996'
p6564
asS'ENSG00000188095'
p6565
(lp6566
S'ERR1004769'
p6567
aS'ERR1004763'
p6568
aS'ERR1004765'
p6569
aS'ERR1004767'
p6570
asS'ENSG00000181965'
p6571
(lp6572
S'ERR1004945'
p6573
aS'MA0623.2'
p6574
aS'ERR1004933'
p6575
aS'ERR1004941'
p6576
aS'ERR1004940'
p6577
aS'ERR1004943'
p6578
aS'ERR1004942'
p6579
aS'ERR1004934'
p6580
aS'ERR1004935'
p6581
aS'ERR1004936'
p6582
aS'ERR1004937'
p6583
aS'ERR1004930'
p6584
aS'ERR1004931'
p6585
aS'ERR1004932'
p6586
aS'ERR1004944'
p6587
aS'ERR1004938'
p6588
aS'ERR1004939'
p6589
asS'ENSG00000119715'
p6590
(lp6591
S'MA0141.3'
p6592
aS'ERR194876'
p6593
aS'ERR194875'
p6594
aS'ERR1003041'
p6595
aS'ERR1003040'
p6596
aS'ERR1003034'
p6597
aS'ERR1003035'
p6598
aS'ERR1003036'
p6599
aS'ERR1003037'
p6600
aS'V_ERR2_01_M01589'
p6601
aS'ERR1003039'
p6602
asS'ENSG00000089116'
p6603
(lp6604
S'Lhx5.1'
p6605
aS'MA1519.1'
p6606
aS'V_LHX5_01_M01353'
p6607
asS'ENSG00000181449'
p6608
(lp6609
S'ERR188849'
p6610
aS'ERR188848'
p6611
aS'V_SOX2_Q6_M01272'
p6612
aS'ERR188845'
p6613
aS'ERR188844'
p6614
aS'V_SOX2_01_M02246'
p6615
ag313
aS'MA0143.4'
p6616
aS'ERR194105'
p6617
aS'ERR194104'
p6618
asS'ENSG00000090447'
p6619
(lp6620
S'ERR188855'
p6621
aS'ERR188856'
p6622
aS'ERR188857'
p6623
aS'MA0691.1'
p6624
aS'ERR1006487'
p6625
aS'MA1570.1'
p6626
aS'V_AP3_Q6_M00690'
p6627
aS'ERR194848'
p6628
aS'ERR1006489'
p6629
ag2360
aS'MA1966.1'
p6630
asS'ENSG00000177485'
p6631
(lp6632
S'ERR1006843'
p6633
aS'ERR1006845'
p6634
aS'MA0527.1'
p6635
aS'V_KAISO_01_M01119'
p6636
asS'ENSG00000118922'
p6637
(lp6638
S'ERR195668'
p6639
aS'ERR195667'
p6640
aS'ERR1004401'
p6641
aS'ERR1004395'
p6642
aS'ERR1004397'
p6643
aS'ERR1004399'
p6644
asS'ENSG00000148737'
p6645
(lp6646
S'ERR193941'
p6647
ag4733
aS'MA0830.2'
p6648
aS'MA0523.1'
p6649
aS'ERR193939'
p6650
aS'V_TCF7L2_04_M02922'
p6651
aS'V_TCF4_Q5_01_M02033'
p6652
aS'V_TCF4_01_M01705'
p6653
aS'Tcf7l2.2'
p6654
aS'Tcf7l2.1'
p6655
aS'V_TCF4_Q5_M00671'
p6656
asS'ENSG00000113196'
p6657
(lp6658
S'V_HAND1E47_01_M00222'
p6659
asS'ENSG00000162702'
p6660
(lp6661
S'ERR1007030'
p6662
aS'ERR1007031'
p6663
aS'ERR1007032'
p6664
aS'ERR1007033'
p6665
aS'ERR1007034'
p6666
aS'ERR1007035'
p6667
aS'ERR1007036'
p6668
aS'ERR1007037'
p6669
aS'V_ZFP281_04_M02831'
p6670
aS'V_ZFP281_05_M02935'
p6671
aS'MA1630.2'
p6672
aS'V_ZFP281_01_M01597'
p6673
asS'ENSG00000133937'
p6674
(lp6675
S'Gsc.1'
p6676
aS'ERR193801'
p6677
aS'MA0648.1'
p6678
aS'ERR1003588'
p6679
aS'ERR1003578'
p6680
aS'ERR1003575'
p6681
aS'ERR1003585'
p6682
aS'V_GSC_01_M01428'
p6683
aS'ERR1003581'
p6684
asS'ENSG00000168214'
p6685
(lp6686
S'MA1116.1'
p6687
aS'V_RBPJK_01_M01112'
p6688
asS'ENSG00000198911'
p6689
(lp6690
S'ERR1006284'
p6691
aS'ERR1006285'
p6692
ag5460
aS'ERR1006280'
p6693
aS'V_SREBP2_Q6_M01177'
p6694
aS'ERR1006282'
p6695
aS'ERR1006283'
p6696
aS'ERR195486'
p6697
aS'ERR1006278'
p6698
aS'MA0828.2'
p6699
aS'ERR195487'
p6700
ag4813
aS'ERR195488'
p6701
aS'ERR1006279'
p6702
aS'MA0596.1'
p6703
aS'ERR1006281'
p6704
asS'ENSG00000065029'
p6705
(lp6706
S'ERR1007254'
p6707
aS'ERR1007255'
p6708
aS'ERR1007256'
p6709
aS'ERR1007257'
p6710
aS'ERR1007250'
p6711
aS'ERR1007251'
p6712
aS'ERR1007252'
p6713
aS'ERR1007253'
p6714
aS'MA1716.1'
p6715
asS'ENSG00000197576'
p6716
(lp6717
S'V_HOXA4_Q2_M00640'
p6718
aS'Hoxa4.1'
p6719
aS'V_HOXA4_01_M01370'
p6720
aS'MA1496.1'
p6721
asS'ENSG00000142409'
p6722
(lp6723
S'ERR1007289'
p6724
aS'ERR1007288'
p6725
aS'ERR1007287'
p6726
aS'ERR1007286'
p6727
aS'ERR1007285'
p6728
aS'ERR1007284'
p6729
aS'ERR1007283'
p6730
aS'ERR1007282'
p6731
asS'ENSG00000160917'
p6732
(lp6733
S'ERR1002452'
p6734
aS'ERR1002454'
p6735
aS'ERR1002456'
p6736
asS'ENSG00000115297'
p6737
(lp6738
S'V_NCX_02_M01420'
p6739
aS'MA1577.1'
p6740
aS'Tlx2.1'
p6741
aS'V_NCX_01_M00484'
p6742
aS'ERR1006614'
p6743
aS'ERR1006613'
p6744
aS'ERR1006611'
p6745
asS'ENSG00000177426'
p6746
(lp6747
S'ERR1006553'
p6748
aS'ERR195516'
p6749
aS'ERR195515'
p6750
aS'Tgif1.1'
p6751
aS'V_TGIF1_01_M03111'
p6752
aS'ERR1006549'
p6753
aS'V_TGIF_02_M01346'
p6754
aS'MA0796.1'
p6755
aS'V_TGIF_01_M00418'
p6756
asS'ENSG00000028277'
p6757
(lp6758
S'ERR1005645'
p6759
aS'ERR1005644'
p6760
aS'ERR188813'
p6761
aS'MA0507.2'
p6762
aS'ERR1005639'
p6763
aS'ERR1005643'
p6764
aS'ERR1005642'
p6765
aS'V_OCT2_02_M01761'
p6766
aS'ERR1005641'
p6767
aS'ERR188811'
p6768
aS'ERR195711'
p6769
aS'ERR195710'
p6770
aS'ERR195712'
p6771
aS'Pou2f2.1'
p6772
aS'ERR1005638'
p6773
aS'ERR195709'
p6774
aS'ERR188810'
p6775
aS'V_OCT2_01_M01368'
p6776
aS'ERR188812'
p6777
aS'ERR1005640'
p6778
asS'ENSG00000100811'
p6779
(lp6780
S'V_YY1_Q6_02_M01035'
p6781
aS'V_YY1_01_M00059'
p6782
aS'ERR1006749'
p6783
aS'ERR1006748'
p6784
aS'ERR1006745'
p6785
aS'ERR1006744'
p6786
aS'ERR188870'
p6787
aS'ERR1006746'
p6788
aS'ERR1006743'
p6789
aS'ERR1006742'
p6790
aS'V_YY1_03_M02044'
p6791
aS'V_YY1_Q6_M00793'
p6792
aS'ERR188873'
p6793
aS'ERR188871'
p6794
aS'ERR1006747'
p6795
aS'V_YY1_02_M00069'
p6796
asS'ENSG00000110851'
p6797
(lp6798
S'ERR188821'
p6799
aS'ERR188820'
p6800
aS'ERR1005739'
p6801
aS'ERR1005738'
p6802
aS'ERR1005734'
p6803
aS'ERR1005735'
p6804
aS'ERR1005740'
p6805
aS'ERR1005737'
p6806
aS'ERR1005736'
p6807
aS'ERR1005741'
p6808
asS'ENSG00000197757'
p6809
(lp6810
S'V_HOXC6_01_M01406'
p6811
aS'Hoxc6.1'
p6812
asS'ENSG00000214513'
p6813
(lp6814
S'ERR194428'
p6815
aS'ERR194429'
p6816
aS'ERR1005139'
p6817
aS'ERR1005142'
p6818
aS'ERR1005140'
p6819
aS'ERR1005144'
p6820
aS'ERR194427'
p6821
aS'ERR194431'
p6822
aS'MA0710.1'
p6823
asS'ENSG00000117036'
p6824
(lp6825
S'Etv3.1'
p6826
aS'V_ETV3_01_M01990'
p6827
aS'ERR1003112'
p6828
aS'ERR1003106'
p6829
aS'ERR1003111'
p6830
aS'V_ETV3_02_M02068'
p6831
aS'ERR1003109'
p6832
aS'ERR194974'
p6833
aS'ERR194975'
p6834
aS'ERR1003108'
p6835
aS'ERR194976'
p6836
aS'ERR1003107'
p6837
aS'MA0763.1'
p6838
aS'ERR1003113'
p6839
aS'ERR1003110'
p6840
asS'ENSG00000188909'
p6841
(lp6842
S'V_BSX_01_M01442'
p6843
aS'ERR195124'
p6844
aS'Bsx.1'
p6845
aS'MA0876.1'
p6846
asS'ENSG00000006468'
p6847
(lp6848
S'ERR1003092'
p6849
aS'ERR1003093'
p6850
aS'V_ER81_02_M02065'
p6851
aS'ERR1003096'
p6852
aS'ERR1003097'
p6853
aS'MA0761.2'
p6854
aS'ERR1003095'
p6855
aS'ERR1003089'
p6856
aS'ERR194194'
p6857
aS'ERR1003086'
p6858
aS'ERR1003087'
p6859
aS'Etv1.1'
p6860
aS'ERR1003088'
p6861
aS'ERR194193'
p6862
aS'ERR1003094'
p6863
aS'ERR194195'
p6864
aS'V_ER81_01_M01987'
p6865
ag6630
asS'ENSG00000116260'
p6866
(lp6867
S'V_SOX_Q6_M01014'
p6868
asS'ENSG00000215474'
p6869
(lp6870
S'ERR1006037'
p6871
aS'ERR1006036'
p6872
aS'ERR1006035'
p6873
aS'ERR1006034'
p6874
aS'ERR1006033'
p6875
aS'ERR1006031'
p6876
aS'ERR1006030'
p6877
asS'ENSG00000182944'
p6878
(lp6879
g2351
asS'ENSG00000007968'
p6880
(lp6881
S'MA0864.2'
p6882
aS'V_E2F2_04_M02846'
p6883
aS'ERR194948'
p6884
aS'ERR1002757'
p6885
aS'ERR1002755'
p6886
aS'ERR1002758'
p6887
aS'ERR1002759'
p6888
aS'E2F2.1'
p6889
aS'E2F2.2'
p6890
aS'V_E2F2_03_M02742'
p6891
aS'ERR1002761'
p6892
aS'ERR1002760'
p6893
asS'ENSG00000174279'
p6894
(lp6895
S'ERR1003158'
p6896
aS'MA0888.1'
p6897
aS'V_EVX2_01_M01386'
p6898
aS'ERR1003157'
p6899
aS'ERR1003156'
p6900
aS'ERR1003155'
p6901
aS'ERR1003154'
p6902
aS'ERR1003160'
p6903
aS'ERR1003161'
p6904
aS'ERR195179'
p6905
aS'Evx2.1'
p6906
asS'ENSG00000100146'
p6907
(lp6908
S'ERR1006107'
p6909
aS'ERR1006106'
p6910
aS'ERR1006105'
p6911
aS'ERR194733'
p6912
aS'ERR1006101'
p6913
aS'ERR1006100'
p6914
aS'ERR1006099'
p6915
aS'MA0442.2'
p6916
aS'ERR194732'
p6917
aS'ERR1006109'
p6918
aS'ERR1006108'
p6919
aS'ERR1006104'
p6920
aS'ERR194097'
p6921
aS'ERR194096'
p6922
asS'ENSG00000120075'
p6923
(lp6924
S'ERR1003909'
p6925
aS'ERR195627'
p6926
aS'Hoxb5.1'
p6927
aS'V_HOXB5_01_M01319'
p6928
aS'ERR1003913'
p6929
aS'ERR1003912'
p6930
aS'ERR1003910'
p6931
aS'MA0904.2'
p6932
asS'ENSG00000162676'
p6933
(lp6934
S'V_GFI1_01_M00250'
p6935
aS'V_GFI1_Q6_01_M02010'
p6936
aS'ERR1003508'
p6937
aS'ERR1003509'
p6938
aS'MA0038.2'
p6939
aS'ERR1003513'
p6940
aS'ERR1003512'
p6941
aS'ERR1003511'
p6942
aS'ERR1003510'
p6943
aS'V_GFI1_Q6_M01067'
p6944
asS'ENSG00000197372'
p6945
(lp6946
S'MA1714.1'
p6947
asS'ENSG00000173480'
p6948
(lp6949
S'MA1727.1'
p6950
asS'ENSG00000172059'
p6951
(lp6952
S'V_FKLF_Q5_M01837'
p6953
aS'MA1512.1'
p6954
aS'ERR1004387'
p6955
aS'ERR1004386'
p6956
aS'ERR1004389'
p6957
aS'ERR1004388'
p6958
aS'ERR1004390'
p6959
aS'ERR1004391'
p6960
aS'ERR1004392'
p6961
aS'ERR1004393'
p6962
asS'ENSG00000106689'
p6963
(lp6964
S'ERR194387'
p6965
aS'Lhx2.1'
p6966
aS'ERR194389'
p6967
aS'ERR194388'
p6968
aS'V_LHX2_01_M01325'
p6969
aS'ERR194386'
p6970
aS'MA0700.2'
p6971
asS'ENSG00000185668'
p6972
(lp6973
S'ERR1005656'
p6974
aS'ERR1005657'
p6975
aS'ERR1005654'
p6976
aS'ERR1005655'
p6977
aS'V_TST1_02_M01316'
p6978
aS'ERR195428'
p6979
aS'ERR195427'
p6980
aS'ERR195426'
p6981
aS'ERR195425'
p6982
aS'V_TST1_01_M00133'
p6983
aS'ERR1005659'
p6984
aS'ERR1005658'
p6985
aS'MA0786.1'
p6986
aS'ERR1005661'
p6987
aS'Pou3f1.1'
p6988
asS'ENSG00000185669'
p6989
(lp6990
S'ERR1006079'
p6991
aS'ERR1006085'
p6992
aS'ERR1006082'
p6993
aS'ERR1006083'
p6994
aS'ERR1006084'
p6995
aS'MA1559.1'
p6996
asS'ENSG00000088038'
p6997
(lp6998
S'V_CNOT3_01_M01253'
p6999
asS'ENSG00000074219'
p7000
(lp7001
S'MA1121.1'
p7002
aS'ERR1006438'
p7003
aS'ERR1006437'
p7004
aS'ERR1006436'
p7005
aS'ERR1006440'
p7006
aS'ERR1006434'
p7007
aS'ERR1006439'
p7008
aS'ERR1006441'
p7009
asS'ENSG00000066336'
p7010
(lp7011
S'ERR193744'
p7012
aS'ERR193745'
p7013
aS'V_SPI1_03_M02078'
p7014
aS'ERR193743'
p7015
aS'Sfpi1.2'
p7016
aS'Sfpi1.3'
p7017
aS'V_SFPI1_04_M02896'
p7018
aS'V_SPI1_02_M02043'
p7019
aS'V_PU1_Q4_M01172'
p7020
aS'V_SPI1_01_M01203'
p7021
asS'ENSG00000172273'
p7022
(lp7023
S'ERR194994'
p7024
aS'ERR194995'
p7025
aS'ERR194996'
p7026
aS'MA0131.2'
p7027
asS'ENSG00000087510'
p7028
(lp7029
S'V_TCFAP2C_03_M02821'
p7030
aS'ERR193943'
p7031
aS'ERR195510'
p7032
aS'Tcfap2c.2'
p7033
aS'MA0814.2'
p7034
aS'Tcfap2c.1'
p7035
aS'ERR195512'
p7036
aS'ERR195511'
p7037
aS'ERR193945'
p7038
aS'ERR1006468'
p7039
aS'ERR1006470'
p7040
aS'ERR193944'
p7041
aS'MA0524.2'
p7042
aS'MA0815.1'
p7043
aS'V_TCFAP2C_04_M02925'
p7044
aS'ERR1006472'
p7045
aS'ERR1006466'
p7046
aS'ERR1006467'
p7047
asS'ENSG00000140968'
p7048
(lp7049
S'V_ICSBP_Q6_M00699'
p7050
aS'ERR1004261'
p7051
aS'ERR1004259'
p7052
aS'ERR1004258'
p7053
aS'ERR1004255'
p7054
aS'ERR1004254'
p7055
aS'ERR1004257'
p7056
aS'ERR1004256'
p7057
aS'ERR1004251'
p7058
aS'ERR1004250'
p7059
aS'ERR1004253'
p7060
aS'ERR1004252'
p7061
aS'MA0652.1'
p7062
aS'ERR195653'
p7063
aS'ERR195654'
p7064
aS'ERR195655'
p7065
aS'ERR195656'
p7066
aS'ERR193808'
p7067
aS'ERR1004260'
p7068
aS'ERR193809'
p7069
aS'ERR1004262'
p7070
aS'ERR1004263'
p7071
aS'ERR1004264'
p7072
aS'ERR1004265'
p7073
asS'ENSG00000172379'
p7074
(lp7075
S'MA1464.1'
p7076
aS'ERR1002094'
p7077
asS'ENSG00000125618'
p7078
(lp7079
S'ERR1005502'
p7080
aS'ERR1005503'
p7081
aS'ERR1005506'
p7082
aS'ERR1005507'
p7083
aS'ERR1005504'
p7084
aS'ERR1005505'
p7085
aS'ERR1005508'
p7086
aS'ERR1005509'
p7087
aS'V_PAX8_B_M00328'
p7088
aS'V_PAX8_01_M00717'
p7089
asS'ENSG00000115844'
p7090
(lp7091
S'V_DLX2_01_M01468'
p7092
aS'ERR185025'
p7093
aS'ERR185026'
p7094
aS'Dlx2.1'
p7095
asS'ENSG00000163508'
p7096
(lp7097
S'Eomes.1'
p7098
aS'Eomes.2'
p7099
aS'ERR194305'
p7100
aS'ERR194304'
p7101
aS'ERR194301'
p7102
aS'ERR194303'
p7103
aS'ERR194302'
p7104
aS'ERR1002983'
p7105
aS'V_EOMES_04_M02851'
p7106
aS'MA0800.1'
p7107
aS'V_TBR2_01_M01774'
p7108
aS'ERR1002984'
p7109
aS'V_EOMES_03_M02747'
p7110
aS'ERR1002979'
p7111
asS'ENSG00000120094'
p7112
(lp7113
S'ERR1003872'
p7114
aS'ERR1003868'
p7115
asS'ENSG00000138378'
p7116
(lp7117
S'V_STAT4_Q4_M01666'
p7118
aS'V_STAT4_Q5_M02117'
p7119
asS'ENSG00000185155'
p7120
(lp7121
S'MA0662.1'
p7122
aS'ERR1004776'
p7123
aS'ERR1004777'
p7124
aS'ERR1004774'
p7125
aS'ERR193834'
p7126
asS'ENSG00000069812'
p7127
(lp7128
S'MA0616.2'
p7129
aS'ERR1003635'
p7130
aS'ERR1003637'
p7131
asS'ENSG00000120093'
p7132
(lp7133
S'Hoxb3.1'
p7134
aS'ERR195256'
p7135
aS'ERR195253'
p7136
aS'V_HOXB3_01_M01330'
p7137
aS'MA0903.1'
p7138
asS'ENSG00000251493'
p7139
(lp7140
S'MA0031.1'
p7141
aS'V_FREAC4_01_M00292'
p7142
asS'ENSG00000186376'
p7143
(lp7144
S'MA1601.2'
p7145
asS'ENSG00000126003'
p7146
(lp7147
S'MA1548.1'
p7148
asS'ENSG00000176293'
p7149
(lp7150
S'MA1587.1'
p7151
asS'ENSG00000180318'
p7152
(lp7153
S'ERR1002050'
p7154
aS'ERR1002055'
p7155
aS'ERR1002051'
p7156
aS'ERR195533'
p7157
aS'ERR1002056'
p7158
aS'ERR195535'
p7159
aS'ERR195534'
p7160
aS'ERR1002053'
p7161
aS'ERR195536'
p7162
aS'ERR1002054'
p7163
aS'ERR1002052'
p7164
aS'ERR1002057'
p7165
asS'ENSG00000160224'
p7166
(lp7167
S'V_AIRE_02_M01000'
p7168
aS'V_AIRE_01_M00999'
p7169
asS'ENSG00000123407'
p7170
(lp7171
S'ERR1003986'
p7172
aS'Hoxc12.1'
p7173
aS'ERR195262'
p7174
aS'MA0906.1'
p7175
aS'ERR195264'
p7176
aS'ERR1003982'
p7177
aS'ERR1003983'
p7178
aS'ERR1003984'
p7179
aS'V_HOXC12_01_M01437'
p7180
aS'ERR195263'
p7181
aS'ERR1003987'
p7182
aS'ERR1003988'
p7183
aS'ERR1003989'
p7184
aS'ERR1003985'
p7185
asS'ENSG00000160221'
p7186
(lp7187
S'V_HES1_Q2_M01009'
p7188
aS'V_HES1_Q6_M02011'
p7189
aS'ERR1003628'
p7190
aS'ERR1003624'
p7191
aS'ERR1003626'
p7192
aS'ERR1003623'
p7193
aS'MA1099.2'
p7194
asS'ENSG00000123405'
p7195
(lp7196
S'MA0841.1'
p7197
aS'ERR188781'
p7198
ag2987
aS'ERR1005002'
p7199
aS'V_NFE2_01_M00037'
p7200
aS'ERR188780'
p7201
aS'ERR1005009'
p7202
aS'ERR1005008'
p7203
aS'ERR1005007'
p7204
aS'ERR1005006'
p7205
aS'ERR1005005'
p7206
aS'ERR1005004'
p7207
aS'ERR1005003'
p7208
aS'V_NFE2_Q6_M02104'
p7209
asS'ENSG00000196150'
p7210
(lp7211
S'ERR1007001'
p7212
aS'ERR1007000'
p7213
aS'ERR1007002'
p7214
asS'ENSG00000151615'
p7215
(lp7216
S'ERR195444'
p7217
aS'ERR195443'
p7218
aS'ERR195442'
p7219
aS'ERR195052'
p7220
aS'ERR195050'
p7221
aS'ERR195051'
p7222
aS'MA0683.1'
p7223
aS'ERR195049'
p7224
asS'ENSG00000092067'
p7225
(lp7226
S'ERR194940'
p7227
aS'MA0837.2'
p7228
aS'V_CEBPE_Q6_M01868'
p7229
aS'ERR1002420'
p7230
aS'ERR1002421'
p7231
aS'ERR1002422'
p7232
aS'ERR1002423'
p7233
aS'ERR1002424'
p7234
aS'ERR1002425'
p7235
aS'ERR194937'
p7236
aS'V_CEBPE_01_M01772'
p7237
aS'ERR194938'
p7238
aS'ERR194939'
p7239
aS'ERR1002419'
p7240
aS'ERR1002418'
p7241
asS'ENSG00000173404'
p7242
(lp7243
S'V_INSM1_01_M02268'
p7244
aS'MA0155.1'
p7245
asS'ENSG00000012504'
p7246
(lp7247
g2590
aS'V_FXR_Q3_M00631'
p7248
aS'V_FXR_IR1_Q6_M00767'
p7249
asS'ENSG00000129194'
p7250
(lp7251
S'V_SOX15_03_M02799'
p7252
aS'V_SOX15_04_M02903'
p7253
aS'Sox15.1'
p7254
aS'Sox15.2'
p7255
aS'MA1152.1'
p7256
aS'ERR194101'
p7257
asS'ENSG00000101883'
p7258
(lp7259
S'MA0719.1'
p7260
asS'ENSG00000173153'
p7261
(lp7262
S'V_ERR1_Q2_M00511'
p7263
aS'ERR194309'
p7264
aS'ERR194308'
p7265
aS'ERR1003022'
p7266
aS'ERR195580'
p7267
aS'V_ESRRA_04_M02852'
p7268
aS'V_ESRRA_03_M02748'
p7269
aS'V_ERR1_Q2_01_M02093'
p7270
aS'ERR195579'
p7271
aS'ERR195578'
p7272
aS'ERR188728'
p7273
aS'ERR188729'
p7274
aS'Esrra.1'
p7275
aS'Esrra.2'
p7276
aS'MA0592.3'
p7277
aS'ERR194310'
p7278
aS'ERR1003024'
p7279
aS'V_ERR1_Q3_M01841'
p7280
aS'ERR194311'
p7281
aS'ERR1003031'
p7282
aS'ERR1003033'
p7283
asS'ENSG00000065970'
p7284
(lp7285
S'V_FOXJ2_02_M00423'
p7286
aS'ERR194979'
p7287
aS'ERR1003326'
p7288
aS'V_FOXJ2_01_M00422'
p7289
aS'ERR1003324'
p7290
aS'ERR1003325'
p7291
ag5556
aS'ERR1003327'
p7292
aS'ERR1003322'
p7293
aS'ERR1003323'
p7294
aS'ERR194980'
p7295
aS'ERR1003328'
p7296
aS'ERR1003329'
p7297
asS'ENSG00000173976'
p7298
(lp7299
S'ERR194789'
p7300
aS'ERR194792'
p7301
aS'ERR194791'
p7302
aS'MA0717.1'
p7303
aS'ERR194793'
p7304
asS'ENSG00000136826'
p7305
(lp7306
S'V_GKLF_02_M01588'
p7307
aS'ERR1004474'
p7308
aS'ERR1004477'
p7309
aS'ERR1004476'
p7310
aS'MA0039.4'
p7311
aS'ERR1004470'
p7312
aS'ERR1004473'
p7313
aS'ERR1004471'
p7314
asS'ENSG00000136630'
p7315
(lp7316
S'V_HB24_01_M01399'
p7317
asS'ENSG00000184302'
p7318
(lp7319
S'Six6.2'
p7320
aS'Six6.3'
p7321
aS'V_SIX6_01_M01345'
p7322
aS'V_SIX6_08_M02897'
p7323
aS'V_SIX6_02_M01398'
p7324
asS'ENSG00000151379'
p7325
(lp7326
S'ERR1004824'
p7327
aS'ERR1004825'
p7328
aS'ERR1004822'
p7329
aS'ERR1004823'
p7330
aS'ERR1004820'
p7331
aS'ERR1004821'
p7332
aS'ERR1004819'
p7333
aS'ERR1004818'
p7334
asS'ENSG00000118689'
p7335
(lp7336
S'ERR1003362'
p7337
aS'ERR1003363'
p7338
aS'ERR1003364'
p7339
aS'ERR1003365'
p7340
aS'V_FOXO3A_Q1_M01137'
p7341
aS'V_FOXO3_01_M00477'
p7342
aS'ERR1003368'
p7343
aS'ERR1003369'
p7344
aS'ERR1003367'
p7345
aS'V_FOXO3_02_M02270'
p7346
aS'ERR1003366'
p7347
aS'ERR194988'
p7348
asS'ENSG00000116819'
p7349
(lp7350
S'MA1569.1'
p7351
aS'V_TCFAP2E_03_M02822'
p7352
aS'ERR1006480'
p7353
aS'ERR1006481'
p7354
aS'ERR1006476'
p7355
aS'ERR1006479'
p7356
aS'ERR1006478'
p7357
aS'ERR1006477'
p7358
aS'V_TCFAP2E_04_M02926'
p7359
aS'ERR1006475'
p7360
aS'Tcfap2e.1'
p7361
aS'Tcfap2e.2'
p7362
asS'ENSG00000104447'
p7363
(lp7364
S'MA1970.1'
p7365
asS'ENSG00000121417'
p7366
(lp7367
S'MA1974.1'
p7368
asS'ENSG00000064195'
p7369
(lp7370
S'Dlx3.1'
p7371
aS'V_DLX3_01_M01400'
p7372
aS'V_DLX3_02_M02051'
p7373
asS'ENSG00000212993'
p7374
(lp7375
S'ERR195449'
p7376
aS'MA0792.1'
p7377
aS'ERR195452'
p7378
aS'ERR195450'
p7379
aS'ERR195451'
p7380
asS'ENSG00000204366'
p7381
(lp7382
S'V_ZBTB12_04_M02928'
p7383
aS'MA1649.1'
p7384
aS'ERR1006772'
p7385
aS'ERR1006773'
p7386
aS'V_ZBTB12_03_M02824'
p7387
aS'Zbtb12.1'
p7388
aS'Zbtb12.2'
p7389
asS'ENSG00000168779'
p7390
(lp7391
S'ERR195728'
p7392
aS'ERR195727'
p7393
aS'ERR195480'
p7394
aS'Shox2.1'
p7395
aS'ERR195478'
p7396
aS'ERR195479'
p7397
aS'V_SHOX2_01_M01415'
p7398
asS'ENSG00000175592'
p7399
(lp7400
S'ERR1003219'
p7401
aS'ERR1003220'
p7402
ag2933
aS'MA0477.2'
p7403
ag2934
aS'MA1137.1'
p7404
aS'V_FRA1_Q5_M01267'
p7405
aS'V_FRA1_Q6_M02095'
p7406
aS'ERR1003223'
p7407
aS'ERR1003222'
p7408
aS'ERR1003224'
p7409
ag3358
aS'ERR1003218'
p7410
ag3359
asS'ENSG00000116132'
p7411
(lp7412
S'ERR188825'
p7413
aS'V_K2B_01_M01348'
p7414
aS'MA0716.1'
p7415
aS'ERR188822'
p7416
aS'ERR188824'
p7417
aS'ERR193724'
p7418
aS'ERR193725'
p7419
aS'Prrx1.1'
p7420
asS'ENSG00000198517'
p7421
(lp7422
S'ERR193829'
p7423
aS'ERR193828'
p7424
aS'ERR194404'
p7425
aS'MA0496.3'
p7426
aS'ERR248789'
p7427
aS'ERR194407'
p7428
aS'ERR194402'
p7429
aS'ERR194406'
p7430
aS'V_MAFK_Q3_M02022'
p7431
aS'Mafk.1'
p7432
aS'ERR194405'
p7433
aS'Mafk.2'
p7434
aS'V_MAFK_03_M02776'
p7435
aS'ERR193827'
p7436
aS'V_MAFK_04_M02880'
p7437
asS'ENSG00000159556'
p7438
(lp7439
S'ERR194378'
p7440
aS'ERR1004320'
p7441
aS'MA0914.1'
p7442
aS'ERR194383'
p7443
aS'ERR194382'
p7444
aS'V_ISL2_01_M01328'
p7445
aS'Isl2.1'
p7446
asS'ENSG00000106038'
p7447
(lp7448
S'MA1960.1'
p7449
aS'V_EVX1_01_M01475'
p7450
aS'ERR1003150'
p7451
aS'ERR195584'
p7452
aS'MA0887.1'
p7453
aS'ERR1003153'
p7454
aS'ERR1003146'
p7455
aS'Evx1.1'
p7456
aS'ERR1003148'
p7457
asS'ENSG00000123576'
p7458
(lp7459
S'Esx1.1'
p7460
aS'ERR193785'
p7461
aS'ERR188720'
p7462
aS'ERR188721'
p7463
aS'MA0644.2'
p7464
aS'ERR1003071'
p7465
aS'ERR1003065'
p7466
aS'ERR1003060'
p7467
aS'V_ESX1_01_M01474'
p7468
asS'ENSG00000142025'
p7469
(lp7470
S'ERR1002700'
p7471
aS'ERR1002698'
p7472
aS'ERR1002706'
p7473
aS'ERR1002707'
p7474
aS'ERR1002701'
p7475
aS'ERR1002713'
p7476
aS'ERR1002703'
p7477
aS'ERR1002709'
p7478
aS'ERR1002708'
p7479
aS'MA1479.1'
p7480
aS'ERR1002705'
p7481
aS'ERR1002704'
p7482
aS'ERR1002699'
p7483
aS'ERR1002711'
p7484
aS'ERR1002712'
p7485
aS'V_DMRT7_01_M01151'
p7486
aS'ERR1002710'
p7487
aS'ERR1002702'
p7488
asS'ENSG00000131408'
p7489
(lp7490
S'V_LXRB_RXRA_Q5_M02021'
p7491
ag2591
ag2574
asS'ENSG00000077150'
p7492
(lp7493
S'ERR1005036'
p7494
aS'ERR1005037'
p7495
aS'ERR1005034'
p7496
aS'ERR1005035'
p7497
aS'ERR194820'
p7498
aS'ERR194821'
p7499
aS'ERR194822'
p7500
aS'ERR194823'
p7501
aS'ERR1005041'
p7502
aS'ERR1005038'
p7503
aS'ERR1005039'
p7504
aS'ERR1005040'
p7505
aS'MA0778.1'
p7506
asS'ENSG00000106031'
p7507
(lp7508
S'ERR194040'
p7509
aS'ERR194041'
p7510
aS'ERR1003801'
p7511
aS'ERR1003800'
p7512
aS'Hoxa13.1'
p7513
aS'ERR1003799'
p7514
aS'ERR1003798'
p7515
aS'ERR1003795'
p7516
aS'ERR1003796'
p7517
aS'ERR1003791'
p7518
aS'ERR1003790'
p7519
aS'ERR1003793'
p7520
aS'ERR1003792'
p7521
aS'ERR194039'
p7522
aS'ERR193805'
p7523
aS'ERR193804'
p7524
aS'V_HOXA13_03_M01430'
p7525
aS'ERR1003788'
p7526
aS'ERR1003789'
p7527
aS'ERR1003786'
p7528
aS'ERR1003787'
p7529
aS'V_HOXA13_02_M01297'
p7530
asS'ENSG00000180828'
p7531
(lp7532
S'MA1635.1'
p7533
aS'ERR195116'
p7534
aS'ERR195115'
p7535
aS'ERR195114'
p7536
aS'MA0818.2'
p7537
aS'ERR1002334'
p7538
aS'ERR1002335'
p7539
aS'ERR1002336'
p7540
aS'ERR1002337'
p7541
aS'ERR1002330'
p7542
aS'ERR1002331'
p7543
aS'ERR1002332'
p7544
aS'ERR1002333'
p7545
asS'ENSG00000132170'
p7546
(lp7547
S'MA0066.1'
p7548
aS'V_PPAR_DR1_Q2_M00763'
p7549
ag2594
aS'V_PPARG_03_M00528'
p7550
asS'ENSG00000167562'
p7551
(lp7552
S'MA1987.1'
p7553
asS'ENSG00000130675'
p7554
(lp7555
S'Hlxb9.1'
p7556
aS'V_HB9_01_M01349'
p7557
aS'MA0707.2'
p7558
asS'ENSG00000139187'
p7559
(lp7560
S'MA1521.1'
p7561
aS'V_LMAF_Q2_M01139'
p7562
aS'ERR1004637'
p7563
aS'ERR1004636'
p7564
aS'ERR1004635'
p7565
aS'ERR1004634'
p7566
aS'ERR1004632'
p7567
aS'ERR1004631'
p7568
asS'ENSG00000189298'
p7569
(lp7570
S'ERR193764'
p7571
aS'ERR193765'
p7572
aS'MA1973.1'
p7573
asS'ENSG00000005102'
p7574
(lp7575
S'V_MOX1_01_M01443'
p7576
aS'ERR195009'
p7577
aS'ERR195012'
p7578
aS'MA0661.1'
p7579
aS'ERR195011'
p7580
aS'Meox1.1'
p7581
asS'ENSG00000009709'
p7582
(lp7583
S'V_PAX7_01_M01339'
p7584
aS'ERR1005498'
p7585
aS'ERR1005499'
p7586
aS'ERR1005494'
p7587
aS'ERR1005495'
p7588
aS'ERR1005496'
p7589
aS'ERR1005497'
p7590
aS'ERR1005490'
p7591
aS'ERR1005491'
p7592
aS'ERR1005492'
p7593
aS'ERR1005493'
p7594
aS'Pax7.1'
p7595
aS'ERR1005500'
p7596
aS'ERR1005501'
p7597
aS'ERR1005487'
p7598
aS'ERR1005486'
p7599
aS'ERR1005489'
p7600
aS'ERR1005488'
p7601
aS'ERR193889'
p7602
aS'ERR193888'
p7603
aS'ERR195395'
p7604
aS'ERR195394'
p7605
aS'ERR195396'
p7606
aS'ERR195393'
p7607
asS'ENSG00000005513'
p7608
(lp7609
S'V_SOX8_04_M02912'
p7610
aS'ERR1006184'
p7611
aS'V_SOX8_03_M02808'
p7612
aS'ERR194508'
p7613
aS'ERR1006188'
p7614
aS'ERR1006185'
p7615
aS'ERR1006182'
p7616
aS'Sox8.2'
p7617
aS'ERR194509'
p7618
aS'Sox8.1'
p7619
aS'MA0868.2'
p7620
aS'ERR1006189'
p7621
aS'ERR193925'
p7622
aS'ERR1006187'
p7623
aS'ERR1006186'
p7624
aS'ERR1006178'
p7625
aS'ERR1006179'
p7626
aS'ERR194507'
p7627
aS'ERR194506'
p7628
aS'ERR1006181'
p7629
aS'ERR1006180'
p7630
asS'ENSG00000158805'
p7631
(lp7632
S'ERR1007029'
p7633
aS'ERR1007028'
p7634
aS'ERR1007027'
p7635
aS'ERR1007026'
p7636
aS'ERR1007025'
p7637
aS'ERR1007024'
p7638
asS'ENSG00000168269'
p7639
(lp7640
g2349
ag4252
aS'ERR194012'
p7641
aS'ERR1003311'
p7642
aS'ERR1003313'
p7643
aS'ERR194013'
p7644
ag5466
ag963
aS'ERR1003309'
p7645
aS'V_HFH3_01_M00289'
p7646
asS'ENSG00000078399'
p7647
(lp7648
g527
ag528
aS'Hoxa9.1'
p7649
aS'MA0594.2'
p7650
aS'V_HOXA9_01_M01351'
p7651
aS'ERR1003860'
p7652
asS'ENSG00000122691'
p7653
(lp7654
S'MA1123.2'
p7655
asS'ENSG00000123358'
p7656
(lp7657
S'V_NUR77_Q5_M01217'
p7658
aS'ERR1005261'
p7659
aS'ERR1005260'
p7660
aS'ERR1005252'
p7661
aS'ERR1005253'
p7662
aS'ERR1005250'
p7663
aS'ERR1005251'
p7664
aS'ERR1005256'
p7665
aS'MA1112.2'
p7666
aS'ERR1005254'
p7667
aS'ERR1005255'
p7668
aS'ERR1005258'
p7669
aS'ERR1005259'
p7670
aS'ERR1005257'
p7671
asS'ENSG00000090565'
p7672
(lp7673
S'ERR195126'
p7674
aS'ERR195127'
p7675
aS'ERR195125'
p7676
aS'Cart1.2'
p7677
aS'ERR195128'
p7678
asS'ENSG00000198815'
p7679
(lp7680
S'Foxj3.2'
p7681
aS'Foxj3.1'
p7682
aS'ERR194024'
p7683
aS'ERR194025'
p7684
aS'ERR1003337'
p7685
aS'ERR188737'
p7686
aS'ERR1003335'
p7687
aS'V_FOXJ3_06_M02855'
p7688
asS'ENSG00000148704'
p7689
(lp7690
S'ERR195752'
p7691
aS'ERR195751'
p7692
aS'V_VAX1_01_M01397'
p7693
aS'MA0722.1'
p7694
aS'Vax1.1'
p7695
asS'ENSG00000120738'
p7696
(lp7697
S'V_EGR1_04_M02848'
p7698
aS'V_EGR1_01_M00243'
p7699
aS'ERR195162'
p7700
aS'ERR195163'
p7701
aS'ERR195161'
p7702
aS'ERR194693'
p7703
aS'ERR194692'
p7704
aS'ERR195164'
p7705
aS'V_EGR1_02_M01972'
p7706
aS'Egr1.2'
p7707
aS'ERR1002798'
p7708
aS'ERR1002799'
p7709
aS'V_EGR_Q6_M00807'
p7710
aS'Egr1.1'
p7711
aS'V_EGR1_06_M02744'
p7712
aS'V_EGR1_Q6_M01873'
p7713
aS'V_KROX_Q6_M00982'
p7714
aS'ERR1002796'
p7715
aS'MA0162.4'
p7716
aS'ERR185028'
p7717
aS'ERR185029'
p7718
aS'Zif268.1'
p7719
aS'ERR1002800'
p7720
asS'ENSG00000184271'
p7721
(lp7722
S'V_POU6F1_03_M01479'
p7723
aS'V_POU6F1_02_M01462'
p7724
aS'MA0628.1'
p7725
aS'Pou6f1.2'
p7726
aS'ERR1005717'
p7727
aS'ERR1005716'
p7728
aS'ERR1005715'
p7729
aS'ERR1005713'
p7730
aS'MA1549.1'
p7731
aS'V_POU6F1_01_M00465'
p7732
asS'ENSG00000168310'
p7733
(lp7734
S'ERR1004181'
p7735
aS'ERR1004180'
p7736
aS'V_IRF2_01_M00063'
p7737
aS'ERR1004178'
p7738
aS'ERR1004179'
p7739
aS'ERR1004183'
p7740
aS'ERR1004182'
p7741
aS'ERR1004185'
p7742
aS'ERR1004184'
p7743
aS'V_IRF2_Q6_M01882'
p7744
aS'MA0051.1'
p7745
asS'ENSG00000122592'
p7746
(lp7747
S'V_HOXA7_03_M01394'
p7748
aS'ERR1003856'
p7749
aS'MA1498.2'
p7750
aS'V_HOXA7_02_M01336'
p7751
aS'Hoxa7.1'
p7752
asS'ENSG00000126778'
p7753
(lp7754
S'Six1.1'
p7755
aS'V_SIX1_01_M01313'
p7756
aS'MA1118.1'
p7757
asS'ENSG00000143032'
p7758
(lp7759
S'ERR194248'
p7760
aS'ERR194249'
p7761
aS'ERR188676'
p7762
aS'ERR188677'
p7763
aS'ERR194250'
p7764
aS'V_BARHL2_01_M01446'
p7765
aS'Barhl2.1'
p7766
aS'ERR194246'
p7767
aS'ERR194247'
p7768
aS'ERR1002247'
p7769
aS'ERR194251'
p7770
aS'MA0635.1'
p7771
aS'ERR1002248'
p7772
aS'ERR1002249'
p7773
asS'ENSG00000166949'
p7774
(lp7775
S'Smad3.2'
p7776
aS'Smad3.1'
p7777
aS'V_SMAD3_Q6_M00701'
p7778
aS'V_SMAD3_Q6_01_M01888'
p7779
aS'ERR188841'
p7780
aS'ERR188840'
p7781
aS'MA0795.1'
p7782
aS'V_SMAD3_03_M02794'
p7783
asS'ENSG00000151090'
p7784
(lp7785
S'MA1576.1'
p7786
aS'ERR1006594'
p7787
aS'ERR1006595'
p7788
aS'ERR1006596'
p7789
aS'ERR1006597'
p7790
aS'ERR1006598'
p7791
aS'ERR1006599'
p7792
aS'ERR194572'
p7793
aS'ERR194573'
p7794
aS'ERR194574'
p7795
aS'ERR194575'
p7796
aS'V_T3RBETA_Q6_01_M02119'
p7797
aS'ERR1006608'
p7798
aS'ERR1006609'
p7799
aS'ERR1006600'
p7800
aS'ERR1006601'
p7801
aS'ERR1006602'
p7802
aS'ERR1006603'
p7803
aS'ERR1006604'
p7804
aS'ERR1006605'
p7805
aS'ERR1006606'
p7806
aS'ERR1006607'
p7807
aS'MA1574.1'
p7808
aS'MA1575.1'
p7809
asS'ENSG00000257335'
p7810
(lp7811
S'ERR195324'
p7812
ag7449
aS'ERR195322'
p7813
aS'ERR195323'
p7814
asS'ENSG00000136352'
p7815
(lp7816
S'V_TTF1_Q6_M00794'
p7817
aS'Titf1.1'
p7818
aS'V_TITF1_Q3_M00432'
p7819
aS'V_NKX21_01_M01312'
p7820
aS'V_TTF1_Q5_M02034'
p7821
asS'ENSG00000104889'
p7822
(lp7823
S'ERR1004362'
p7824
ag3357
aS'ERR1004366'
p7825
ag2383
ag4703
ag3363
ag7404
aS'MA0490.2'
p7826
aS'ERR1004369'
p7827
aS'ERR1004368'
p7828
aS'ERR1004364'
p7829
ag6045
ag2386
aS'MA1140.2'
p7830
ag4708
asS'ENSG00000204060'
p7831
(lp7832
S'ERR194215'
p7833
aS'ERR194214'
p7834
asS'ENSG00000217236'
p7835
(lp7836
S'MA1564.1'
p7837
aS'ERR1006231'
p7838
aS'ERR1006230'
p7839
aS'ERR1006233'
p7840
aS'ERR1006232'
p7841
aS'ERR1006235'
p7842
aS'ERR1006234'
p7843
aS'ERR1006237'
p7844
aS'ERR1006236'
p7845
asS'ENSG00000198353'
p7846
(lp7847
S'MA1504.1'
p7848
aS'ERR1004000'
p7849
aS'ERR1004002'
p7850
aS'ERR1004004'
p7851
aS'ERR1004005'
p7852
aS'V_HOXC4_01_M01369'
p7853
aS'Hoxc4.1'
p7854
aS'ERR1003999'
p7855
asS'ENSG00000099326'
p7856
(lp7857
S'V_MZF1_02_M00084'
p7858
aS'MA0056.2'
p7859
asS'ENSG00000106852'
p7860
(lp7861
S'V_LHX61_02_M01422'
p7862
aS'Lhx6.1'
p7863
aS'ERR1004553'
p7864
aS'ERR194063'
p7865
aS'ERR194064'
p7866
aS'ERR1004557'
p7867
aS'ERR1004555'
p7868
aS'MA0658.1'
p7869
aS'V_LHX61_01_M01314'
p7870
aS'ERR194065'
p7871
asS'ENSG00000130508'
p7872
(lp7873
S'V_PAX_Q6_M00808'
p7874
asS'ENSG00000100625'
p7875
(lp7876
S'ERR1006006'
p7877
aS'Six4.1'
p7878
aS'V_SIX4_01_M01374'
p7879
aS'ERR1006011'
p7880
asS'ENSG00000258873'
p7881
(lp7882
S'ERR1002740'
p7883
aS'ERR1002742'
p7884
aS'ERR1002744'
p7885
aS'ERR193979'
p7886
aS'ERR193980'
p7887
aS'ERR193981'
p7888
aS'MA0884.2'
p7889
aS'ERR1002739'
p7890
asS'ENSG00000181472'
p7891
(lp7892
S'ERR1006804'
p7893
aS'ERR1006805'
p7894
aS'ERR1006803'
p7895
aS'ERR1006801'
p7896
asS'ENSG00000170178'
p7897
(lp7898
S'ERR1004061'
p7899
aS'ERR194217'
p7900
aS'ERR194216'
p7901
aS'Hoxd12.1'
p7902
aS'ERR194219'
p7903
aS'ERR194218'
p7904
aS'ERR1004059'
p7905
aS'MA0873.1'
p7906
aS'ERR195276'
p7907
aS'ERR195274'
p7908
aS'ERR195275'
p7909
ag4802
aS'ERR1004054'
p7910
aS'ERR1004057'
p7911
aS'ERR1004055'
p7912
aS'V_HOXD12_01_M01380'
p7913
asS'ENSG00000196132'
p7914
(lp7915
S'ERR1004853'
p7916
aS'ERR1004852'
p7917
aS'ERR1004850'
p7918
aS'ERR1004857'
p7919
aS'ERR1004856'
p7920
aS'ERR1004855'
p7921
aS'ERR1004854'
p7922
aS'V_MTF1_01_M01242'
p7923
aS'Mtf1.1'
p7924
aS'Mtf1.2'
p7925
aS'V_MTF1_05_M02778'
p7926
aS'V_MTF1_Q4_M00650'
p7927
aS'ERR195332'
p7928
aS'MA0863.1'
p7929
aS'V_MTF1_06_M02882'
p7930
asS'ENSG00000100968'
p7931
(lp7932
S'MA1525.2'
p7933
aS'V_NFAT3_Q3_M01734'
p7934
aS'ERR1005000'
p7935
asS'ENSG00000095794'
p7936
(lp7937
S'ERR1002525'
p7938
aS'ERR1002527'
p7939
aS'ERR1002526'
p7940
aS'MA0609.2'
p7941
aS'ERR1002529'
p7942
aS'ERR1002528'
p7943
aS'V_CREM_Q6_M01820'
p7944
asS'ENSG00000100219'
p7945
(lp7946
S'ERR188869'
p7947
aS'ERR188868'
p7948
aS'MA0844.1'
p7949
aS'ERR1006720'
p7950
aS'V_XBP1_01_M00251'
p7951
aS'ERR188867'
p7952
aS'ERR1006724'
p7953
aS'V_XBP1_02_M01770'
p7954
aS'ERR1006725'
p7955
aS'V_HTF_01_M00538'
p7956
asS'ENSG00000180053'
p7957
(lp7958
S'V_NKX26_01_M01322'
p7959
asS'ENSG00000151623'
p7960
(lp7961
S'ERR188787'
p7962
aS'ERR188788'
p7963
aS'ERR188789'
p7964
aS'MA0727.1'
p7965
aS'ERR1005243'
p7966
aS'ERR1005242'
p7967
aS'ERR1005245'
p7968
aS'ERR1005244'
p7969
aS'ERR1005247'
p7970
aS'ERR1005246'
p7971
aS'ERR1005249'
p7972
aS'ERR1005248'
p7973
asS'ENSG00000115415'
p7974
(lp7975
S'V_STAT1_01_M00224'
p7976
aS'MA0137.3'
p7977
ag5759
aS'V_STAT1STAT1_Q3_M01212'
p7978
aS'V_STAT_01_M00223'
p7979
aS'V_STAT1_Q6_M01823'
p7980
aS'V_STAT_Q6_M00777'
p7981
aS'V_STAT1_05_M01260'
p7982
asS'ENSG00000107859'
p7983
(lp7984
S'V_PITX3_01_M01343'
p7985
aS'ERR195412'
p7986
aS'ERR195411'
p7987
aS'V_PITX3_Q2_M01735'
p7988
aS'MA0714.1'
p7989
aS'Pitx3.1'
p7990
asS'ENSG00000165066'
p7991
(lp7992
S'V_NKX63_01_M01470'
p7993
asS'ENSG00000151789'
p7994
(lp7995
S'ERR1007100'
p7996
aS'ERR1007098'
p7997
asS'ENSG00000075891'
p7998
(lp7999
S'ERR195378'
p8000
aS'ERR1005447'
p8001
aS'ERR1005446'
p8002
aS'MA0067.2'
p8003
aS'ERR1005450'
p8004
aS'ERR1005451'
p8005
aS'ERR1005452'
p8006
aS'ERR1005453'
p8007
aS'ERR1005449'
p8008
aS'ERR195379'
p8009
aS'V_PAX2_01_M00098'
p8010
aS'ERR195377'
p8011
aS'V_PAX2_02_M00486'
p8012
aS'ERR195380'
p8013
aS'ERR1005448'
p8014
asS'ENSG00000165702'
p8015
(lp8016
S'ERR1003520'
p8017
aS'ERR1003521'
p8018
aS'V_GFI1B_01_M01058'
p8019
aS'ERR1003519'
p8020
aS'ERR1003518'
p8021
aS'ERR1003517'
p8022
aS'ERR1003516'
p8023
aS'ERR1003515'
p8024
aS'ERR1003514'
p8025
asS'ENSG00000172238'
p8026
(lp8027
S'ERR1002217'
p8028
aS'ERR1002216'
p8029
aS'ERR1002215'
p8030
aS'ERR1002214'
p8031
aS'ERR1002213'
p8032
aS'ERR1002212'
p8033
aS'V_MATH1_Q2_M01716'
p8034
aS'ERR1002210'
p8035
aS'ERR195548'
p8036
aS'ERR195547'
p8037
asS'ENSG00000125798'
p8038
(lp8039
S'ERR1003247'
p8040
aS'ERR1003246'
p8041
aS'V_HNF3B_Q6_M02014'
p8042
aS'V_FOXA2_02_M02853'
p8043
aS'MA0047.3'
p8044
aS'V_HNF3B_01_M00131'
p8045
aS'V_HNF3A_01_M01261'
p8046
aS'ERR1003248'
p8047
aS'Foxa2.2'
p8048
aS'Foxa2.1'
p8049
aS'ERR1003249'
p8050
aS'V_FOXA2_03_M02260'
p8051
aS'V_FOXA2_04_M02749'
p8052
asS'ENSG00000197921'
p8053
(lp8054
S'ERR1003643'
p8055
aS'ERR1003640'
p8056
aS'MA0821.2'
p8057
aS'ERR1003642'
p8058
aS'ERR1003644'
p8059
aS'ERR1003641'
p8060
aS'ERR1003645'
p8061
aS'ERR1003638'
p8062
aS'ERR195228'
p8063
aS'ERR194343'
p8064
aS'ERR194342'
p8065
aS'ERR194345'
p8066
aS'ERR194344'
p8067
aS'ERR194347'
p8068
aS'ERR194346'
p8069
aS'ERR195227'
p8070
asS'ENSG00000169856'
p8071
(lp8072
S'ERR1005340'
p8073
aS'ERR1005343'
p8074
aS'ERR1005344'
p8075
aS'ERR1005345'
p8076
aS'ERR1005346'
p8077
aS'ERR1005347'
p8078
aS'ERR1005348'
p8079
aS'ERR1005349'
p8080
aS'ERR193883'
p8081
aS'ERR193885'
p8082
aS'ERR1005338'
p8083
aS'ERR195362'
p8084
aS'ERR195363'
p8085
aS'ERR195364'
p8086
aS'ERR1005334'
p8087
aS'ERR1005336'
p8088
aS'MA0679.2'
p8089
aS'ERR193884'
p8090
aS'V_HNF6_Q6_M00639'
p8091
asS'ENSG00000108511'
p8092
(lp8093
S'ERR1003917'
p8094
aS'Hoxb6.1'
p8095
aS'ERR1003915'
p8096
aS'MA1500.1'
p8097
aS'V_HOXB6_01_M01460'
p8098
aS'ERR1003916'
p8099
asS'ENSG00000126456'
p8100
(lp8101
S'ERR1004200'
p8102
aS'ERR1004201'
p8103
aS'ERR194370'
p8104
aS'ERR194371'
p8105
aS'ERR1004192'
p8106
aS'Irf3.1'
p8107
aS'ERR1004190'
p8108
aS'ERR1004186'
p8109
aS'ERR1004189'
p8110
aS'ERR1004188'
p8111
aS'MA1418.1'
p8112
aS'ERR194367'
p8113
aS'ERR194369'
p8114
aS'ERR194368'
p8115
aS'V_IRF3_05_M02767'
p8116
aS'V_IRF3_06_M02871'
p8117
aS'ERR1004193'
p8118
aS'Irf3.2'
p8119
aS'ERR1004191'
p8120
aS'ERR1004196'
p8121
aS'ERR1004194'
p8122
aS'V_IRF3_Q3_M01279'
p8123
aS'ERR1004198'
p8124
aS'ERR1004199'
p8125
asS'ENSG00000114861'
p8126
(lp8127
S'MA0481.3'
p8128
aS'ERR1003382'
p8129
aS'ERR1003383'
p8130
aS'ERR1003380'
p8131
aS'ERR1003381'
p8132
aS'V_FOXP1_01_M00987'
p8133
aS'ERR1003384'
p8134
aS'ERR1003385'
p8135
aS'ERR1003378'
p8136
asS'ENSG00000134317'
p8137
(lp8138
S'ERR194990'
p8139
aS'ERR194991'
p8140
aS'ERR194992'
p8141
aS'MA0647.1'
p8142
aS'ERR248790'
p8143
aS'ERR194989'
p8144
aS'ERR1003568'
p8145
aS'ERR1003569'
p8146
aS'ERR194763'
p8147
aS'ERR1003567'
p8148
aS'ERR194761'
p8149
aS'ERR194760'
p8150
aS'ERR1003571'
p8151
aS'ERR1003570'
p8152
aS'ERR1003573'
p8153
aS'ERR1003572'
p8154
asS'ENSG00000167967'
p8155
(lp8156
S'V_E4F1_Q6_01_M02091'
p8157
aS'V_E4F1_Q6_M00694'
p8158
asS'ENSG00000100987'
p8159
(lp8160
S'ERR194745'
p8161
aS'ERR194744'
p8162
aS'ERR194747'
p8163
aS'ERR193952'
p8164
aS'ERR1006692'
p8165
aS'ERR193951'
p8166
aS'ERR193953'
p8167
aS'ERR195756'
p8168
aS'Vsx1.1'
p8169
aS'V_VSX1_01_M01335'
p8170
aS'ERR1006701'
p8171
aS'ERR1006700'
p8172
aS'ERR194746'
p8173
aS'ERR1006698'
p8174
aS'MA0725.1'
p8175
aS'ERR1006695'
p8176
asS'ENSG00000125492'
p8177
(lp8178
S'MA0877.3'
p8179
aS'ERR188692'
p8180
aS'ERR188693'
p8181
aS'V_BARHL1_01_M01332'
p8182
aS'ERR188691'
p8183
aS'Barhl1.1'
p8184
asS'ENSG00000178665'
p8185
(lp8186
S'ERR1007212'
p8187
aS'ERR1007213'
p8188
aS'ERR1007214'
p8189
aS'ERR1007215'
p8190
aS'ERR1007216'
p8191
aS'ERR1007217'
p8192
aS'ERR193769'
p8193
aS'ERR193768'
p8194
asS'ENSG00000025156'
p8195
(lp8196
S'ERR1004138'
p8197
aS'ERR1004139'
p8198
aS'ERR1004134'
p8199
aS'ERR1004135'
p8200
aS'ERR1004136'
p8201
aS'ERR1004137'
p8202
aS'ERR1004130'
p8203
aS'ERR1004131'
p8204
aS'ERR1004132'
p8205
aS'ERR1004133'
p8206
aS'ERR194904'
p8207
aS'ERR194903'
p8208
aS'ERR194902'
p8209
aS'ERR1004145'
p8210
aS'ERR1004144'
p8211
aS'ERR1004141'
p8212
aS'ERR1004140'
p8213
aS'ERR1004143'
p8214
aS'ERR1004142'
p8215
aS'MA0770.1'
p8216
aS'V_HSF2_01_M00147'
p8217
aS'V_HSF2_02_M01244'
p8218
asS'ENSG00000152284'
p8219
(lp8220
S'V_E47_01_M00002'
p8221
aS'V_TCF3_01_M01594'
p8222
aS'ERR193756'
p8223
aS'Tcfe2a.1'
p8224
aS'Tcfe2a.2'
p8225
aS'ERR193757'
p8226
aS'ERR1006416'
p8227
ag4738
aS'MA0522.3'
p8228
aS'ERR1006419'
p8229
aS'V_E47_02_M00071'
p8230
aS'ERR1006414'
p8231
aS'ERR1006417'
p8232
aS'V_TCFE2A_03_M02823'
p8233
aS'V_E2A_Q2_M00804'
p8234
aS'MA1421.1'
p8235
aS'ERR1006418'
p8236
aS'V_TCFE2A_04_M02927'
p8237
aS'Tcf3.2'
p8238
ag4735
aS'Tcf3.1'
p8239
ag4736
aS'V_TCF3_05_M02920'
p8240
aS'V_TCF3_04_M02816'
p8241
aS'V_E2A_Q6_01_M02088'
p8242
aS'ERR1006420'
p8243
aS'ERR1006421'
p8244
ag6659
aS'V_E12_Q6_M00693'
p8245
asS'ENSG00000179965'
p8246
(lp8247
S'ERR1007272'
p8248
aS'ERR1007271'
p8249
aS'ERR1007273'
p8250
aS'ERR1007270'
p8251
aS'ERR1007261'
p8252
aS'ERR1007260'
p8253
aS'ERR1007263'
p8254
aS'ERR1007262'
p8255
aS'ERR1007265'
p8256
aS'ERR1007264'
p8257
aS'ERR1007267'
p8258
aS'ERR1007266'
p8259
aS'ERR1007269'
p8260
aS'ERR1007268'
p8261
aS'ERR1007258'
p8262
aS'ERR1007259'
p8263
asS'ENSG00000113580'
p8264
(lp8265
S'ERR194205'
p8266
aS'ERR194206'
p8267
aS'ERR194207'
p8268
aS'ERR1005234'
p8269
aS'MA0113.3'
p8270
aS'ERR1005236'
p8271
aS'ERR1005238'
p8272
aS'ERR1005239'
p8273
aS'V_GRE_C_M00205'
p8274
aS'V_GR_Q6_01_M00921'
p8275
aS'ERR1005241'
p8276
aS'V_GR_01_M00955'
p8277
aS'V_GR_Q6_02_M01836'
p8278
aS'V_NR3C1_01_M02219'
p8279
aS'V_GR_Q6_M00192'
p8280
asS'ENSG00000164011'
p8281
(lp8282
S'Zfp691.2'
p8283
aS'Zfp691.1'
p8284
asS'ENSG00000148826'
p8285
(lp8286
S'V_NKX62_Q2_M00489'
p8287
asS'ENSG00000162086'
p8288
(lp8289
S'ERR1007249'
p8290
aS'ERR1007235'
p8291
aS'ERR1007238'
p8292
aS'ERR1007239'
p8293
aS'ERR1007236'
p8294
aS'ERR1007237'
p8295
aS'ERR1007241'
p8296
aS'ERR1007240'
p8297
aS'ERR1007247'
p8298
aS'ERR1007245'
p8299
aS'ERR194916'
p8300
aS'ERR1007234'
p8301
asS'ENSG00000196724'
p8302
(lp8303
S'MA1980.1'
p8304
asS'ENSG00000197714'
p8305
(lp8306
S'ERR1007143'
p8307
aS'MA1596.1'
p8308
asS'ENSG00000136451'
p8309
(lp8310
S'MA1578.1'
p8311
asS'ENSG00000284638'
p8312
(lp8313
S'ERR1005025'
p8314
aS'ERR1005024'
p8315
aS'ERR1005021'
p8316
aS'ERR1005020'
p8317
aS'ERR1005023'
p8318
aS'ERR1005022'
p8319
aS'ERR1005018'
p8320
aS'ERR1005019'
p8321
aS'V_MYOGNF1_01_M00056'
p8322
aS'MA0161.2'
p8323
ag1233
aS'MA1527.1'
p8324
asS'ENSG00000179388'
p8325
(lp8326
S'ERR195588'
p8327
aS'V_EGR3_01_M00245'
p8328
aS'ERR193988'
p8329
aS'ERR193989'
p8330
aS'ERR195587'
p8331
aS'MA0732.1'
p8332
aS'ERR1002811'
p8333
aS'ERR1002810'
p8334
aS'ERR1002813'
p8335
aS'ERR1002812'
p8336
aS'ERR1002815'
p8337
aS'ERR1002814'
p8338
aS'ERR1002817'
p8339
aS'ERR1002816'
p8340
asS'ENSG00000103241'
p8341
(lp8342
S'V_HFH8_01_M00294'
p8343
as.